
test1.bin:     file format elf32-littleriscv


Disassembly of section .text:

00010000 <_ftext>:
   10000:	0000d197          	auipc	gp,0xd
   10004:	58018193          	addi	gp,gp,1408 # 1d580 <_gp>
   10008:	0000d297          	auipc	t0,0xd
   1000c:	df028293          	addi	t0,t0,-528 # 1cdf8 <_PathLocale>
   10010:	0000d317          	auipc	t1,0xd
   10014:	ea030313          	addi	t1,t1,-352 # 1ceb0 <_end>
   10018:	0002a023          	sw	zero,0(t0)
   1001c:	00428293          	addi	t0,t0,4
   10020:	fe62ece3          	bltu	t0,t1,10018 <_ftext+0x18>
   10024:	00001517          	auipc	a0,0x1
   10028:	ae450513          	addi	a0,a0,-1308 # 10b08 <__libc_fini_array>
   1002c:	1f9000ef          	jal	10a24 <atexit>
   10030:	239000ef          	jal	10a68 <__libc_init_array>
   10034:	00012503          	lw	a0,0(sp)
   10038:	00410593          	addi	a1,sp,4
   1003c:	00000613          	li	a2,0
   10040:	0b1000ef          	jal	108f0 <main>
   10044:	1f50006f          	j	10a38 <exit>

00010048 <_fini>:
   10048:	00008067          	ret

0001004c <deregister_tm_clones>:
   1004c:	80018713          	addi	a4,gp,-2048 # 1cd80 <_edata>
   10050:	80318793          	addi	a5,gp,-2045 # 1cd83 <_edata+0x3>
   10054:	40e787b3          	sub	a5,a5,a4
   10058:	00600713          	li	a4,6
   1005c:	00f77a63          	bleu	a5,a4,10070 <deregister_tm_clones+0x24>
   10060:	00000293          	li	t0,0
   10064:	00028663          	beqz	t0,10070 <deregister_tm_clones+0x24>
   10068:	80018513          	addi	a0,gp,-2048 # 1cd80 <_edata>
   1006c:	00028067          	jr	t0
   10070:	00008067          	ret

00010074 <register_tm_clones>:
   10074:	80018593          	addi	a1,gp,-2048 # 1cd80 <_edata>
   10078:	80018793          	addi	a5,gp,-2048 # 1cd80 <_edata>
   1007c:	40b787b3          	sub	a5,a5,a1
   10080:	4027d793          	srai	a5,a5,0x2
   10084:	01f7d593          	srli	a1,a5,0x1f
   10088:	00f585b3          	add	a1,a1,a5
   1008c:	4015d593          	srai	a1,a1,0x1
   10090:	00058a63          	beqz	a1,100a4 <register_tm_clones+0x30>
   10094:	00000293          	li	t0,0
   10098:	00028663          	beqz	t0,100a4 <register_tm_clones+0x30>
   1009c:	80018513          	addi	a0,gp,-2048 # 1cd80 <_edata>
   100a0:	00028067          	jr	t0
   100a4:	00008067          	ret

000100a8 <__do_global_dtors_aux>:
   100a8:	ff010113          	addi	sp,sp,-16
   100ac:	00812423          	sw	s0,8(sp)
   100b0:	8981c783          	lbu	a5,-1896(gp) # 1ce18 <completed.2868>
   100b4:	00112623          	sw	ra,12(sp)
   100b8:	02079263          	bnez	a5,100dc <__do_global_dtors_aux+0x34>
   100bc:	f91ff0ef          	jal	1004c <deregister_tm_clones>
   100c0:	00000793          	li	a5,0
   100c4:	00078863          	beqz	a5,100d4 <__do_global_dtors_aux+0x2c>
   100c8:	0001b537          	lui	a0,0x1b
   100cc:	2d050513          	addi	a0,a0,720 # 1b2d0 <__fini_array_end>
   100d0:	f31ef0ef          	jal	0 <_ftext-0x10000>
   100d4:	00100793          	li	a5,1
   100d8:	88f18c23          	sb	a5,-1896(gp) # 1ce18 <completed.2868>
   100dc:	00c12083          	lw	ra,12(sp)
   100e0:	00812403          	lw	s0,8(sp)
   100e4:	01010113          	addi	sp,sp,16
   100e8:	00008067          	ret

000100ec <frame_dummy>:
   100ec:	ff010113          	addi	sp,sp,-16
   100f0:	00000793          	li	a5,0
   100f4:	00112623          	sw	ra,12(sp)
   100f8:	00078a63          	beqz	a5,1010c <frame_dummy+0x20>
   100fc:	0001b537          	lui	a0,0x1b
   10100:	2d050513          	addi	a0,a0,720 # 1b2d0 <__fini_array_end>
   10104:	89c18593          	addi	a1,gp,-1892 # 1ce1c <object.2873>
   10108:	ef9ef0ef          	jal	0 <_ftext-0x10000>
   1010c:	0001c537          	lui	a0,0x1c
   10110:	50c50513          	addi	a0,a0,1292 # 1c50c <__JCR_END__>
   10114:	00052783          	lw	a5,0(a0)
   10118:	00079863          	bnez	a5,10128 <frame_dummy+0x3c>
   1011c:	00c12083          	lw	ra,12(sp)
   10120:	01010113          	addi	sp,sp,16
   10124:	f51ff06f          	j	10074 <register_tm_clones>
   10128:	00000793          	li	a5,0
   1012c:	fe0788e3          	beqz	a5,1011c <frame_dummy+0x30>
   10130:	000780e7          	jalr	a5
   10134:	fe9ff06f          	j	1011c <frame_dummy+0x30>
   10138:	0000                	unimp
   1013a:	0000                	unimp
   1013c:	0000                	unimp
   1013e:	0000                	unimp

00010140 <list_getSize>:
   10140:	ff410113          	addi	sp,sp,-12
   10144:	00812423          	sw	s0,8(sp)
   10148:	00200433          	add	s0,zero,sp
   1014c:	00a42223          	sw	a0,4(s0)
   10150:	00052283          	lw	t0,0(a0)
   10154:	00a42023          	sw	a0,0(s0)
   10158:	00028513          	mv	a0,t0
   1015c:	00800133          	add	sp,zero,s0
   10160:	00812403          	lw	s0,8(sp)
   10164:	00c10113          	addi	sp,sp,12
   10168:	00008067          	ret
   1016c:	00000013          	nop

00010170 <list_init>:
   10170:	ff410113          	addi	sp,sp,-12
   10174:	00812423          	sw	s0,8(sp)
   10178:	00200433          	add	s0,zero,sp
   1017c:	00a42223          	sw	a0,4(s0)
   10180:	00052023          	sw	zero,0(a0)
   10184:	00442283          	lw	t0,4(s0)
   10188:	0002a223          	sw	zero,4(t0)
   1018c:	00a42023          	sw	a0,0(s0)
   10190:	00800133          	add	sp,zero,s0
   10194:	00812403          	lw	s0,8(sp)
   10198:	00c10113          	addi	sp,sp,12
   1019c:	00008067          	ret

000101a0 <list_push>:
   101a0:	fe810113          	addi	sp,sp,-24
   101a4:	00812a23          	sw	s0,20(sp)
   101a8:	00200433          	add	s0,zero,sp
   101ac:	00a42823          	sw	a0,16(s0)
   101b0:	00b42623          	sw	a1,12(s0)
   101b4:	8f018293          	addi	t0,gp,-1808 # 1ce70 <g_nodeFreeList>
   101b8:	0042a303          	lw	t1,4(t0)
   101bc:	00642423          	sw	t1,8(s0)
   101c0:	0042a303          	lw	t1,4(t0)
   101c4:	00432303          	lw	t1,4(t1)
   101c8:	0062a223          	sw	t1,4(t0)
   101cc:	01042283          	lw	t0,16(s0)
   101d0:	0042a283          	lw	t0,4(t0)
   101d4:	00842303          	lw	t1,8(s0)
   101d8:	00532223          	sw	t0,4(t1)
   101dc:	00842283          	lw	t0,8(s0)
   101e0:	01042303          	lw	t1,16(s0)
   101e4:	00532223          	sw	t0,4(t1)
   101e8:	00c42283          	lw	t0,12(s0)
   101ec:	01042303          	lw	t1,16(s0)
   101f0:	00432303          	lw	t1,4(t1)
   101f4:	00532023          	sw	t0,0(t1)
   101f8:	01042283          	lw	t0,16(s0)
   101fc:	0002a303          	lw	t1,0(t0)
   10200:	00130313          	addi	t1,t1,1
   10204:	0062a023          	sw	t1,0(t0)
   10208:	00a42223          	sw	a0,4(s0)
   1020c:	00b42023          	sw	a1,0(s0)
   10210:	00800133          	add	sp,zero,s0
   10214:	01412403          	lw	s0,20(sp)
   10218:	01810113          	addi	sp,sp,24
   1021c:	00008067          	ret

00010220 <list_pop>:
   10220:	fec10113          	addi	sp,sp,-20
   10224:	00812823          	sw	s0,16(sp)
   10228:	00200433          	add	s0,zero,sp
   1022c:	00a42623          	sw	a0,12(s0)
   10230:	00452283          	lw	t0,4(a0)
   10234:	0002a283          	lw	t0,0(t0)
   10238:	00542223          	sw	t0,4(s0)
   1023c:	00c42283          	lw	t0,12(s0)
   10240:	0042a283          	lw	t0,4(t0)
   10244:	00542423          	sw	t0,8(s0)
   10248:	00c42283          	lw	t0,12(s0)
   1024c:	0042a303          	lw	t1,4(t0)
   10250:	00432303          	lw	t1,4(t1)
   10254:	0062a223          	sw	t1,4(t0)
   10258:	8f018293          	addi	t0,gp,-1808 # 1ce70 <g_nodeFreeList>
   1025c:	0042a303          	lw	t1,4(t0)
   10260:	00842383          	lw	t2,8(s0)
   10264:	0063a223          	sw	t1,4(t2)
   10268:	00842303          	lw	t1,8(s0)
   1026c:	0062a223          	sw	t1,4(t0)
   10270:	00c42283          	lw	t0,12(s0)
   10274:	0002a303          	lw	t1,0(t0)
   10278:	fff30313          	addi	t1,t1,-1
   1027c:	0062a023          	sw	t1,0(t0)
   10280:	00442283          	lw	t0,4(s0)
   10284:	00a42023          	sw	a0,0(s0)
   10288:	00028513          	mv	a0,t0
   1028c:	00800133          	add	sp,zero,s0
   10290:	01012403          	lw	s0,16(sp)
   10294:	01410113          	addi	sp,sp,20
   10298:	00008067          	ret
   1029c:	00000013          	nop

000102a0 <list_clear>:
   102a0:	fe010113          	addi	sp,sp,-32
   102a4:	00112e23          	sw	ra,28(sp)
   102a8:	00312c23          	sw	gp,24(sp)
   102ac:	00812a23          	sw	s0,20(sp)
   102b0:	00200433          	add	s0,zero,sp
   102b4:	00a42823          	sw	a0,16(s0)
   102b8:	00a42623          	sw	a0,12(s0)
   102bc:	01042503          	lw	a0,16(s0)
   102c0:	e81ff0ef          	jal	10140 <list_getSize>
   102c4:	00100293          	li	t0,1
   102c8:	00554c63          	blt	a0,t0,102e0 <list_clear+0x40>
   102cc:	0040006f          	j	102d0 <list_clear+0x30>
   102d0:	01042503          	lw	a0,16(s0)
   102d4:	f4dff0ef          	jal	10220 <list_pop>
   102d8:	00a42423          	sw	a0,8(s0)
   102dc:	fe1ff06f          	j	102bc <list_clear+0x1c>
   102e0:	00800133          	add	sp,zero,s0
   102e4:	01412403          	lw	s0,20(sp)
   102e8:	01812183          	lw	gp,24(sp)
   102ec:	01c12083          	lw	ra,28(sp)
   102f0:	02010113          	addi	sp,sp,32
   102f4:	00008067          	ret
   102f8:	00000013          	nop
   102fc:	00000013          	nop

00010300 <towers_init>:
   10300:	fd010113          	addi	sp,sp,-48
   10304:	02112623          	sw	ra,44(sp)
   10308:	02312423          	sw	gp,40(sp)
   1030c:	02812223          	sw	s0,36(sp)
   10310:	00200433          	add	s0,zero,sp
   10314:	02a42023          	sw	a0,32(s0)
   10318:	00b42e23          	sw	a1,28(s0)
   1031c:	02042283          	lw	t0,32(s0)
   10320:	00b2a023          	sw	a1,0(t0)
   10324:	02042283          	lw	t0,32(s0)
   10328:	0002a223          	sw	zero,4(t0)
   1032c:	02042283          	lw	t0,32(s0)
   10330:	00828293          	addi	t0,t0,8
   10334:	00a42a23          	sw	a0,20(s0)
   10338:	00028513          	mv	a0,t0
   1033c:	00b42823          	sw	a1,16(s0)
   10340:	e31ff0ef          	jal	10170 <list_init>
   10344:	02042283          	lw	t0,32(s0)
   10348:	01028513          	addi	a0,t0,16
   1034c:	e25ff0ef          	jal	10170 <list_init>
   10350:	02042283          	lw	t0,32(s0)
   10354:	01828513          	addi	a0,t0,24
   10358:	e19ff0ef          	jal	10170 <list_init>
   1035c:	00042c23          	sw	zero,24(s0)
   10360:	01042283          	lw	t0,16(s0)
   10364:	01442503          	lw	a0,20(s0)
   10368:	00542623          	sw	t0,12(s0)
   1036c:	00a42423          	sw	a0,8(s0)
   10370:	01842283          	lw	t0,24(s0)
   10374:	01c42303          	lw	t1,28(s0)
   10378:	0262d863          	ble	t1,t0,103a8 <towers_init+0xa8>
   1037c:	0040006f          	j	10380 <towers_init+0x80>
   10380:	02042283          	lw	t0,32(s0)
   10384:	00828513          	addi	a0,t0,8
   10388:	01c42283          	lw	t0,28(s0)
   1038c:	01842303          	lw	t1,24(s0)
   10390:	406285b3          	sub	a1,t0,t1
   10394:	e0dff0ef          	jal	101a0 <list_push>
   10398:	01842283          	lw	t0,24(s0)
   1039c:	00128293          	addi	t0,t0,1
   103a0:	00542c23          	sw	t0,24(s0)
   103a4:	fcdff06f          	j	10370 <towers_init+0x70>
   103a8:	00800133          	add	sp,zero,s0
   103ac:	02412403          	lw	s0,36(sp)
   103b0:	02812183          	lw	gp,40(sp)
   103b4:	02c12083          	lw	ra,44(sp)
   103b8:	03010113          	addi	sp,sp,48
   103bc:	00008067          	ret

000103c0 <towers_clear>:
   103c0:	fe010113          	addi	sp,sp,-32
   103c4:	00112e23          	sw	ra,28(sp)
   103c8:	00312c23          	sw	gp,24(sp)
   103cc:	00812a23          	sw	s0,20(sp)
   103d0:	00200433          	add	s0,zero,sp
   103d4:	00a42823          	sw	a0,16(s0)
   103d8:	00850293          	addi	t0,a0,8
   103dc:	00a42623          	sw	a0,12(s0)
   103e0:	00028513          	mv	a0,t0
   103e4:	ebdff0ef          	jal	102a0 <list_clear>
   103e8:	01042283          	lw	t0,16(s0)
   103ec:	01028513          	addi	a0,t0,16
   103f0:	eb1ff0ef          	jal	102a0 <list_clear>
   103f4:	01042283          	lw	t0,16(s0)
   103f8:	01828513          	addi	a0,t0,24
   103fc:	ea5ff0ef          	jal	102a0 <list_clear>
   10400:	01042283          	lw	t0,16(s0)
   10404:	0002a583          	lw	a1,0(t0)
   10408:	00028513          	mv	a0,t0
   1040c:	ef5ff0ef          	jal	10300 <towers_init>
   10410:	00c42283          	lw	t0,12(s0)
   10414:	00542423          	sw	t0,8(s0)
   10418:	00800133          	add	sp,zero,s0
   1041c:	01412403          	lw	s0,20(sp)
   10420:	01812183          	lw	gp,24(sp)
   10424:	01c12083          	lw	ra,28(sp)
   10428:	02010113          	addi	sp,sp,32
   1042c:	00008067          	ret

00010430 <towers_print>:
   10430:	f9010113          	addi	sp,sp,-112
   10434:	06112623          	sw	ra,108(sp)
   10438:	06312423          	sw	gp,104(sp)
   1043c:	06812223          	sw	s0,100(sp)
   10440:	00200433          	add	s0,zero,sp
   10444:	06a42023          	sw	a0,96(s0)
   10448:	0001b2b7          	lui	t0,0x1b
   1044c:	24028293          	addi	t0,t0,576 # 1b240 <__clz_tab+0x100>
   10450:	04a42823          	sw	a0,80(s0)
   10454:	00028513          	mv	a0,t0
   10458:	74c000ef          	jal	10ba4 <printf>
   1045c:	04042c23          	sw	zero,88(s0)
   10460:	05042283          	lw	t0,80(s0)
   10464:	04a42623          	sw	a0,76(s0)
   10468:	04542423          	sw	t0,72(s0)
   1046c:	05842283          	lw	t0,88(s0)
   10470:	06042303          	lw	t1,96(s0)
   10474:	00032383          	lw	t2,0(t1)
   10478:	00830513          	addi	a0,t1,8
   1047c:	04542223          	sw	t0,68(s0)
   10480:	04742023          	sw	t2,64(s0)
   10484:	cbdff0ef          	jal	10140 <list_getSize>
   10488:	04042283          	lw	t0,64(s0)
   1048c:	40a282b3          	sub	t0,t0,a0
   10490:	04442303          	lw	t1,68(s0)
   10494:	02535463          	ble	t0,t1,104bc <towers_print+0x8c>
   10498:	0040006f          	j	1049c <towers_print+0x6c>
   1049c:	0001b2b7          	lui	t0,0x1b
   104a0:	24928513          	addi	a0,t0,585 # 1b249 <__clz_tab+0x109>
   104a4:	700000ef          	jal	10ba4 <printf>
   104a8:	02a42e23          	sw	a0,60(s0)
   104ac:	05842283          	lw	t0,88(s0)
   104b0:	00128293          	addi	t0,t0,1
   104b4:	04542c23          	sw	t0,88(s0)
   104b8:	fb5ff06f          	j	1046c <towers_print+0x3c>
   104bc:	06042283          	lw	t0,96(s0)
   104c0:	00c2a283          	lw	t0,12(t0)
   104c4:	04542e23          	sw	t0,92(s0)
   104c8:	05c42283          	lw	t0,92(s0)
   104cc:	02028863          	beqz	t0,104fc <towers_print+0xcc>
   104d0:	0040006f          	j	104d4 <towers_print+0xa4>
   104d4:	05c42283          	lw	t0,92(s0)
   104d8:	0002a583          	lw	a1,0(t0)
   104dc:	0001b2b7          	lui	t0,0x1b
   104e0:	24c28513          	addi	a0,t0,588 # 1b24c <__clz_tab+0x10c>
   104e4:	6c0000ef          	jal	10ba4 <printf>
   104e8:	02a42c23          	sw	a0,56(s0)
   104ec:	05c42283          	lw	t0,92(s0)
   104f0:	0042a283          	lw	t0,4(t0)
   104f4:	04542e23          	sw	t0,92(s0)
   104f8:	fd1ff06f          	j	104c8 <towers_print+0x98>
   104fc:	0001b2b7          	lui	t0,0x1b
   10500:	25028513          	addi	a0,t0,592 # 1b250 <__clz_tab+0x110>
   10504:	6a0000ef          	jal	10ba4 <printf>
   10508:	04042c23          	sw	zero,88(s0)
   1050c:	02a42a23          	sw	a0,52(s0)
   10510:	05842283          	lw	t0,88(s0)
   10514:	06042303          	lw	t1,96(s0)
   10518:	00032383          	lw	t2,0(t1)
   1051c:	01030513          	addi	a0,t1,16
   10520:	02542823          	sw	t0,48(s0)
   10524:	02742623          	sw	t2,44(s0)
   10528:	c19ff0ef          	jal	10140 <list_getSize>
   1052c:	02c42283          	lw	t0,44(s0)
   10530:	40a282b3          	sub	t0,t0,a0
   10534:	03042303          	lw	t1,48(s0)
   10538:	02535463          	ble	t0,t1,10560 <towers_print+0x130>
   1053c:	0040006f          	j	10540 <towers_print+0x110>
   10540:	0001b2b7          	lui	t0,0x1b
   10544:	24928513          	addi	a0,t0,585 # 1b249 <__clz_tab+0x109>
   10548:	65c000ef          	jal	10ba4 <printf>
   1054c:	02a42423          	sw	a0,40(s0)
   10550:	05842283          	lw	t0,88(s0)
   10554:	00128293          	addi	t0,t0,1
   10558:	04542c23          	sw	t0,88(s0)
   1055c:	fb5ff06f          	j	10510 <towers_print+0xe0>
   10560:	06042283          	lw	t0,96(s0)
   10564:	0142a283          	lw	t0,20(t0)
   10568:	04542e23          	sw	t0,92(s0)
   1056c:	05c42283          	lw	t0,92(s0)
   10570:	02028863          	beqz	t0,105a0 <towers_print+0x170>
   10574:	0040006f          	j	10578 <towers_print+0x148>
   10578:	05c42283          	lw	t0,92(s0)
   1057c:	0002a583          	lw	a1,0(t0)
   10580:	0001b2b7          	lui	t0,0x1b
   10584:	24c28513          	addi	a0,t0,588 # 1b24c <__clz_tab+0x10c>
   10588:	61c000ef          	jal	10ba4 <printf>
   1058c:	02a42223          	sw	a0,36(s0)
   10590:	05c42283          	lw	t0,92(s0)
   10594:	0042a283          	lw	t0,4(t0)
   10598:	04542e23          	sw	t0,92(s0)
   1059c:	fd1ff06f          	j	1056c <towers_print+0x13c>
   105a0:	0001b2b7          	lui	t0,0x1b
   105a4:	25928513          	addi	a0,t0,601 # 1b259 <__clz_tab+0x119>
   105a8:	5fc000ef          	jal	10ba4 <printf>
   105ac:	04042c23          	sw	zero,88(s0)
   105b0:	02a42023          	sw	a0,32(s0)
   105b4:	05842283          	lw	t0,88(s0)
   105b8:	06042303          	lw	t1,96(s0)
   105bc:	00032383          	lw	t2,0(t1)
   105c0:	01830513          	addi	a0,t1,24
   105c4:	00542e23          	sw	t0,28(s0)
   105c8:	00742c23          	sw	t2,24(s0)
   105cc:	b75ff0ef          	jal	10140 <list_getSize>
   105d0:	01842283          	lw	t0,24(s0)
   105d4:	40a282b3          	sub	t0,t0,a0
   105d8:	01c42303          	lw	t1,28(s0)
   105dc:	02535463          	ble	t0,t1,10604 <towers_print+0x1d4>
   105e0:	0040006f          	j	105e4 <towers_print+0x1b4>
   105e4:	0001b2b7          	lui	t0,0x1b
   105e8:	24928513          	addi	a0,t0,585 # 1b249 <__clz_tab+0x109>
   105ec:	5b8000ef          	jal	10ba4 <printf>
   105f0:	00a42a23          	sw	a0,20(s0)
   105f4:	05842283          	lw	t0,88(s0)
   105f8:	00128293          	addi	t0,t0,1
   105fc:	04542c23          	sw	t0,88(s0)
   10600:	fb5ff06f          	j	105b4 <towers_print+0x184>
   10604:	06042283          	lw	t0,96(s0)
   10608:	01c2a283          	lw	t0,28(t0)
   1060c:	04542e23          	sw	t0,92(s0)
   10610:	05c42283          	lw	t0,92(s0)
   10614:	02028863          	beqz	t0,10644 <towers_print+0x214>
   10618:	0040006f          	j	1061c <towers_print+0x1ec>
   1061c:	05c42283          	lw	t0,92(s0)
   10620:	0002a583          	lw	a1,0(t0)
   10624:	0001b2b7          	lui	t0,0x1b
   10628:	24c28513          	addi	a0,t0,588 # 1b24c <__clz_tab+0x10c>
   1062c:	578000ef          	jal	10ba4 <printf>
   10630:	00a42823          	sw	a0,16(s0)
   10634:	05c42283          	lw	t0,92(s0)
   10638:	0042a283          	lw	t0,4(t0)
   1063c:	04542e23          	sw	t0,92(s0)
   10640:	fd1ff06f          	j	10610 <towers_print+0x1e0>
   10644:	0001b2b7          	lui	t0,0x1b
   10648:	26228513          	addi	a0,t0,610 # 1b262 <__clz_tab+0x122>
   1064c:	558000ef          	jal	10ba4 <printf>
   10650:	00a42623          	sw	a0,12(s0)
   10654:	00800133          	add	sp,zero,s0
   10658:	06412403          	lw	s0,100(sp)
   1065c:	06812183          	lw	gp,104(sp)
   10660:	06c12083          	lw	ra,108(sp)
   10664:	07010113          	addi	sp,sp,112
   10668:	00008067          	ret
   1066c:	00000013          	nop

00010670 <towers_solve_h>:
   10670:	fc010113          	addi	sp,sp,-64
   10674:	02112e23          	sw	ra,60(sp)
   10678:	02312c23          	sw	gp,56(sp)
   1067c:	02812a23          	sw	s0,52(sp)
   10680:	00200433          	add	s0,zero,sp
   10684:	02a42823          	sw	a0,48(s0)
   10688:	02b42623          	sw	a1,44(s0)
   1068c:	02c42423          	sw	a2,40(s0)
   10690:	02d42223          	sw	a3,36(s0)
   10694:	02e42023          	sw	a4,32(s0)
   10698:	02c42283          	lw	t0,44(s0)
   1069c:	00100313          	li	t1,1
   106a0:	00a42c23          	sw	a0,24(s0)
   106a4:	00e42a23          	sw	a4,20(s0)
   106a8:	00d42823          	sw	a3,16(s0)
   106ac:	00c42623          	sw	a2,12(s0)
   106b0:	00b42423          	sw	a1,8(s0)
   106b4:	02629e63          	bne	t0,t1,106f0 <towers_solve_h+0x80>
   106b8:	0040006f          	j	106bc <towers_solve_h+0x4c>
   106bc:	02842503          	lw	a0,40(s0)
   106c0:	b61ff0ef          	jal	10220 <list_pop>
   106c4:	00a42e23          	sw	a0,28(s0)
   106c8:	02042283          	lw	t0,32(s0)
   106cc:	00a42223          	sw	a0,4(s0)
   106d0:	00028513          	mv	a0,t0
   106d4:	00442583          	lw	a1,4(s0)
   106d8:	ac9ff0ef          	jal	101a0 <list_push>
   106dc:	03042283          	lw	t0,48(s0)
   106e0:	0042a503          	lw	a0,4(t0)
   106e4:	00150513          	addi	a0,a0,1
   106e8:	00a2a223          	sw	a0,4(t0)
   106ec:	0600006f          	j	1074c <towers_solve_h+0xdc>
   106f0:	03042503          	lw	a0,48(s0)
   106f4:	02c42283          	lw	t0,44(s0)
   106f8:	00100593          	li	a1,1
   106fc:	02842603          	lw	a2,40(s0)
   10700:	02042683          	lw	a3,32(s0)
   10704:	02442703          	lw	a4,36(s0)
   10708:	fff28293          	addi	t0,t0,-1
   1070c:	00b42023          	sw	a1,0(s0)
   10710:	00028593          	mv	a1,t0
   10714:	f5dff0ef          	jal	10670 <towers_solve_h>
   10718:	03042503          	lw	a0,48(s0)
   1071c:	02842603          	lw	a2,40(s0)
   10720:	02442683          	lw	a3,36(s0)
   10724:	02042703          	lw	a4,32(s0)
   10728:	00042583          	lw	a1,0(s0)
   1072c:	f45ff0ef          	jal	10670 <towers_solve_h>
   10730:	03042503          	lw	a0,48(s0)
   10734:	02c42283          	lw	t0,44(s0)
   10738:	02442603          	lw	a2,36(s0)
   1073c:	02842683          	lw	a3,40(s0)
   10740:	02042703          	lw	a4,32(s0)
   10744:	fff28593          	addi	a1,t0,-1
   10748:	f29ff0ef          	jal	10670 <towers_solve_h>
   1074c:	00800133          	add	sp,zero,s0
   10750:	03412403          	lw	s0,52(sp)
   10754:	03812183          	lw	gp,56(sp)
   10758:	03c12083          	lw	ra,60(sp)
   1075c:	04010113          	addi	sp,sp,64
   10760:	00008067          	ret
   10764:	00000013          	nop
   10768:	00000013          	nop
   1076c:	00000013          	nop

00010770 <towers_solve>:
   10770:	fe010113          	addi	sp,sp,-32
   10774:	00112e23          	sw	ra,28(sp)
   10778:	00312c23          	sw	gp,24(sp)
   1077c:	00812a23          	sw	s0,20(sp)
   10780:	00200433          	add	s0,zero,sp
   10784:	00a42823          	sw	a0,16(s0)
   10788:	00052583          	lw	a1,0(a0)
   1078c:	00850613          	addi	a2,a0,8
   10790:	01050693          	addi	a3,a0,16
   10794:	01850713          	addi	a4,a0,24
   10798:	00a42623          	sw	a0,12(s0)
   1079c:	ed5ff0ef          	jal	10670 <towers_solve_h>
   107a0:	00c42503          	lw	a0,12(s0)
   107a4:	00a42423          	sw	a0,8(s0)
   107a8:	00800133          	add	sp,zero,s0
   107ac:	01412403          	lw	s0,20(sp)
   107b0:	01812183          	lw	gp,24(sp)
   107b4:	01c12083          	lw	ra,28(sp)
   107b8:	02010113          	addi	sp,sp,32
   107bc:	00008067          	ret

000107c0 <towers_verify>:
   107c0:	fd010113          	addi	sp,sp,-48
   107c4:	02112623          	sw	ra,44(sp)
   107c8:	02312423          	sw	gp,40(sp)
   107cc:	02812223          	sw	s0,36(sp)
   107d0:	00200433          	add	s0,zero,sp
   107d4:	00a42e23          	sw	a0,28(s0)
   107d8:	00042a23          	sw	zero,20(s0)
   107dc:	01c42283          	lw	t0,28(s0)
   107e0:	00828293          	addi	t0,t0,8
   107e4:	00a42823          	sw	a0,16(s0)
   107e8:	00028513          	mv	a0,t0
   107ec:	955ff0ef          	jal	10140 <list_getSize>
   107f0:	01042283          	lw	t0,16(s0)
   107f4:	00542623          	sw	t0,12(s0)
   107f8:	00050a63          	beqz	a0,1080c <towers_verify+0x4c>
   107fc:	0040006f          	j	10800 <towers_verify+0x40>
   10800:	00200293          	li	t0,2
   10804:	02542023          	sw	t0,32(s0)
   10808:	0cc0006f          	j	108d4 <towers_verify+0x114>
   1080c:	01c42283          	lw	t0,28(s0)
   10810:	01028513          	addi	a0,t0,16
   10814:	92dff0ef          	jal	10140 <list_getSize>
   10818:	00050a63          	beqz	a0,1082c <towers_verify+0x6c>
   1081c:	0040006f          	j	10820 <towers_verify+0x60>
   10820:	00300293          	li	t0,3
   10824:	02542023          	sw	t0,32(s0)
   10828:	0ac0006f          	j	108d4 <towers_verify+0x114>
   1082c:	01c42283          	lw	t0,28(s0)
   10830:	01828513          	addi	a0,t0,24
   10834:	90dff0ef          	jal	10140 <list_getSize>
   10838:	01c42283          	lw	t0,28(s0)
   1083c:	0002a283          	lw	t0,0(t0)
   10840:	00550a63          	beq	a0,t0,10854 <towers_verify+0x94>
   10844:	0040006f          	j	10848 <towers_verify+0x88>
   10848:	00400293          	li	t0,4
   1084c:	02542023          	sw	t0,32(s0)
   10850:	0840006f          	j	108d4 <towers_verify+0x114>
   10854:	01c42283          	lw	t0,28(s0)
   10858:	01c2a283          	lw	t0,28(t0)
   1085c:	00542c23          	sw	t0,24(s0)
   10860:	01842283          	lw	t0,24(s0)
   10864:	04028063          	beqz	t0,108a4 <towers_verify+0xe4>
   10868:	0040006f          	j	1086c <towers_verify+0xac>
   1086c:	01442283          	lw	t0,20(s0)
   10870:	00128293          	addi	t0,t0,1
   10874:	00542a23          	sw	t0,20(s0)
   10878:	01842303          	lw	t1,24(s0)
   1087c:	00032303          	lw	t1,0(t1)
   10880:	00530a63          	beq	t1,t0,10894 <towers_verify+0xd4>
   10884:	0040006f          	j	10888 <towers_verify+0xc8>
   10888:	00500293          	li	t0,5
   1088c:	02542023          	sw	t0,32(s0)
   10890:	0440006f          	j	108d4 <towers_verify+0x114>
   10894:	01842283          	lw	t0,24(s0)
   10898:	0042a283          	lw	t0,4(t0)
   1089c:	00542c23          	sw	t0,24(s0)
   108a0:	fc1ff06f          	j	10860 <towers_verify+0xa0>
   108a4:	01c42283          	lw	t0,28(s0)
   108a8:	0042a303          	lw	t1,4(t0)
   108ac:	0002a283          	lw	t0,0(t0)
   108b0:	00100393          	li	t2,1
   108b4:	005392b3          	sll	t0,t2,t0
   108b8:	fff28293          	addi	t0,t0,-1
   108bc:	00530a63          	beq	t1,t0,108d0 <towers_verify+0x110>
   108c0:	0040006f          	j	108c4 <towers_verify+0x104>
   108c4:	00600293          	li	t0,6
   108c8:	02542023          	sw	t0,32(s0)
   108cc:	0080006f          	j	108d4 <towers_verify+0x114>
   108d0:	02042023          	sw	zero,32(s0)
   108d4:	02042503          	lw	a0,32(s0)
   108d8:	00800133          	add	sp,zero,s0
   108dc:	02412403          	lw	s0,36(sp)
   108e0:	02812183          	lw	gp,40(sp)
   108e4:	02c12083          	lw	ra,44(sp)
   108e8:	03010113          	addi	sp,sp,48
   108ec:	00008067          	ret

000108f0 <main>:
   108f0:	fa010113          	addi	sp,sp,-96
   108f4:	04112e23          	sw	ra,92(sp)
   108f8:	04312c23          	sw	gp,88(sp)
   108fc:	04812a23          	sw	s0,84(sp)
   10900:	00200433          	add	s0,zero,sp
   10904:	04042823          	sw	zero,80(s0)
   10908:	04a42623          	sw	a0,76(s0)
   1090c:	04b42423          	sw	a1,72(s0)
   10910:	8f018293          	addi	t0,gp,-1808 # 1ce70 <g_nodeFreeList>
   10914:	02a42023          	sw	a0,32(s0)
   10918:	00028513          	mv	a0,t0
   1091c:	00b42e23          	sw	a1,28(s0)
   10920:	00542c23          	sw	t0,24(s0)
   10924:	84dff0ef          	jal	10170 <list_init>
   10928:	8f818293          	addi	t0,gp,-1800 # 1ce78 <g_nodePool>
   1092c:	01842503          	lw	a0,24(s0)
   10930:	00552223          	sw	t0,4(a0)
   10934:	00700593          	li	a1,7
   10938:	00b52023          	sw	a1,0(a0)
   1093c:	0202aa23          	sw	zero,52(t0)
   10940:	06300593          	li	a1,99
   10944:	02b2a823          	sw	a1,48(t0)
   10948:	02042223          	sw	zero,36(s0)
   1094c:	01c42283          	lw	t0,28(s0)
   10950:	02042583          	lw	a1,32(s0)
   10954:	00542a23          	sw	t0,20(s0)
   10958:	00b42823          	sw	a1,16(s0)
   1095c:	02442283          	lw	t0,36(s0)
   10960:	00500313          	li	t1,5
   10964:	04534063          	blt	t1,t0,109a4 <main+0xb4>
   10968:	0040006f          	j	1096c <main+0x7c>
   1096c:	02442283          	lw	t0,36(s0)
   10970:	00329293          	slli	t0,t0,0x3
   10974:	8f818313          	addi	t1,gp,-1800 # 1ce78 <g_nodePool>
   10978:	005302b3          	add	t0,t1,t0
   1097c:	00828393          	addi	t2,t0,8
   10980:	0072a223          	sw	t2,4(t0)
   10984:	02442283          	lw	t0,36(s0)
   10988:	00329393          	slli	t2,t0,0x3
   1098c:	00730333          	add	t1,t1,t2
   10990:	00532023          	sw	t0,0(t1)
   10994:	02442283          	lw	t0,36(s0)
   10998:	00128293          	addi	t0,t0,1
   1099c:	02542223          	sw	t0,36(s0)
   109a0:	fbdff06f          	j	1095c <main+0x6c>
   109a4:	02840293          	addi	t0,s0,40
   109a8:	00700593          	li	a1,7
   109ac:	00028513          	mv	a0,t0
   109b0:	00542623          	sw	t0,12(s0)
   109b4:	94dff0ef          	jal	10300 <towers_init>
   109b8:	00c42503          	lw	a0,12(s0)
   109bc:	a05ff0ef          	jal	103c0 <towers_clear>
   109c0:	00100513          	li	a0,1
   109c4:	03c000ef          	jal	10a00 <setStats>
   109c8:	00c42503          	lw	a0,12(s0)
   109cc:	da5ff0ef          	jal	10770 <towers_solve>
   109d0:	00000513          	li	a0,0
   109d4:	02c000ef          	jal	10a00 <setStats>
   109d8:	00c42503          	lw	a0,12(s0)
   109dc:	de5ff0ef          	jal	107c0 <towers_verify>
   109e0:	00800133          	add	sp,zero,s0
   109e4:	05412403          	lw	s0,84(sp)
   109e8:	05812183          	lw	gp,88(sp)
   109ec:	05c12083          	lw	ra,92(sp)
   109f0:	06010113          	addi	sp,sp,96
   109f4:	00008067          	ret
   109f8:	00000013          	nop
   109fc:	00000013          	nop

00010a00 <setStats>:
   10a00:	ff410113          	addi	sp,sp,-12
   10a04:	00812423          	sw	s0,8(sp)
   10a08:	00200433          	add	s0,zero,sp
   10a0c:	00a42223          	sw	a0,4(s0)
   10a10:	00a42023          	sw	a0,0(s0)
   10a14:	00800133          	add	sp,zero,s0
   10a18:	00812403          	lw	s0,8(sp)
   10a1c:	00c10113          	addi	sp,sp,12
   10a20:	00008067          	ret

00010a24 <atexit>:
   10a24:	00050593          	mv	a1,a0
   10a28:	00000613          	li	a2,0
   10a2c:	00000513          	li	a0,0
   10a30:	00000693          	li	a3,0
   10a34:	45d0106f          	j	12690 <__register_exitproc>

00010a38 <exit>:
   10a38:	ff010113          	addi	sp,sp,-16
   10a3c:	00000593          	li	a1,0
   10a40:	00812423          	sw	s0,8(sp)
   10a44:	00112623          	sw	ra,12(sp)
   10a48:	00050413          	mv	s0,a0
   10a4c:	545010ef          	jal	12790 <__call_exitprocs>
   10a50:	8041a503          	lw	a0,-2044(gp) # 1cd84 <_global_impure_ptr>
   10a54:	03c52783          	lw	a5,60(a0)
   10a58:	00078463          	beqz	a5,10a60 <exit+0x28>
   10a5c:	000780e7          	jalr	a5
   10a60:	00040513          	mv	a0,s0
   10a64:	324080ef          	jal	18d88 <_exit>

00010a68 <__libc_init_array>:
   10a68:	ff010113          	addi	sp,sp,-16
   10a6c:	00812423          	sw	s0,8(sp)
   10a70:	0001b7b7          	lui	a5,0x1b
   10a74:	0001b437          	lui	s0,0x1b
   10a78:	01212023          	sw	s2,0(sp)
   10a7c:	2c878793          	addi	a5,a5,712 # 1b2c8 <_etext>
   10a80:	2c840913          	addi	s2,s0,712 # 1b2c8 <_etext>
   10a84:	41278933          	sub	s2,a5,s2
   10a88:	40295913          	srai	s2,s2,0x2
   10a8c:	00912223          	sw	s1,4(sp)
   10a90:	00112623          	sw	ra,12(sp)
   10a94:	2c840413          	addi	s0,s0,712
   10a98:	00000493          	li	s1,0
   10a9c:	00090c63          	beqz	s2,10ab4 <__libc_init_array+0x4c>
   10aa0:	00042783          	lw	a5,0(s0)
   10aa4:	00148493          	addi	s1,s1,1
   10aa8:	00440413          	addi	s0,s0,4
   10aac:	000780e7          	jalr	a5
   10ab0:	fe9918e3          	bne	s2,s1,10aa0 <__libc_init_array+0x38>
   10ab4:	0001b437          	lui	s0,0x1b
   10ab8:	d90ff0ef          	jal	10048 <_fini>
   10abc:	0001b7b7          	lui	a5,0x1b
   10ac0:	2c840913          	addi	s2,s0,712 # 1b2c8 <_etext>
   10ac4:	2cc78793          	addi	a5,a5,716 # 1b2cc <__init_array_end>
   10ac8:	41278933          	sub	s2,a5,s2
   10acc:	40295913          	srai	s2,s2,0x2
   10ad0:	2c840413          	addi	s0,s0,712
   10ad4:	00000493          	li	s1,0
   10ad8:	00090c63          	beqz	s2,10af0 <__libc_init_array+0x88>
   10adc:	00042783          	lw	a5,0(s0)
   10ae0:	00148493          	addi	s1,s1,1
   10ae4:	00440413          	addi	s0,s0,4
   10ae8:	000780e7          	jalr	a5
   10aec:	fe9918e3          	bne	s2,s1,10adc <__libc_init_array+0x74>
   10af0:	00c12083          	lw	ra,12(sp)
   10af4:	00812403          	lw	s0,8(sp)
   10af8:	00412483          	lw	s1,4(sp)
   10afc:	00012903          	lw	s2,0(sp)
   10b00:	01010113          	addi	sp,sp,16
   10b04:	00008067          	ret

00010b08 <__libc_fini_array>:
   10b08:	ff010113          	addi	sp,sp,-16
   10b0c:	00812423          	sw	s0,8(sp)
   10b10:	0001b7b7          	lui	a5,0x1b
   10b14:	0001b437          	lui	s0,0x1b
   10b18:	2cc40413          	addi	s0,s0,716 # 1b2cc <__init_array_end>
   10b1c:	2d078793          	addi	a5,a5,720 # 1b2d0 <__fini_array_end>
   10b20:	408787b3          	sub	a5,a5,s0
   10b24:	00912223          	sw	s1,4(sp)
   10b28:	4027d493          	srai	s1,a5,0x2
   10b2c:	00112623          	sw	ra,12(sp)
   10b30:	00878433          	add	s0,a5,s0
   10b34:	00048c63          	beqz	s1,10b4c <__libc_fini_array+0x44>
   10b38:	ffc42783          	lw	a5,-4(s0)
   10b3c:	fff48493          	addi	s1,s1,-1
   10b40:	ffc40413          	addi	s0,s0,-4
   10b44:	000780e7          	jalr	a5
   10b48:	fe0498e3          	bnez	s1,10b38 <__libc_fini_array+0x30>
   10b4c:	00c12083          	lw	ra,12(sp)
   10b50:	00812403          	lw	s0,8(sp)
   10b54:	00412483          	lw	s1,4(sp)
   10b58:	01010113          	addi	sp,sp,16
   10b5c:	cecff06f          	j	10048 <_fini>

00010b60 <_printf_r>:
   10b60:	fc010113          	addi	sp,sp,-64
   10b64:	02c12423          	sw	a2,40(sp)
   10b68:	02d12623          	sw	a3,44(sp)
   10b6c:	02f12a23          	sw	a5,52(sp)
   10b70:	02e12823          	sw	a4,48(sp)
   10b74:	03012c23          	sw	a6,56(sp)
   10b78:	03112e23          	sw	a7,60(sp)
   10b7c:	00058613          	mv	a2,a1
   10b80:	00852583          	lw	a1,8(a0)
   10b84:	02810793          	addi	a5,sp,40
   10b88:	00078693          	mv	a3,a5
   10b8c:	00112e23          	sw	ra,28(sp)
   10b90:	00f12623          	sw	a5,12(sp)
   10b94:	060000ef          	jal	10bf4 <_vfprintf_r>
   10b98:	01c12083          	lw	ra,28(sp)
   10b9c:	04010113          	addi	sp,sp,64
   10ba0:	00008067          	ret

00010ba4 <printf>:
   10ba4:	8081a283          	lw	t0,-2040(gp) # 1cd88 <_impure_ptr>
   10ba8:	fc010113          	addi	sp,sp,-64
   10bac:	02c12423          	sw	a2,40(sp)
   10bb0:	02d12623          	sw	a3,44(sp)
   10bb4:	02f12a23          	sw	a5,52(sp)
   10bb8:	02b12223          	sw	a1,36(sp)
   10bbc:	02e12823          	sw	a4,48(sp)
   10bc0:	03012c23          	sw	a6,56(sp)
   10bc4:	03112e23          	sw	a7,60(sp)
   10bc8:	0082a583          	lw	a1,8(t0)
   10bcc:	02410793          	addi	a5,sp,36
   10bd0:	00050613          	mv	a2,a0
   10bd4:	00078693          	mv	a3,a5
   10bd8:	00028513          	mv	a0,t0
   10bdc:	00112e23          	sw	ra,28(sp)
   10be0:	00f12623          	sw	a5,12(sp)
   10be4:	010000ef          	jal	10bf4 <_vfprintf_r>
   10be8:	01c12083          	lw	ra,28(sp)
   10bec:	04010113          	addi	sp,sp,64
   10bf0:	00008067          	ret

00010bf4 <_vfprintf_r>:
   10bf4:	ab010113          	addi	sp,sp,-1360
   10bf8:	54112623          	sw	ra,1356(sp)
   10bfc:	55212023          	sw	s2,1344(sp)
   10c00:	53512a23          	sw	s5,1332(sp)
   10c04:	53612823          	sw	s6,1328(sp)
   10c08:	00058913          	mv	s2,a1
   10c0c:	00060b13          	mv	s6,a2
   10c10:	02d12623          	sw	a3,44(sp)
   10c14:	54812423          	sw	s0,1352(sp)
   10c18:	54912223          	sw	s1,1348(sp)
   10c1c:	53312e23          	sw	s3,1340(sp)
   10c20:	53412c23          	sw	s4,1336(sp)
   10c24:	53712623          	sw	s7,1324(sp)
   10c28:	53812423          	sw	s8,1320(sp)
   10c2c:	53912223          	sw	s9,1316(sp)
   10c30:	53a12023          	sw	s10,1312(sp)
   10c34:	51b12e23          	sw	s11,1308(sp)
   10c38:	50813427          	fsd	fs0,1288(sp)
   10c3c:	50913027          	fsd	fs1,1280(sp)
   10c40:	00050a93          	mv	s5,a0
   10c44:	3bd030ef          	jal	14800 <_localeconv_r>
   10c48:	00052503          	lw	a0,0(a0)
   10c4c:	04a12223          	sw	a0,68(sp)
   10c50:	211050ef          	jal	16660 <strlen>
   10c54:	04a12823          	sw	a0,80(sp)
   10c58:	000a8663          	beqz	s5,10c64 <_vfprintf_r+0x70>
   10c5c:	038aa783          	lw	a5,56(s5)
   10c60:	6e078663          	beqz	a5,1134c <_vfprintf_r+0x758>
   10c64:	00c91703          	lh	a4,12(s2)
   10c68:	01071793          	slli	a5,a4,0x10
   10c6c:	0107d793          	srli	a5,a5,0x10
   10c70:	01279293          	slli	t0,a5,0x12
   10c74:	0202c663          	bltz	t0,10ca0 <_vfprintf_r+0xac>
   10c78:	06492683          	lw	a3,100(s2)
   10c7c:	000027b7          	lui	a5,0x2
   10c80:	00f76733          	or	a4,a4,a5
   10c84:	ffffe7b7          	lui	a5,0xffffe
   10c88:	fff78793          	addi	a5,a5,-1 # ffffdfff <_gp+0xfffe0a7f>
   10c8c:	00f6f7b3          	and	a5,a3,a5
   10c90:	06f92223          	sw	a5,100(s2)
   10c94:	01071793          	slli	a5,a4,0x10
   10c98:	00e91623          	sh	a4,12(s2)
   10c9c:	0107d793          	srli	a5,a5,0x10
   10ca0:	0087f693          	andi	a3,a5,8
   10ca4:	54068c63          	beqz	a3,111fc <_vfprintf_r+0x608>
   10ca8:	01092683          	lw	a3,16(s2)
   10cac:	54068863          	beqz	a3,111fc <_vfprintf_r+0x608>
   10cb0:	01a7f793          	andi	a5,a5,26
   10cb4:	00a00693          	li	a3,10
   10cb8:	56d78663          	beq	a5,a3,11224 <_vfprintf_r+0x630>
   10cbc:	0bf10693          	addi	a3,sp,191
   10cc0:	00d12c23          	sw	a3,24(sp)
   10cc4:	01812583          	lw	a1,24(sp)
   10cc8:	0c010293          	addi	t0,sp,192
   10ccc:	10010b93          	addi	s7,sp,256
   10cd0:	00512e23          	sw	t0,28(sp)
   10cd4:	0001b7b7          	lui	a5,0x1b
   10cd8:	40b282b3          	sub	t0,t0,a1
   10cdc:	d2000453          	fcvt.d.w	fs0,zero
   10ce0:	02012c23          	sw	zero,56(sp)
   10ce4:	02012e23          	sw	zero,60(sp)
   10ce8:	09712623          	sw	s7,140(sp)
   10cec:	08012a23          	sw	zero,148(sp)
   10cf0:	08012823          	sw	zero,144(sp)
   10cf4:	04012423          	sw	zero,72(sp)
   10cf8:	04012c23          	sw	zero,88(sp)
   10cfc:	04012a23          	sw	zero,84(sp)
   10d00:	02012823          	sw	zero,48(sp)
   10d04:	000b8693          	mv	a3,s7
   10d08:	e0c78c13          	addi	s8,a5,-500 # 1ae0c <blanks.3944>
   10d0c:	04512e23          	sw	t0,92(sp)
   10d10:	000b4783          	lbu	a5,0(s6)
   10d14:	4a078463          	beqz	a5,111bc <_vfprintf_r+0x5c8>
   10d18:	02500713          	li	a4,37
   10d1c:	000b0413          	mv	s0,s6
   10d20:	00e79663          	bne	a5,a4,10d2c <_vfprintf_r+0x138>
   10d24:	0540006f          	j	10d78 <_vfprintf_r+0x184>
   10d28:	00e78863          	beq	a5,a4,10d38 <_vfprintf_r+0x144>
   10d2c:	00140413          	addi	s0,s0,1
   10d30:	00044783          	lbu	a5,0(s0)
   10d34:	fe079ae3          	bnez	a5,10d28 <_vfprintf_r+0x134>
   10d38:	416404b3          	sub	s1,s0,s6
   10d3c:	02048e63          	beqz	s1,10d78 <_vfprintf_r+0x184>
   10d40:	09412703          	lw	a4,148(sp)
   10d44:	09012783          	lw	a5,144(sp)
   10d48:	0166a023          	sw	s6,0(a3)
   10d4c:	00970733          	add	a4,a4,s1
   10d50:	00178793          	addi	a5,a5,1
   10d54:	08e12a23          	sw	a4,148(sp)
   10d58:	00700713          	li	a4,7
   10d5c:	0096a223          	sw	s1,4(a3)
   10d60:	08f12823          	sw	a5,144(sp)
   10d64:	00868693          	addi	a3,a3,8
   10d68:	58f74e63          	blt	a4,a5,11304 <_vfprintf_r+0x710>
   10d6c:	03012283          	lw	t0,48(sp)
   10d70:	009282b3          	add	t0,t0,s1
   10d74:	02512823          	sw	t0,48(sp)
   10d78:	00044783          	lbu	a5,0(s0)
   10d7c:	5a078263          	beqz	a5,11320 <_vfprintf_r+0x72c>
   10d80:	00140413          	addi	s0,s0,1
   10d84:	060107a3          	sb	zero,111(sp)
   10d88:	00000513          	li	a0,0
   10d8c:	fff00d93          	li	s11,-1
   10d90:	02012023          	sw	zero,32(sp)
   10d94:	00000a13          	li	s4,0
   10d98:	05800613          	li	a2,88
   10d9c:	00900593          	li	a1,9
   10da0:	02a00813          	li	a6,42
   10da4:	00044c83          	lbu	s9,0(s0)
   10da8:	00140b13          	addi	s6,s0,1
   10dac:	fe0c8793          	addi	a5,s9,-32
   10db0:	10f660e3          	bltu	a2,a5,116b0 <_vfprintf_r+0xabc>
   10db4:	0001b737          	lui	a4,0x1b
   10db8:	00279793          	slli	a5,a5,0x2
   10dbc:	ca870713          	addi	a4,a4,-856 # 1aca8 <__errno+0x8>
   10dc0:	00e787b3          	add	a5,a5,a4
   10dc4:	0007a783          	lw	a5,0(a5)
   10dc8:	00078067          	jr	a5
   10dcc:	010a6a13          	ori	s4,s4,16
   10dd0:	000b0413          	mv	s0,s6
   10dd4:	fd1ff06f          	j	10da4 <_vfprintf_r+0x1b0>
   10dd8:	010a6a13          	ori	s4,s4,16
   10ddc:	01ba1593          	slli	a1,s4,0x1b
   10de0:	02c12783          	lw	a5,44(sp)
   10de4:	5805c663          	bltz	a1,11370 <_vfprintf_r+0x77c>
   10de8:	02c12283          	lw	t0,44(sp)
   10dec:	019a1593          	slli	a1,s4,0x19
   10df0:	00428293          	addi	t0,t0,4
   10df4:	02512623          	sw	t0,44(sp)
   10df8:	0005c463          	bltz	a1,10e00 <_vfprintf_r+0x20c>
   10dfc:	06c0106f          	j	11e68 <_vfprintf_r+0x1274>
   10e00:	0007d703          	lhu	a4,0(a5)
   10e04:	00000793          	li	a5,0
   10e08:	0340006f          	j	10e3c <_vfprintf_r+0x248>
   10e0c:	010a6a13          	ori	s4,s4,16
   10e10:	01ba1893          	slli	a7,s4,0x1b
   10e14:	02c12783          	lw	a5,44(sp)
   10e18:	5408c063          	bltz	a7,11358 <_vfprintf_r+0x764>
   10e1c:	02c12283          	lw	t0,44(sp)
   10e20:	019a1593          	slli	a1,s4,0x19
   10e24:	00428293          	addi	t0,t0,4
   10e28:	02512623          	sw	t0,44(sp)
   10e2c:	0005c463          	bltz	a1,10e34 <_vfprintf_r+0x240>
   10e30:	02c0106f          	j	11e5c <_vfprintf_r+0x1268>
   10e34:	0007d703          	lhu	a4,0(a5)
   10e38:	00100793          	li	a5,1
   10e3c:	060107a3          	sb	zero,111(sp)
   10e40:	05b12023          	sw	s11,64(sp)
   10e44:	00000513          	li	a0,0
   10e48:	000dc463          	bltz	s11,10e50 <_vfprintf_r+0x25c>
   10e4c:	f7fa7a13          	andi	s4,s4,-129
   10e50:	1e0714e3          	bnez	a4,11838 <_vfprintf_r+0xc44>
   10e54:	440d86e3          	beqz	s11,11aa0 <_vfprintf_r+0xeac>
   10e58:	00100613          	li	a2,1
   10e5c:	64c786e3          	beq	a5,a2,11ca8 <_vfprintf_r+0x10b4>
   10e60:	00200613          	li	a2,2
   10e64:	48c798e3          	bne	a5,a2,11af4 <_vfprintf_r+0xf00>
   10e68:	05812603          	lw	a2,88(sp)
   10e6c:	0c010413          	addi	s0,sp,192
   10e70:	00f77793          	andi	a5,a4,15
   10e74:	00f607b3          	add	a5,a2,a5
   10e78:	0007c783          	lbu	a5,0(a5)
   10e7c:	fff40413          	addi	s0,s0,-1
   10e80:	00475713          	srli	a4,a4,0x4
   10e84:	00f40023          	sb	a5,0(s0)
   10e88:	fe0714e3          	bnez	a4,10e70 <_vfprintf_r+0x27c>
   10e8c:	01c12703          	lw	a4,28(sp)
   10e90:	40870733          	sub	a4,a4,s0
   10e94:	02e12423          	sw	a4,40(sp)
   10e98:	02812983          	lw	s3,40(sp)
   10e9c:	01b9d463          	ble	s11,s3,10ea4 <_vfprintf_r+0x2b0>
   10ea0:	000d8993          	mv	s3,s11
   10ea4:	03312223          	sw	s3,36(sp)
   10ea8:	00050863          	beqz	a0,10eb8 <_vfprintf_r+0x2c4>
   10eac:	02412783          	lw	a5,36(sp)
   10eb0:	00178793          	addi	a5,a5,1
   10eb4:	02f12223          	sw	a5,36(sp)
   10eb8:	002a7d93          	andi	s11,s4,2
   10ebc:	000d8863          	beqz	s11,10ecc <_vfprintf_r+0x2d8>
   10ec0:	02412883          	lw	a7,36(sp)
   10ec4:	00288893          	addi	a7,a7,2
   10ec8:	03112223          	sw	a7,36(sp)
   10ecc:	084a7293          	andi	t0,s4,132
   10ed0:	02512a23          	sw	t0,52(sp)
   10ed4:	00029ee3          	bnez	t0,116f0 <_vfprintf_r+0xafc>
   10ed8:	02012283          	lw	t0,32(sp)
   10edc:	02412703          	lw	a4,36(sp)
   10ee0:	40e284b3          	sub	s1,t0,a4
   10ee4:	009056e3          	blez	s1,116f0 <_vfprintf_r+0xafc>
   10ee8:	01000893          	li	a7,16
   10eec:	09412703          	lw	a4,148(sp)
   10ef0:	09012783          	lw	a5,144(sp)
   10ef4:	05812623          	sw	s8,76(sp)
   10ef8:	00088d13          	mv	s10,a7
   10efc:	00700993          	li	s3,7
   10f00:	0098c863          	blt	a7,s1,10f10 <_vfprintf_r+0x31c>
   10f04:	0540006f          	j	10f58 <_vfprintf_r+0x364>
   10f08:	ff048493          	addi	s1,s1,-16
   10f0c:	049d5663          	ble	s1,s10,10f58 <_vfprintf_r+0x364>
   10f10:	01070713          	addi	a4,a4,16
   10f14:	00178793          	addi	a5,a5,1
   10f18:	0186a023          	sw	s8,0(a3)
   10f1c:	01a6a223          	sw	s10,4(a3)
   10f20:	08e12a23          	sw	a4,148(sp)
   10f24:	08f12823          	sw	a5,144(sp)
   10f28:	00868693          	addi	a3,a3,8
   10f2c:	fcf9dee3          	ble	a5,s3,10f08 <_vfprintf_r+0x314>
   10f30:	000a8513          	mv	a0,s5
   10f34:	00090593          	mv	a1,s2
   10f38:	08c10613          	addi	a2,sp,140
   10f3c:	09d050ef          	jal	167d8 <__sprint_r>
   10f40:	3e051c63          	bnez	a0,11338 <_vfprintf_r+0x744>
   10f44:	ff048493          	addi	s1,s1,-16
   10f48:	09412703          	lw	a4,148(sp)
   10f4c:	09012783          	lw	a5,144(sp)
   10f50:	000b8693          	mv	a3,s7
   10f54:	fa9d4ee3          	blt	s10,s1,10f10 <_vfprintf_r+0x31c>
   10f58:	04c12883          	lw	a7,76(sp)
   10f5c:	00e48733          	add	a4,s1,a4
   10f60:	00178793          	addi	a5,a5,1
   10f64:	00700613          	li	a2,7
   10f68:	0116a023          	sw	a7,0(a3)
   10f6c:	0096a223          	sw	s1,4(a3)
   10f70:	08e12a23          	sw	a4,148(sp)
   10f74:	08f12823          	sw	a5,144(sp)
   10f78:	00868693          	addi	a3,a3,8
   10f7c:	76f65e63          	ble	a5,a2,116f8 <_vfprintf_r+0xb04>
   10f80:	000a8513          	mv	a0,s5
   10f84:	00090593          	mv	a1,s2
   10f88:	08c10613          	addi	a2,sp,140
   10f8c:	04d050ef          	jal	167d8 <__sprint_r>
   10f90:	3a051463          	bnez	a0,11338 <_vfprintf_r+0x744>
   10f94:	06f14603          	lbu	a2,111(sp)
   10f98:	09412703          	lw	a4,148(sp)
   10f9c:	09012783          	lw	a5,144(sp)
   10fa0:	000b8693          	mv	a3,s7
   10fa4:	74061e63          	bnez	a2,11700 <_vfprintf_r+0xb0c>
   10fa8:	020d8863          	beqz	s11,10fd8 <_vfprintf_r+0x3e4>
   10fac:	07010613          	addi	a2,sp,112
   10fb0:	00c6a023          	sw	a2,0(a3)
   10fb4:	00200613          	li	a2,2
   10fb8:	00c6a223          	sw	a2,4(a3)
   10fbc:	00270713          	addi	a4,a4,2
   10fc0:	00178793          	addi	a5,a5,1
   10fc4:	00700613          	li	a2,7
   10fc8:	08e12a23          	sw	a4,148(sp)
   10fcc:	08f12823          	sw	a5,144(sp)
   10fd0:	00868693          	addi	a3,a3,8
   10fd4:	2ef648e3          	blt	a2,a5,11ac4 <_vfprintf_r+0xed0>
   10fd8:	03412283          	lw	t0,52(sp)
   10fdc:	08000613          	li	a2,128
   10fe0:	1ac282e3          	beq	t0,a2,11984 <_vfprintf_r+0xd90>
   10fe4:	04012283          	lw	t0,64(sp)
   10fe8:	02812883          	lw	a7,40(sp)
   10fec:	41128d33          	sub	s10,t0,a7
   10ff0:	0ba05863          	blez	s10,110a0 <_vfprintf_r+0x4ac>
   10ff4:	0001b8b7          	lui	a7,0x1b
   10ff8:	01000d93          	li	s11,16
   10ffc:	e1c88993          	addi	s3,a7,-484 # 1ae1c <zeroes.3945>
   11000:	00700493          	li	s1,7
   11004:	01adc863          	blt	s11,s10,11014 <_vfprintf_r+0x420>
   11008:	0540006f          	j	1105c <_vfprintf_r+0x468>
   1100c:	ff0d0d13          	addi	s10,s10,-16
   11010:	05add663          	ble	s10,s11,1105c <_vfprintf_r+0x468>
   11014:	01070713          	addi	a4,a4,16
   11018:	00178793          	addi	a5,a5,1
   1101c:	0136a023          	sw	s3,0(a3)
   11020:	01b6a223          	sw	s11,4(a3)
   11024:	08e12a23          	sw	a4,148(sp)
   11028:	08f12823          	sw	a5,144(sp)
   1102c:	00868693          	addi	a3,a3,8
   11030:	fcf4dee3          	ble	a5,s1,1100c <_vfprintf_r+0x418>
   11034:	000a8513          	mv	a0,s5
   11038:	00090593          	mv	a1,s2
   1103c:	08c10613          	addi	a2,sp,140
   11040:	798050ef          	jal	167d8 <__sprint_r>
   11044:	2e051a63          	bnez	a0,11338 <_vfprintf_r+0x744>
   11048:	ff0d0d13          	addi	s10,s10,-16
   1104c:	09412703          	lw	a4,148(sp)
   11050:	09012783          	lw	a5,144(sp)
   11054:	000b8693          	mv	a3,s7
   11058:	fbadcee3          	blt	s11,s10,11014 <_vfprintf_r+0x420>
   1105c:	01a70733          	add	a4,a4,s10
   11060:	00178793          	addi	a5,a5,1
   11064:	00700613          	li	a2,7
   11068:	0136a023          	sw	s3,0(a3)
   1106c:	01a6a223          	sw	s10,4(a3)
   11070:	08e12a23          	sw	a4,148(sp)
   11074:	08f12823          	sw	a5,144(sp)
   11078:	00868693          	addi	a3,a3,8
   1107c:	02f65263          	ble	a5,a2,110a0 <_vfprintf_r+0x4ac>
   11080:	000a8513          	mv	a0,s5
   11084:	00090593          	mv	a1,s2
   11088:	08c10613          	addi	a2,sp,140
   1108c:	74c050ef          	jal	167d8 <__sprint_r>
   11090:	2a051463          	bnez	a0,11338 <_vfprintf_r+0x744>
   11094:	09412703          	lw	a4,148(sp)
   11098:	09012783          	lw	a5,144(sp)
   1109c:	000b8693          	mv	a3,s7
   110a0:	017a1293          	slli	t0,s4,0x17
   110a4:	7e02c063          	bltz	t0,11884 <_vfprintf_r+0xc90>
   110a8:	02812883          	lw	a7,40(sp)
   110ac:	00e88733          	add	a4,a7,a4
   110b0:	00178793          	addi	a5,a5,1
   110b4:	00700613          	li	a2,7
   110b8:	0086a023          	sw	s0,0(a3)
   110bc:	0116a223          	sw	a7,4(a3)
   110c0:	08e12a23          	sw	a4,148(sp)
   110c4:	08f12823          	sw	a5,144(sp)
   110c8:	74f64863          	blt	a2,a5,11818 <_vfprintf_r+0xc24>
   110cc:	00868693          	addi	a3,a3,8
   110d0:	01da1593          	slli	a1,s4,0x1d
   110d4:	0a05dc63          	bgez	a1,1118c <_vfprintf_r+0x598>
   110d8:	02012283          	lw	t0,32(sp)
   110dc:	02412783          	lw	a5,36(sp)
   110e0:	40f28433          	sub	s0,t0,a5
   110e4:	0a805463          	blez	s0,1118c <_vfprintf_r+0x598>
   110e8:	01000a13          	li	s4,16
   110ec:	09012783          	lw	a5,144(sp)
   110f0:	05812623          	sw	s8,76(sp)
   110f4:	00700c93          	li	s9,7
   110f8:	008a4863          	blt	s4,s0,11108 <_vfprintf_r+0x514>
   110fc:	0540006f          	j	11150 <_vfprintf_r+0x55c>
   11100:	ff040413          	addi	s0,s0,-16
   11104:	048a5663          	ble	s0,s4,11150 <_vfprintf_r+0x55c>
   11108:	01070713          	addi	a4,a4,16
   1110c:	00178793          	addi	a5,a5,1
   11110:	0186a023          	sw	s8,0(a3)
   11114:	0146a223          	sw	s4,4(a3)
   11118:	08e12a23          	sw	a4,148(sp)
   1111c:	08f12823          	sw	a5,144(sp)
   11120:	00868693          	addi	a3,a3,8
   11124:	fcfcdee3          	ble	a5,s9,11100 <_vfprintf_r+0x50c>
   11128:	000a8513          	mv	a0,s5
   1112c:	00090593          	mv	a1,s2
   11130:	08c10613          	addi	a2,sp,140
   11134:	6a4050ef          	jal	167d8 <__sprint_r>
   11138:	20051063          	bnez	a0,11338 <_vfprintf_r+0x744>
   1113c:	ff040413          	addi	s0,s0,-16
   11140:	09412703          	lw	a4,148(sp)
   11144:	09012783          	lw	a5,144(sp)
   11148:	000b8693          	mv	a3,s7
   1114c:	fa8a4ee3          	blt	s4,s0,11108 <_vfprintf_r+0x514>
   11150:	04c12883          	lw	a7,76(sp)
   11154:	00870733          	add	a4,a4,s0
   11158:	00178793          	addi	a5,a5,1
   1115c:	0116a023          	sw	a7,0(a3)
   11160:	0086a223          	sw	s0,4(a3)
   11164:	00700693          	li	a3,7
   11168:	08e12a23          	sw	a4,148(sp)
   1116c:	08f12823          	sw	a5,144(sp)
   11170:	00f6de63          	ble	a5,a3,1118c <_vfprintf_r+0x598>
   11174:	000a8513          	mv	a0,s5
   11178:	00090593          	mv	a1,s2
   1117c:	08c10613          	addi	a2,sp,140
   11180:	658050ef          	jal	167d8 <__sprint_r>
   11184:	1a051a63          	bnez	a0,11338 <_vfprintf_r+0x744>
   11188:	09412703          	lw	a4,148(sp)
   1118c:	02412983          	lw	s3,36(sp)
   11190:	02012283          	lw	t0,32(sp)
   11194:	0059d463          	ble	t0,s3,1119c <_vfprintf_r+0x5a8>
   11198:	00028993          	mv	s3,t0
   1119c:	03012683          	lw	a3,48(sp)
   111a0:	013686b3          	add	a3,a3,s3
   111a4:	02d12823          	sw	a3,48(sp)
   111a8:	08071ee3          	bnez	a4,11a44 <_vfprintf_r+0xe50>
   111ac:	000b4783          	lbu	a5,0(s6)
   111b0:	08012823          	sw	zero,144(sp)
   111b4:	000b8693          	mv	a3,s7
   111b8:	b60790e3          	bnez	a5,10d18 <_vfprintf_r+0x124>
   111bc:	000b0413          	mv	s0,s6
   111c0:	bb9ff06f          	j	10d78 <_vfprintf_r+0x184>
   111c4:	02c12283          	lw	t0,44(sp)
   111c8:	000b0413          	mv	s0,s6
   111cc:	0002a283          	lw	t0,0(t0)
   111d0:	02512023          	sw	t0,32(sp)
   111d4:	02c12283          	lw	t0,44(sp)
   111d8:	00428293          	addi	t0,t0,4
   111dc:	02512623          	sw	t0,44(sp)
   111e0:	02012283          	lw	t0,32(sp)
   111e4:	bc02d0e3          	bgez	t0,10da4 <_vfprintf_r+0x1b0>
   111e8:	405002b3          	neg	t0,t0
   111ec:	02512023          	sw	t0,32(sp)
   111f0:	004a6a13          	ori	s4,s4,4
   111f4:	000b0413          	mv	s0,s6
   111f8:	badff06f          	j	10da4 <_vfprintf_r+0x1b0>
   111fc:	000a8513          	mv	a0,s5
   11200:	00090593          	mv	a1,s2
   11204:	350010ef          	jal	12554 <__swsetup_r>
   11208:	0a051a63          	bnez	a0,112bc <_vfprintf_r+0x6c8>
   1120c:	00c91703          	lh	a4,12(s2)
   11210:	00a00693          	li	a3,10
   11214:	01071793          	slli	a5,a4,0x10
   11218:	0107d793          	srli	a5,a5,0x10
   1121c:	01a7f793          	andi	a5,a5,26
   11220:	a8d79ee3          	bne	a5,a3,10cbc <_vfprintf_r+0xc8>
   11224:	00e91783          	lh	a5,14(s2)
   11228:	a807cae3          	bltz	a5,10cbc <_vfprintf_r+0xc8>
   1122c:	06492303          	lw	t1,100(s2)
   11230:	01c92283          	lw	t0,28(s2)
   11234:	02492883          	lw	a7,36(s2)
   11238:	02c12683          	lw	a3,44(sp)
   1123c:	ffd77713          	andi	a4,a4,-3
   11240:	40000813          	li	a6,1024
   11244:	0ae11223          	sh	a4,164(sp)
   11248:	000a8513          	mv	a0,s5
   1124c:	10010713          	addi	a4,sp,256
   11250:	09810593          	addi	a1,sp,152
   11254:	000b0613          	mv	a2,s6
   11258:	0e612e23          	sw	t1,252(sp)
   1125c:	0af11323          	sh	a5,166(sp)
   11260:	0a512a23          	sw	t0,180(sp)
   11264:	0b112e23          	sw	a7,188(sp)
   11268:	08e12c23          	sw	a4,152(sp)
   1126c:	0ae12423          	sw	a4,168(sp)
   11270:	0b012023          	sw	a6,160(sp)
   11274:	0b012623          	sw	a6,172(sp)
   11278:	0a012823          	sw	zero,176(sp)
   1127c:	979ff0ef          	jal	10bf4 <_vfprintf_r>
   11280:	00050413          	mv	s0,a0
   11284:	00054c63          	bltz	a0,1129c <_vfprintf_r+0x6a8>
   11288:	000a8513          	mv	a0,s5
   1128c:	09810593          	addi	a1,sp,152
   11290:	18d020ef          	jal	13c1c <_fflush_r>
   11294:	00050463          	beqz	a0,1129c <_vfprintf_r+0x6a8>
   11298:	2500106f          	j	124e8 <_vfprintf_r+0x18f4>
   1129c:	0a415783          	lhu	a5,164(sp)
   112a0:	0407f793          	andi	a5,a5,64
   112a4:	00078863          	beqz	a5,112b4 <_vfprintf_r+0x6c0>
   112a8:	00c95783          	lhu	a5,12(s2)
   112ac:	0407e793          	ori	a5,a5,64
   112b0:	00f91623          	sh	a5,12(s2)
   112b4:	00040513          	mv	a0,s0
   112b8:	0080006f          	j	112c0 <_vfprintf_r+0x6cc>
   112bc:	fff00513          	li	a0,-1
   112c0:	54c12083          	lw	ra,1356(sp)
   112c4:	54812403          	lw	s0,1352(sp)
   112c8:	54412483          	lw	s1,1348(sp)
   112cc:	54012903          	lw	s2,1344(sp)
   112d0:	53c12983          	lw	s3,1340(sp)
   112d4:	53812a03          	lw	s4,1336(sp)
   112d8:	53412a83          	lw	s5,1332(sp)
   112dc:	53012b03          	lw	s6,1328(sp)
   112e0:	52c12b83          	lw	s7,1324(sp)
   112e4:	52812c03          	lw	s8,1320(sp)
   112e8:	52412c83          	lw	s9,1316(sp)
   112ec:	52012d03          	lw	s10,1312(sp)
   112f0:	51c12d83          	lw	s11,1308(sp)
   112f4:	50813407          	fld	fs0,1288(sp)
   112f8:	50013487          	fld	fs1,1280(sp)
   112fc:	55010113          	addi	sp,sp,1360
   11300:	00008067          	ret
   11304:	000a8513          	mv	a0,s5
   11308:	00090593          	mv	a1,s2
   1130c:	08c10613          	addi	a2,sp,140
   11310:	4c8050ef          	jal	167d8 <__sprint_r>
   11314:	02051263          	bnez	a0,11338 <_vfprintf_r+0x744>
   11318:	000b8693          	mv	a3,s7
   1131c:	a51ff06f          	j	10d6c <_vfprintf_r+0x178>
   11320:	09412783          	lw	a5,148(sp)
   11324:	00078a63          	beqz	a5,11338 <_vfprintf_r+0x744>
   11328:	000a8513          	mv	a0,s5
   1132c:	00090593          	mv	a1,s2
   11330:	08c10613          	addi	a2,sp,140
   11334:	4a4050ef          	jal	167d8 <__sprint_r>
   11338:	00c95783          	lhu	a5,12(s2)
   1133c:	0407f793          	andi	a5,a5,64
   11340:	f6079ee3          	bnez	a5,112bc <_vfprintf_r+0x6c8>
   11344:	03012503          	lw	a0,48(sp)
   11348:	f79ff06f          	j	112c0 <_vfprintf_r+0x6cc>
   1134c:	000a8513          	mv	a0,s5
   11350:	6c1020ef          	jal	14210 <__sinit>
   11354:	911ff06f          	j	10c64 <_vfprintf_r+0x70>
   11358:	02c12283          	lw	t0,44(sp)
   1135c:	00428293          	addi	t0,t0,4
   11360:	02512623          	sw	t0,44(sp)
   11364:	0007a703          	lw	a4,0(a5)
   11368:	00100793          	li	a5,1
   1136c:	ad1ff06f          	j	10e3c <_vfprintf_r+0x248>
   11370:	02c12283          	lw	t0,44(sp)
   11374:	00428293          	addi	t0,t0,4
   11378:	02512623          	sw	t0,44(sp)
   1137c:	0007a703          	lw	a4,0(a5)
   11380:	00000793          	li	a5,0
   11384:	ab9ff06f          	j	10e3c <_vfprintf_r+0x248>
   11388:	000b0413          	mv	s0,s6
   1138c:	02b00513          	li	a0,43
   11390:	a15ff06f          	j	10da4 <_vfprintf_r+0x1b0>
   11394:	080a6a13          	ori	s4,s4,128
   11398:	000b0413          	mv	s0,s6
   1139c:	a09ff06f          	j	10da4 <_vfprintf_r+0x1b0>
   113a0:	02c12283          	lw	t0,44(sp)
   113a4:	00100713          	li	a4,1
   113a8:	02e12223          	sw	a4,36(sp)
   113ac:	0002a783          	lw	a5,0(t0)
   113b0:	00428293          	addi	t0,t0,4
   113b4:	060107a3          	sb	zero,111(sp)
   113b8:	08f10c23          	sb	a5,152(sp)
   113bc:	02512623          	sw	t0,44(sp)
   113c0:	02e12423          	sw	a4,40(sp)
   113c4:	09810413          	addi	s0,sp,152
   113c8:	04012023          	sw	zero,64(sp)
   113cc:	aedff06f          	j	10eb8 <_vfprintf_r+0x2c4>
   113d0:	000b4c83          	lbu	s9,0(s6)
   113d4:	001b0413          	addi	s0,s6,1
   113d8:	010c9463          	bne	s9,a6,113e0 <_vfprintf_r+0x7ec>
   113dc:	1140106f          	j	124f0 <_vfprintf_r+0x18fc>
   113e0:	fd0c8793          	addi	a5,s9,-48
   113e4:	00040b13          	mv	s6,s0
   113e8:	00000d93          	li	s11,0
   113ec:	9cf5e0e3          	bltu	a1,a5,10dac <_vfprintf_r+0x1b8>
   113f0:	001b0b13          	addi	s6,s6,1
   113f4:	fffb4c83          	lbu	s9,-1(s6)
   113f8:	001d9713          	slli	a4,s11,0x1
   113fc:	003d9d93          	slli	s11,s11,0x3
   11400:	01b70db3          	add	s11,a4,s11
   11404:	01b78db3          	add	s11,a5,s11
   11408:	fd0c8793          	addi	a5,s9,-48
   1140c:	fef5f2e3          	bleu	a5,a1,113f0 <_vfprintf_r+0x7fc>
   11410:	980ddee3          	bgez	s11,10dac <_vfprintf_r+0x1b8>
   11414:	fff00d93          	li	s11,-1
   11418:	995ff06f          	j	10dac <_vfprintf_r+0x1b8>
   1141c:	008a6a13          	ori	s4,s4,8
   11420:	000b0413          	mv	s0,s6
   11424:	981ff06f          	j	10da4 <_vfprintf_r+0x1b0>
   11428:	0001b737          	lui	a4,0x1b
   1142c:	27870713          	addi	a4,a4,632 # 1b278 <__clz_tab+0x138>
   11430:	01ba1593          	slli	a1,s4,0x1b
   11434:	06a107a3          	sb	a0,111(sp)
   11438:	02c12783          	lw	a5,44(sp)
   1143c:	04e12c23          	sw	a4,88(sp)
   11440:	0e05dc63          	bgez	a1,11538 <_vfprintf_r+0x944>
   11444:	02c12283          	lw	t0,44(sp)
   11448:	0007a703          	lw	a4,0(a5)
   1144c:	00428293          	addi	t0,t0,4
   11450:	02512623          	sw	t0,44(sp)
   11454:	01fa1593          	slli	a1,s4,0x1f
   11458:	00200793          	li	a5,2
   1145c:	9e05d0e3          	bgez	a1,10e3c <_vfprintf_r+0x248>
   11460:	9c070ee3          	beqz	a4,10e3c <_vfprintf_r+0x248>
   11464:	03000613          	li	a2,48
   11468:	06c10823          	sb	a2,112(sp)
   1146c:	079108a3          	sb	s9,113(sp)
   11470:	00fa6a33          	or	s4,s4,a5
   11474:	9c9ff06f          	j	10e3c <_vfprintf_r+0x248>
   11478:	01ba1893          	slli	a7,s4,0x1b
   1147c:	06a107a3          	sb	a0,111(sp)
   11480:	02c12783          	lw	a5,44(sp)
   11484:	0e08d263          	bgez	a7,11568 <_vfprintf_r+0x974>
   11488:	02c12283          	lw	t0,44(sp)
   1148c:	0007a703          	lw	a4,0(a5)
   11490:	00428293          	addi	t0,t0,4
   11494:	02512623          	sw	t0,44(sp)
   11498:	00074ce3          	bltz	a4,11cb0 <_vfprintf_r+0x10bc>
   1149c:	06f14503          	lbu	a0,111(sp)
   114a0:	05b12023          	sw	s11,64(sp)
   114a4:	00100793          	li	a5,1
   114a8:	9a1ff06f          	j	10e48 <_vfprintf_r+0x254>
   114ac:	040a6a13          	ori	s4,s4,64
   114b0:	000b0413          	mv	s0,s6
   114b4:	8f1ff06f          	j	10da4 <_vfprintf_r+0x1b0>
   114b8:	01ba1593          	slli	a1,s4,0x1b
   114bc:	06a107a3          	sb	a0,111(sp)
   114c0:	2005ca63          	bltz	a1,116d4 <_vfprintf_r+0xae0>
   114c4:	019a1593          	slli	a1,s4,0x19
   114c8:	2005d663          	bgez	a1,116d4 <_vfprintf_r+0xae0>
   114cc:	02c12283          	lw	t0,44(sp)
   114d0:	0002a783          	lw	a5,0(t0)
   114d4:	00428293          	addi	t0,t0,4
   114d8:	02512623          	sw	t0,44(sp)
   114dc:	03012283          	lw	t0,48(sp)
   114e0:	00579023          	sh	t0,0(a5)
   114e4:	82dff06f          	j	10d10 <_vfprintf_r+0x11c>
   114e8:	02012023          	sw	zero,32(sp)
   114ec:	fd0c8793          	addi	a5,s9,-48
   114f0:	02012283          	lw	t0,32(sp)
   114f4:	001b0b13          	addi	s6,s6,1
   114f8:	fffb4c83          	lbu	s9,-1(s6)
   114fc:	00129713          	slli	a4,t0,0x1
   11500:	00329893          	slli	a7,t0,0x3
   11504:	01170733          	add	a4,a4,a7
   11508:	00f707b3          	add	a5,a4,a5
   1150c:	02f12023          	sw	a5,32(sp)
   11510:	fd0c8793          	addi	a5,s9,-48
   11514:	fcf5fee3          	bleu	a5,a1,114f0 <_vfprintf_r+0x8fc>
   11518:	895ff06f          	j	10dac <_vfprintf_r+0x1b8>
   1151c:	0001b737          	lui	a4,0x1b
   11520:	28c70713          	addi	a4,a4,652 # 1b28c <__clz_tab+0x14c>
   11524:	01ba1593          	slli	a1,s4,0x1b
   11528:	06a107a3          	sb	a0,111(sp)
   1152c:	02c12783          	lw	a5,44(sp)
   11530:	04e12c23          	sw	a4,88(sp)
   11534:	f005c8e3          	bltz	a1,11444 <_vfprintf_r+0x850>
   11538:	019a1593          	slli	a1,s4,0x19
   1153c:	0c05dae3          	bgez	a1,11e10 <_vfprintf_r+0x121c>
   11540:	02c12283          	lw	t0,44(sp)
   11544:	0007d703          	lhu	a4,0(a5)
   11548:	00428293          	addi	t0,t0,4
   1154c:	02512623          	sw	t0,44(sp)
   11550:	f05ff06f          	j	11454 <_vfprintf_r+0x860>
   11554:	010a6a13          	ori	s4,s4,16
   11558:	01ba1893          	slli	a7,s4,0x1b
   1155c:	06a107a3          	sb	a0,111(sp)
   11560:	02c12783          	lw	a5,44(sp)
   11564:	f208c2e3          	bltz	a7,11488 <_vfprintf_r+0x894>
   11568:	019a1593          	slli	a1,s4,0x19
   1156c:	0a05dce3          	bgez	a1,11e24 <_vfprintf_r+0x1230>
   11570:	02c12283          	lw	t0,44(sp)
   11574:	00079703          	lh	a4,0(a5)
   11578:	00428293          	addi	t0,t0,4
   1157c:	02512623          	sw	t0,44(sp)
   11580:	f19ff06f          	j	11498 <_vfprintf_r+0x8a4>
   11584:	02c12283          	lw	t0,44(sp)
   11588:	06a107a3          	sb	a0,111(sp)
   1158c:	00100413          	li	s0,1
   11590:	00728793          	addi	a5,t0,7
   11594:	ff87f793          	andi	a5,a5,-8
   11598:	0007b007          	fld	ft0,0(a5)
   1159c:	00878793          	addi	a5,a5,8
   115a0:	00d12a23          	sw	a3,20(sp)
   115a4:	22000553          	fmv.d	fa0,ft0
   115a8:	02013c27          	fsd	ft0,56(sp)
   115ac:	02f12623          	sw	a5,44(sp)
   115b0:	5c9040ef          	jal	16378 <__fpclassifyd>
   115b4:	01412683          	lw	a3,20(sp)
   115b8:	70851a63          	bne	a0,s0,11ccc <_vfprintf_r+0x10d8>
   115bc:	03813007          	fld	ft0,56(sp)
   115c0:	a28017d3          	flt.d	a5,ft0,fs0
   115c4:	50079ce3          	bnez	a5,122dc <_vfprintf_r+0x16e8>
   115c8:	06f14503          	lbu	a0,111(sp)
   115cc:	04700793          	li	a5,71
   115d0:	2b97dce3          	ble	s9,a5,12088 <_vfprintf_r+0x1494>
   115d4:	0001b437          	lui	s0,0x1b
   115d8:	26c40413          	addi	s0,s0,620 # 1b26c <__clz_tab+0x12c>
   115dc:	00300293          	li	t0,3
   115e0:	02512223          	sw	t0,36(sp)
   115e4:	f7fa7a13          	andi	s4,s4,-129
   115e8:	02512423          	sw	t0,40(sp)
   115ec:	04012023          	sw	zero,64(sp)
   115f0:	8b9ff06f          	j	10ea8 <_vfprintf_r+0x2b4>
   115f4:	02c12283          	lw	t0,44(sp)
   115f8:	060107a3          	sb	zero,111(sp)
   115fc:	0002a403          	lw	s0,0(t0)
   11600:	00428d13          	addi	s10,t0,4
   11604:	3c040ce3          	beqz	s0,121dc <_vfprintf_r+0x15e8>
   11608:	00040513          	mv	a0,s0
   1160c:	340dc2e3          	bltz	s11,12150 <_vfprintf_r+0x155c>
   11610:	00000593          	li	a1,0
   11614:	000d8613          	mv	a2,s11
   11618:	00d12a23          	sw	a3,20(sp)
   1161c:	2d5030ef          	jal	150f0 <memchr>
   11620:	01412683          	lw	a3,20(sp)
   11624:	580500e3          	beqz	a0,123a4 <_vfprintf_r+0x17b0>
   11628:	40850533          	sub	a0,a0,s0
   1162c:	02a12423          	sw	a0,40(sp)
   11630:	24adc8e3          	blt	s11,a0,12080 <_vfprintf_r+0x148c>
   11634:	02812703          	lw	a4,40(sp)
   11638:	06f14503          	lbu	a0,111(sp)
   1163c:	03a12623          	sw	s10,44(sp)
   11640:	fff74993          	not	s3,a4
   11644:	41f9d993          	srai	s3,s3,0x1f
   11648:	013779b3          	and	s3,a4,s3
   1164c:	03312223          	sw	s3,36(sp)
   11650:	04012023          	sw	zero,64(sp)
   11654:	855ff06f          	j	10ea8 <_vfprintf_r+0x2b4>
   11658:	000b0413          	mv	s0,s6
   1165c:	f4051463          	bnez	a0,10da4 <_vfprintf_r+0x1b0>
   11660:	02000513          	li	a0,32
   11664:	f40ff06f          	j	10da4 <_vfprintf_r+0x1b0>
   11668:	02c12283          	lw	t0,44(sp)
   1166c:	03000793          	li	a5,48
   11670:	06f10823          	sb	a5,112(sp)
   11674:	07800793          	li	a5,120
   11678:	06f108a3          	sb	a5,113(sp)
   1167c:	0001b7b7          	lui	a5,0x1b
   11680:	0002a703          	lw	a4,0(t0)
   11684:	28c78793          	addi	a5,a5,652 # 1b28c <__clz_tab+0x14c>
   11688:	00428293          	addi	t0,t0,4
   1168c:	04f12c23          	sw	a5,88(sp)
   11690:	002a6a13          	ori	s4,s4,2
   11694:	02512623          	sw	t0,44(sp)
   11698:	00200793          	li	a5,2
   1169c:	07800c93          	li	s9,120
   116a0:	f9cff06f          	j	10e3c <_vfprintf_r+0x248>
   116a4:	001a6a13          	ori	s4,s4,1
   116a8:	000b0413          	mv	s0,s6
   116ac:	ef8ff06f          	j	10da4 <_vfprintf_r+0x1b0>
   116b0:	06a107a3          	sb	a0,111(sp)
   116b4:	c60c86e3          	beqz	s9,11320 <_vfprintf_r+0x72c>
   116b8:	00100713          	li	a4,1
   116bc:	02e12223          	sw	a4,36(sp)
   116c0:	09910c23          	sb	s9,152(sp)
   116c4:	060107a3          	sb	zero,111(sp)
   116c8:	02e12423          	sw	a4,40(sp)
   116cc:	09810413          	addi	s0,sp,152
   116d0:	cf9ff06f          	j	113c8 <_vfprintf_r+0x7d4>
   116d4:	02c12283          	lw	t0,44(sp)
   116d8:	0002a783          	lw	a5,0(t0)
   116dc:	00428293          	addi	t0,t0,4
   116e0:	02512623          	sw	t0,44(sp)
   116e4:	03012283          	lw	t0,48(sp)
   116e8:	0057a023          	sw	t0,0(a5)
   116ec:	e24ff06f          	j	10d10 <_vfprintf_r+0x11c>
   116f0:	09412703          	lw	a4,148(sp)
   116f4:	09012783          	lw	a5,144(sp)
   116f8:	06f14603          	lbu	a2,111(sp)
   116fc:	8a0606e3          	beqz	a2,10fa8 <_vfprintf_r+0x3b4>
   11700:	06f10613          	addi	a2,sp,111
   11704:	00c6a023          	sw	a2,0(a3)
   11708:	00100613          	li	a2,1
   1170c:	00c6a223          	sw	a2,4(a3)
   11710:	00170713          	addi	a4,a4,1
   11714:	00178793          	addi	a5,a5,1
   11718:	00700613          	li	a2,7
   1171c:	08e12a23          	sw	a4,148(sp)
   11720:	08f12823          	sw	a5,144(sp)
   11724:	00868693          	addi	a3,a3,8
   11728:	88f650e3          	ble	a5,a2,10fa8 <_vfprintf_r+0x3b4>
   1172c:	000a8513          	mv	a0,s5
   11730:	00090593          	mv	a1,s2
   11734:	08c10613          	addi	a2,sp,140
   11738:	0a0050ef          	jal	167d8 <__sprint_r>
   1173c:	be051ee3          	bnez	a0,11338 <_vfprintf_r+0x744>
   11740:	09412703          	lw	a4,148(sp)
   11744:	09012783          	lw	a5,144(sp)
   11748:	000b8693          	mv	a3,s7
   1174c:	85dff06f          	j	10fa8 <_vfprintf_r+0x3b4>
   11750:	04812283          	lw	t0,72(sp)
   11754:	00100613          	li	a2,1
   11758:	00170713          	addi	a4,a4,1
   1175c:	00178793          	addi	a5,a5,1
   11760:	0086a023          	sw	s0,0(a3)
   11764:	4e565863          	ble	t0,a2,11c54 <_vfprintf_r+0x1060>
   11768:	00100613          	li	a2,1
   1176c:	00c6a223          	sw	a2,4(a3)
   11770:	00700613          	li	a2,7
   11774:	08e12a23          	sw	a4,148(sp)
   11778:	08f12823          	sw	a5,144(sp)
   1177c:	00868693          	addi	a3,a3,8
   11780:	4ef64063          	blt	a2,a5,11c60 <_vfprintf_r+0x106c>
   11784:	05012283          	lw	t0,80(sp)
   11788:	00178793          	addi	a5,a5,1
   1178c:	00700613          	li	a2,7
   11790:	00570733          	add	a4,a4,t0
   11794:	04412283          	lw	t0,68(sp)
   11798:	08e12a23          	sw	a4,148(sp)
   1179c:	08f12823          	sw	a5,144(sp)
   117a0:	0056a023          	sw	t0,0(a3)
   117a4:	05012283          	lw	t0,80(sp)
   117a8:	00868693          	addi	a3,a3,8
   117ac:	fe56ae23          	sw	t0,-4(a3)
   117b0:	4cf64a63          	blt	a2,a5,11c84 <_vfprintf_r+0x1090>
   117b4:	03813007          	fld	ft0,56(sp)
   117b8:	a2802653          	feq.d	a2,ft0,fs0
   117bc:	42061463          	bnez	a2,11be4 <_vfprintf_r+0xff0>
   117c0:	04812283          	lw	t0,72(sp)
   117c4:	00140413          	addi	s0,s0,1
   117c8:	00178793          	addi	a5,a5,1
   117cc:	fff28613          	addi	a2,t0,-1
   117d0:	00c70733          	add	a4,a4,a2
   117d4:	0086a023          	sw	s0,0(a3)
   117d8:	00c6a223          	sw	a2,4(a3)
   117dc:	00700613          	li	a2,7
   117e0:	08e12a23          	sw	a4,148(sp)
   117e4:	08f12823          	sw	a5,144(sp)
   117e8:	28f64a63          	blt	a2,a5,11a7c <_vfprintf_r+0xe88>
   117ec:	00868693          	addi	a3,a3,8
   117f0:	05412283          	lw	t0,84(sp)
   117f4:	07c10613          	addi	a2,sp,124
   117f8:	00178793          	addi	a5,a5,1
   117fc:	00e28733          	add	a4,t0,a4
   11800:	00c6a023          	sw	a2,0(a3)
   11804:	00700613          	li	a2,7
   11808:	0056a223          	sw	t0,4(a3)
   1180c:	08e12a23          	sw	a4,148(sp)
   11810:	08f12823          	sw	a5,144(sp)
   11814:	8af65ce3          	ble	a5,a2,110cc <_vfprintf_r+0x4d8>
   11818:	000a8513          	mv	a0,s5
   1181c:	00090593          	mv	a1,s2
   11820:	08c10613          	addi	a2,sp,140
   11824:	7b5040ef          	jal	167d8 <__sprint_r>
   11828:	b00518e3          	bnez	a0,11338 <_vfprintf_r+0x744>
   1182c:	09412703          	lw	a4,148(sp)
   11830:	000b8693          	mv	a3,s7
   11834:	89dff06f          	j	110d0 <_vfprintf_r+0x4dc>
   11838:	00100613          	li	a2,1
   1183c:	e2c79263          	bne	a5,a2,10e60 <_vfprintf_r+0x26c>
   11840:	00900813          	li	a6,9
   11844:	0c010613          	addi	a2,sp,192
   11848:	00a00593          	li	a1,10
   1184c:	00e87e63          	bleu	a4,a6,11868 <_vfprintf_r+0xc74>
   11850:	02b777b3          	remu	a5,a4,a1
   11854:	fff60613          	addi	a2,a2,-1
   11858:	02b75733          	divu	a4,a4,a1
   1185c:	03078793          	addi	a5,a5,48
   11860:	00f60023          	sb	a5,0(a2)
   11864:	fee866e3          	bltu	a6,a4,11850 <_vfprintf_r+0xc5c>
   11868:	01c12283          	lw	t0,28(sp)
   1186c:	fff60413          	addi	s0,a2,-1
   11870:	03070713          	addi	a4,a4,48
   11874:	408282b3          	sub	t0,t0,s0
   11878:	fee60fa3          	sb	a4,-1(a2)
   1187c:	02512423          	sw	t0,40(sp)
   11880:	e18ff06f          	j	10e98 <_vfprintf_r+0x2a4>
   11884:	06500613          	li	a2,101
   11888:	ed9654e3          	ble	s9,a2,11750 <_vfprintf_r+0xb5c>
   1188c:	03813007          	fld	ft0,56(sp)
   11890:	a2802653          	feq.d	a2,ft0,fs0
   11894:	2a060463          	beqz	a2,11b3c <_vfprintf_r+0xf48>
   11898:	0001b637          	lui	a2,0x1b
   1189c:	2a860613          	addi	a2,a2,680 # 1b2a8 <__clz_tab+0x168>
   118a0:	00c6a023          	sw	a2,0(a3)
   118a4:	00100613          	li	a2,1
   118a8:	00c6a223          	sw	a2,4(a3)
   118ac:	00170713          	addi	a4,a4,1
   118b0:	00178793          	addi	a5,a5,1
   118b4:	00700613          	li	a2,7
   118b8:	08e12a23          	sw	a4,148(sp)
   118bc:	08f12823          	sw	a5,144(sp)
   118c0:	00868693          	addi	a3,a3,8
   118c4:	68f64e63          	blt	a2,a5,11f60 <_vfprintf_r+0x136c>
   118c8:	07412783          	lw	a5,116(sp)
   118cc:	04812283          	lw	t0,72(sp)
   118d0:	0057c663          	blt	a5,t0,118dc <_vfprintf_r+0xce8>
   118d4:	01fa1593          	slli	a1,s4,0x1f
   118d8:	fe05dc63          	bgez	a1,110d0 <_vfprintf_r+0x4dc>
   118dc:	05012283          	lw	t0,80(sp)
   118e0:	09012783          	lw	a5,144(sp)
   118e4:	00700613          	li	a2,7
   118e8:	00570733          	add	a4,a4,t0
   118ec:	04412283          	lw	t0,68(sp)
   118f0:	00178793          	addi	a5,a5,1
   118f4:	08e12a23          	sw	a4,148(sp)
   118f8:	0056a023          	sw	t0,0(a3)
   118fc:	05012283          	lw	t0,80(sp)
   11900:	08f12823          	sw	a5,144(sp)
   11904:	00868693          	addi	a3,a3,8
   11908:	fe56ae23          	sw	t0,-4(a3)
   1190c:	7cf64463          	blt	a2,a5,120d4 <_vfprintf_r+0x14e0>
   11910:	04812783          	lw	a5,72(sp)
   11914:	fff78413          	addi	s0,a5,-1
   11918:	fa805c63          	blez	s0,110d0 <_vfprintf_r+0x4dc>
   1191c:	0001b8b7          	lui	a7,0x1b
   11920:	01000c93          	li	s9,16
   11924:	09012783          	lw	a5,144(sp)
   11928:	e1c88993          	addi	s3,a7,-484 # 1ae1c <zeroes.3945>
   1192c:	00700d13          	li	s10,7
   11930:	008cc863          	blt	s9,s0,11940 <_vfprintf_r+0xd4c>
   11934:	5040006f          	j	11e38 <_vfprintf_r+0x1244>
   11938:	ff040413          	addi	s0,s0,-16
   1193c:	4e8cde63          	ble	s0,s9,11e38 <_vfprintf_r+0x1244>
   11940:	01070713          	addi	a4,a4,16
   11944:	00178793          	addi	a5,a5,1
   11948:	0136a023          	sw	s3,0(a3)
   1194c:	0196a223          	sw	s9,4(a3)
   11950:	08e12a23          	sw	a4,148(sp)
   11954:	08f12823          	sw	a5,144(sp)
   11958:	00868693          	addi	a3,a3,8
   1195c:	fcfd5ee3          	ble	a5,s10,11938 <_vfprintf_r+0xd44>
   11960:	000a8513          	mv	a0,s5
   11964:	00090593          	mv	a1,s2
   11968:	08c10613          	addi	a2,sp,140
   1196c:	66d040ef          	jal	167d8 <__sprint_r>
   11970:	9c0514e3          	bnez	a0,11338 <_vfprintf_r+0x744>
   11974:	09412703          	lw	a4,148(sp)
   11978:	09012783          	lw	a5,144(sp)
   1197c:	000b8693          	mv	a3,s7
   11980:	fb9ff06f          	j	11938 <_vfprintf_r+0xd44>
   11984:	02012283          	lw	t0,32(sp)
   11988:	02412883          	lw	a7,36(sp)
   1198c:	41128d33          	sub	s10,t0,a7
   11990:	e5a05a63          	blez	s10,10fe4 <_vfprintf_r+0x3f0>
   11994:	0001b8b7          	lui	a7,0x1b
   11998:	01000d93          	li	s11,16
   1199c:	e1c88993          	addi	s3,a7,-484 # 1ae1c <zeroes.3945>
   119a0:	00700493          	li	s1,7
   119a4:	01adc863          	blt	s11,s10,119b4 <_vfprintf_r+0xdc0>
   119a8:	0540006f          	j	119fc <_vfprintf_r+0xe08>
   119ac:	ff0d0d13          	addi	s10,s10,-16
   119b0:	05add663          	ble	s10,s11,119fc <_vfprintf_r+0xe08>
   119b4:	01070713          	addi	a4,a4,16
   119b8:	00178793          	addi	a5,a5,1
   119bc:	0136a023          	sw	s3,0(a3)
   119c0:	01b6a223          	sw	s11,4(a3)
   119c4:	08e12a23          	sw	a4,148(sp)
   119c8:	08f12823          	sw	a5,144(sp)
   119cc:	00868693          	addi	a3,a3,8
   119d0:	fcf4dee3          	ble	a5,s1,119ac <_vfprintf_r+0xdb8>
   119d4:	000a8513          	mv	a0,s5
   119d8:	00090593          	mv	a1,s2
   119dc:	08c10613          	addi	a2,sp,140
   119e0:	5f9040ef          	jal	167d8 <__sprint_r>
   119e4:	94051ae3          	bnez	a0,11338 <_vfprintf_r+0x744>
   119e8:	ff0d0d13          	addi	s10,s10,-16
   119ec:	09412703          	lw	a4,148(sp)
   119f0:	09012783          	lw	a5,144(sp)
   119f4:	000b8693          	mv	a3,s7
   119f8:	fbadcee3          	blt	s11,s10,119b4 <_vfprintf_r+0xdc0>
   119fc:	01a70733          	add	a4,a4,s10
   11a00:	00178793          	addi	a5,a5,1
   11a04:	00700613          	li	a2,7
   11a08:	0136a023          	sw	s3,0(a3)
   11a0c:	01a6a223          	sw	s10,4(a3)
   11a10:	08e12a23          	sw	a4,148(sp)
   11a14:	08f12823          	sw	a5,144(sp)
   11a18:	00868693          	addi	a3,a3,8
   11a1c:	dcf65463          	ble	a5,a2,10fe4 <_vfprintf_r+0x3f0>
   11a20:	000a8513          	mv	a0,s5
   11a24:	00090593          	mv	a1,s2
   11a28:	08c10613          	addi	a2,sp,140
   11a2c:	5ad040ef          	jal	167d8 <__sprint_r>
   11a30:	900514e3          	bnez	a0,11338 <_vfprintf_r+0x744>
   11a34:	09412703          	lw	a4,148(sp)
   11a38:	09012783          	lw	a5,144(sp)
   11a3c:	000b8693          	mv	a3,s7
   11a40:	da4ff06f          	j	10fe4 <_vfprintf_r+0x3f0>
   11a44:	000a8513          	mv	a0,s5
   11a48:	00090593          	mv	a1,s2
   11a4c:	08c10613          	addi	a2,sp,140
   11a50:	589040ef          	jal	167d8 <__sprint_r>
   11a54:	f4050c63          	beqz	a0,111ac <_vfprintf_r+0x5b8>
   11a58:	8e1ff06f          	j	11338 <_vfprintf_r+0x744>
   11a5c:	00870733          	add	a4,a4,s0
   11a60:	00178793          	addi	a5,a5,1
   11a64:	00700613          	li	a2,7
   11a68:	0136a023          	sw	s3,0(a3)
   11a6c:	0086a223          	sw	s0,4(a3)
   11a70:	08e12a23          	sw	a4,148(sp)
   11a74:	08f12823          	sw	a5,144(sp)
   11a78:	d6f65ae3          	ble	a5,a2,117ec <_vfprintf_r+0xbf8>
   11a7c:	000a8513          	mv	a0,s5
   11a80:	00090593          	mv	a1,s2
   11a84:	08c10613          	addi	a2,sp,140
   11a88:	551040ef          	jal	167d8 <__sprint_r>
   11a8c:	8a0516e3          	bnez	a0,11338 <_vfprintf_r+0x744>
   11a90:	09412703          	lw	a4,148(sp)
   11a94:	09012783          	lw	a5,144(sp)
   11a98:	000b8693          	mv	a3,s7
   11a9c:	d55ff06f          	j	117f0 <_vfprintf_r+0xbfc>
   11aa0:	04079463          	bnez	a5,11ae8 <_vfprintf_r+0xef4>
   11aa4:	01fa1793          	slli	a5,s4,0x1f
   11aa8:	0407d063          	bgez	a5,11ae8 <_vfprintf_r+0xef4>
   11aac:	05c12283          	lw	t0,92(sp)
   11ab0:	03000793          	li	a5,48
   11ab4:	0af10fa3          	sb	a5,191(sp)
   11ab8:	02512423          	sw	t0,40(sp)
   11abc:	0bf10413          	addi	s0,sp,191
   11ac0:	bd8ff06f          	j	10e98 <_vfprintf_r+0x2a4>
   11ac4:	000a8513          	mv	a0,s5
   11ac8:	00090593          	mv	a1,s2
   11acc:	08c10613          	addi	a2,sp,140
   11ad0:	509040ef          	jal	167d8 <__sprint_r>
   11ad4:	860512e3          	bnez	a0,11338 <_vfprintf_r+0x744>
   11ad8:	09412703          	lw	a4,148(sp)
   11adc:	09012783          	lw	a5,144(sp)
   11ae0:	000b8693          	mv	a3,s7
   11ae4:	cf4ff06f          	j	10fd8 <_vfprintf_r+0x3e4>
   11ae8:	02012423          	sw	zero,40(sp)
   11aec:	0c010413          	addi	s0,sp,192
   11af0:	ba8ff06f          	j	10e98 <_vfprintf_r+0x2a4>
   11af4:	0c010413          	addi	s0,sp,192
   11af8:	00777793          	andi	a5,a4,7
   11afc:	fff40413          	addi	s0,s0,-1
   11b00:	03078793          	addi	a5,a5,48
   11b04:	00375713          	srli	a4,a4,0x3
   11b08:	00f40023          	sb	a5,0(s0)
   11b0c:	fe0716e3          	bnez	a4,11af8 <_vfprintf_r+0xf04>
   11b10:	01fa1613          	slli	a2,s4,0x1f
   11b14:	00040713          	mv	a4,s0
   11b18:	b6065a63          	bgez	a2,10e8c <_vfprintf_r+0x298>
   11b1c:	03000613          	li	a2,48
   11b20:	5cc78a63          	beq	a5,a2,120f4 <_vfprintf_r+0x1500>
   11b24:	01c12883          	lw	a7,28(sp)
   11b28:	fff40413          	addi	s0,s0,-1
   11b2c:	fec70fa3          	sb	a2,-1(a4)
   11b30:	408888b3          	sub	a7,a7,s0
   11b34:	03112423          	sw	a7,40(sp)
   11b38:	b60ff06f          	j	10e98 <_vfprintf_r+0x2a4>
   11b3c:	07412c83          	lw	s9,116(sp)
   11b40:	45905063          	blez	s9,11f80 <_vfprintf_r+0x138c>
   11b44:	04812283          	lw	t0,72(sp)
   11b48:	325cc663          	blt	s9,t0,11e74 <_vfprintf_r+0x1280>
   11b4c:	00570733          	add	a4,a4,t0
   11b50:	00178793          	addi	a5,a5,1
   11b54:	00700613          	li	a2,7
   11b58:	0086a023          	sw	s0,0(a3)
   11b5c:	0056a223          	sw	t0,4(a3)
   11b60:	08e12a23          	sw	a4,148(sp)
   11b64:	08f12823          	sw	a5,144(sp)
   11b68:	00868693          	addi	a3,a3,8
   11b6c:	7af64c63          	blt	a2,a5,12324 <_vfprintf_r+0x1730>
   11b70:	04812783          	lw	a5,72(sp)
   11b74:	40fc8433          	sub	s0,s9,a5
   11b78:	3c805063          	blez	s0,11f38 <_vfprintf_r+0x1344>
   11b7c:	0001b8b7          	lui	a7,0x1b
   11b80:	01000c93          	li	s9,16
   11b84:	09012783          	lw	a5,144(sp)
   11b88:	e1c88993          	addi	s3,a7,-484 # 1ae1c <zeroes.3945>
   11b8c:	00700d13          	li	s10,7
   11b90:	008cc863          	blt	s9,s0,11ba0 <_vfprintf_r+0xfac>
   11b94:	3640006f          	j	11ef8 <_vfprintf_r+0x1304>
   11b98:	ff040413          	addi	s0,s0,-16
   11b9c:	348cde63          	ble	s0,s9,11ef8 <_vfprintf_r+0x1304>
   11ba0:	01070713          	addi	a4,a4,16
   11ba4:	00178793          	addi	a5,a5,1
   11ba8:	0136a023          	sw	s3,0(a3)
   11bac:	0196a223          	sw	s9,4(a3)
   11bb0:	08e12a23          	sw	a4,148(sp)
   11bb4:	08f12823          	sw	a5,144(sp)
   11bb8:	00868693          	addi	a3,a3,8
   11bbc:	fcfd5ee3          	ble	a5,s10,11b98 <_vfprintf_r+0xfa4>
   11bc0:	000a8513          	mv	a0,s5
   11bc4:	00090593          	mv	a1,s2
   11bc8:	08c10613          	addi	a2,sp,140
   11bcc:	40d040ef          	jal	167d8 <__sprint_r>
   11bd0:	f6051463          	bnez	a0,11338 <_vfprintf_r+0x744>
   11bd4:	09412703          	lw	a4,148(sp)
   11bd8:	09012783          	lw	a5,144(sp)
   11bdc:	000b8693          	mv	a3,s7
   11be0:	fb9ff06f          	j	11b98 <_vfprintf_r+0xfa4>
   11be4:	04812883          	lw	a7,72(sp)
   11be8:	fff88413          	addi	s0,a7,-1
   11bec:	c08052e3          	blez	s0,117f0 <_vfprintf_r+0xbfc>
   11bf0:	0001b8b7          	lui	a7,0x1b
   11bf4:	01000c93          	li	s9,16
   11bf8:	e1c88993          	addi	s3,a7,-484 # 1ae1c <zeroes.3945>
   11bfc:	00700d13          	li	s10,7
   11c00:	008cc863          	blt	s9,s0,11c10 <_vfprintf_r+0x101c>
   11c04:	e59ff06f          	j	11a5c <_vfprintf_r+0xe68>
   11c08:	ff040413          	addi	s0,s0,-16
   11c0c:	e48cd8e3          	ble	s0,s9,11a5c <_vfprintf_r+0xe68>
   11c10:	01070713          	addi	a4,a4,16
   11c14:	00178793          	addi	a5,a5,1
   11c18:	0136a023          	sw	s3,0(a3)
   11c1c:	0196a223          	sw	s9,4(a3)
   11c20:	08e12a23          	sw	a4,148(sp)
   11c24:	08f12823          	sw	a5,144(sp)
   11c28:	00868693          	addi	a3,a3,8
   11c2c:	fcfd5ee3          	ble	a5,s10,11c08 <_vfprintf_r+0x1014>
   11c30:	000a8513          	mv	a0,s5
   11c34:	00090593          	mv	a1,s2
   11c38:	08c10613          	addi	a2,sp,140
   11c3c:	39d040ef          	jal	167d8 <__sprint_r>
   11c40:	ee051c63          	bnez	a0,11338 <_vfprintf_r+0x744>
   11c44:	09412703          	lw	a4,148(sp)
   11c48:	09012783          	lw	a5,144(sp)
   11c4c:	000b8693          	mv	a3,s7
   11c50:	fb9ff06f          	j	11c08 <_vfprintf_r+0x1014>
   11c54:	01fa1593          	slli	a1,s4,0x1f
   11c58:	b805d0e3          	bgez	a1,117d8 <_vfprintf_r+0xbe4>
   11c5c:	b0dff06f          	j	11768 <_vfprintf_r+0xb74>
   11c60:	000a8513          	mv	a0,s5
   11c64:	00090593          	mv	a1,s2
   11c68:	08c10613          	addi	a2,sp,140
   11c6c:	36d040ef          	jal	167d8 <__sprint_r>
   11c70:	ec051463          	bnez	a0,11338 <_vfprintf_r+0x744>
   11c74:	09412703          	lw	a4,148(sp)
   11c78:	09012783          	lw	a5,144(sp)
   11c7c:	000b8693          	mv	a3,s7
   11c80:	b05ff06f          	j	11784 <_vfprintf_r+0xb90>
   11c84:	000a8513          	mv	a0,s5
   11c88:	00090593          	mv	a1,s2
   11c8c:	08c10613          	addi	a2,sp,140
   11c90:	349040ef          	jal	167d8 <__sprint_r>
   11c94:	ea051263          	bnez	a0,11338 <_vfprintf_r+0x744>
   11c98:	09412703          	lw	a4,148(sp)
   11c9c:	09012783          	lw	a5,144(sp)
   11ca0:	000b8693          	mv	a3,s7
   11ca4:	b11ff06f          	j	117b4 <_vfprintf_r+0xbc0>
   11ca8:	0c010613          	addi	a2,sp,192
   11cac:	bbdff06f          	j	11868 <_vfprintf_r+0xc74>
   11cb0:	02d00793          	li	a5,45
   11cb4:	06f107a3          	sb	a5,111(sp)
   11cb8:	40e00733          	neg	a4,a4
   11cbc:	05b12023          	sw	s11,64(sp)
   11cc0:	02d00513          	li	a0,45
   11cc4:	00100793          	li	a5,1
   11cc8:	980ff06f          	j	10e48 <_vfprintf_r+0x254>
   11ccc:	03813507          	fld	fa0,56(sp)
   11cd0:	00d12a23          	sw	a3,20(sp)
   11cd4:	6a4040ef          	jal	16378 <__fpclassifyd>
   11cd8:	01412683          	lw	a3,20(sp)
   11cdc:	36050c63          	beqz	a0,12054 <_vfprintf_r+0x1460>
   11ce0:	fff00793          	li	a5,-1
   11ce4:	fdfcfd13          	andi	s10,s9,-33
   11ce8:	70fd8663          	beq	s11,a5,123f4 <_vfprintf_r+0x1800>
   11cec:	04700793          	li	a5,71
   11cf0:	6efd0c63          	beq	s10,a5,123e8 <_vfprintf_r+0x17f4>
   11cf4:	03c12783          	lw	a5,60(sp)
   11cf8:	100a6493          	ori	s1,s4,256
   11cfc:	03813487          	fld	fs1,56(sp)
   11d00:	02012a23          	sw	zero,52(sp)
   11d04:	6e07cc63          	bltz	a5,123fc <_vfprintf_r+0x1808>
   11d08:	06600793          	li	a5,102
   11d0c:	46fc8c63          	beq	s9,a5,12184 <_vfprintf_r+0x1590>
   11d10:	04600793          	li	a5,70
   11d14:	46fc8863          	beq	s9,a5,12184 <_vfprintf_r+0x1590>
   11d18:	fbbd0993          	addi	s3,s10,-69
   11d1c:	0019b993          	seqz	s3,s3
   11d20:	08410793          	addi	a5,sp,132
   11d24:	013d89b3          	add	s3,s11,s3
   11d28:	22948653          	fmv.d	fa2,fs1
   11d2c:	00f12023          	sw	a5,0(sp)
   11d30:	000a8513          	mv	a0,s5
   11d34:	00098793          	mv	a5,s3
   11d38:	00200713          	li	a4,2
   11d3c:	07410813          	addi	a6,sp,116
   11d40:	07810893          	addi	a7,sp,120
   11d44:	00d12a23          	sw	a3,20(sp)
   11d48:	5b1000ef          	jal	12af8 <_dtoa_r>
   11d4c:	06700793          	li	a5,103
   11d50:	00050413          	mv	s0,a0
   11d54:	01412683          	lw	a3,20(sp)
   11d58:	00fc8663          	beq	s9,a5,11d64 <_vfprintf_r+0x1170>
   11d5c:	04700793          	li	a5,71
   11d60:	44fc9c63          	bne	s9,a5,121b8 <_vfprintf_r+0x15c4>
   11d64:	01fa1713          	slli	a4,s4,0x1f
   11d68:	01340633          	add	a2,s0,s3
   11d6c:	6e075663          	bgez	a4,12458 <_vfprintf_r+0x1864>
   11d70:	a284a753          	feq.d	a4,fs1,fs0
   11d74:	00060793          	mv	a5,a2
   11d78:	02071263          	bnez	a4,11d9c <_vfprintf_r+0x11a8>
   11d7c:	08412783          	lw	a5,132(sp)
   11d80:	00c7fe63          	bleu	a2,a5,11d9c <_vfprintf_r+0x11a8>
   11d84:	03000593          	li	a1,48
   11d88:	00178713          	addi	a4,a5,1
   11d8c:	08e12223          	sw	a4,132(sp)
   11d90:	00b78023          	sb	a1,0(a5)
   11d94:	08412783          	lw	a5,132(sp)
   11d98:	fec7e8e3          	bltu	a5,a2,11d88 <_vfprintf_r+0x1194>
   11d9c:	408787b3          	sub	a5,a5,s0
   11da0:	04f12423          	sw	a5,72(sp)
   11da4:	04700793          	li	a5,71
   11da8:	56fd0063          	beq	s10,a5,12308 <_vfprintf_r+0x1714>
   11dac:	06500793          	li	a5,101
   11db0:	7797dc63          	ble	s9,a5,12528 <_vfprintf_r+0x1934>
   11db4:	06600793          	li	a5,102
   11db8:	68fc8063          	beq	s9,a5,12438 <_vfprintf_r+0x1844>
   11dbc:	07412783          	lw	a5,116(sp)
   11dc0:	02f12423          	sw	a5,40(sp)
   11dc4:	04812283          	lw	t0,72(sp)
   11dc8:	02812703          	lw	a4,40(sp)
   11dcc:	64574063          	blt	a4,t0,1240c <_vfprintf_r+0x1818>
   11dd0:	01fa1793          	slli	a5,s4,0x1f
   11dd4:	4e07da63          	bgez	a5,122c8 <_vfprintf_r+0x16d4>
   11dd8:	02812883          	lw	a7,40(sp)
   11ddc:	00188893          	addi	a7,a7,1
   11de0:	fff8c993          	not	s3,a7
   11de4:	41f9d993          	srai	s3,s3,0x1f
   11de8:	0138f9b3          	and	s3,a7,s3
   11dec:	03112423          	sw	a7,40(sp)
   11df0:	03312223          	sw	s3,36(sp)
   11df4:	03412283          	lw	t0,52(sp)
   11df8:	4e028a63          	beqz	t0,122ec <_vfprintf_r+0x16f8>
   11dfc:	02d00793          	li	a5,45
   11e00:	06f107a3          	sb	a5,111(sp)
   11e04:	00048a13          	mv	s4,s1
   11e08:	04012023          	sw	zero,64(sp)
   11e0c:	8a0ff06f          	j	10eac <_vfprintf_r+0x2b8>
   11e10:	02c12283          	lw	t0,44(sp)
   11e14:	0007a703          	lw	a4,0(a5)
   11e18:	00428293          	addi	t0,t0,4
   11e1c:	02512623          	sw	t0,44(sp)
   11e20:	e34ff06f          	j	11454 <_vfprintf_r+0x860>
   11e24:	02c12283          	lw	t0,44(sp)
   11e28:	0007a703          	lw	a4,0(a5)
   11e2c:	00428293          	addi	t0,t0,4
   11e30:	02512623          	sw	t0,44(sp)
   11e34:	e64ff06f          	j	11498 <_vfprintf_r+0x8a4>
   11e38:	00870733          	add	a4,a4,s0
   11e3c:	00178793          	addi	a5,a5,1
   11e40:	00700613          	li	a2,7
   11e44:	0136a023          	sw	s3,0(a3)
   11e48:	0086a223          	sw	s0,4(a3)
   11e4c:	08e12a23          	sw	a4,148(sp)
   11e50:	08f12823          	sw	a5,144(sp)
   11e54:	a6f65c63          	ble	a5,a2,110cc <_vfprintf_r+0x4d8>
   11e58:	9c1ff06f          	j	11818 <_vfprintf_r+0xc24>
   11e5c:	0007a703          	lw	a4,0(a5)
   11e60:	00100793          	li	a5,1
   11e64:	fd9fe06f          	j	10e3c <_vfprintf_r+0x248>
   11e68:	0007a703          	lw	a4,0(a5)
   11e6c:	00000793          	li	a5,0
   11e70:	fcdfe06f          	j	10e3c <_vfprintf_r+0x248>
   11e74:	00ec8733          	add	a4,s9,a4
   11e78:	00178793          	addi	a5,a5,1
   11e7c:	00700613          	li	a2,7
   11e80:	0086a023          	sw	s0,0(a3)
   11e84:	0196a223          	sw	s9,4(a3)
   11e88:	08e12a23          	sw	a4,148(sp)
   11e8c:	08f12823          	sw	a5,144(sp)
   11e90:	00868693          	addi	a3,a3,8
   11e94:	4ef64263          	blt	a2,a5,12378 <_vfprintf_r+0x1784>
   11e98:	05012283          	lw	t0,80(sp)
   11e9c:	00178793          	addi	a5,a5,1
   11ea0:	00700613          	li	a2,7
   11ea4:	00570733          	add	a4,a4,t0
   11ea8:	04412283          	lw	t0,68(sp)
   11eac:	01940433          	add	s0,s0,s9
   11eb0:	08e12a23          	sw	a4,148(sp)
   11eb4:	0056a023          	sw	t0,0(a3)
   11eb8:	05012283          	lw	t0,80(sp)
   11ebc:	08f12823          	sw	a5,144(sp)
   11ec0:	00868693          	addi	a3,a3,8
   11ec4:	fe56ae23          	sw	t0,-4(a3)
   11ec8:	48f64263          	blt	a2,a5,1234c <_vfprintf_r+0x1758>
   11ecc:	04812883          	lw	a7,72(sp)
   11ed0:	00178793          	addi	a5,a5,1
   11ed4:	00700613          	li	a2,7
   11ed8:	41988cb3          	sub	s9,a7,s9
   11edc:	00ec8733          	add	a4,s9,a4
   11ee0:	0086a023          	sw	s0,0(a3)
   11ee4:	0196a223          	sw	s9,4(a3)
   11ee8:	08e12a23          	sw	a4,148(sp)
   11eec:	08f12823          	sw	a5,144(sp)
   11ef0:	9cf65e63          	ble	a5,a2,110cc <_vfprintf_r+0x4d8>
   11ef4:	925ff06f          	j	11818 <_vfprintf_r+0xc24>
   11ef8:	00870733          	add	a4,a4,s0
   11efc:	00178793          	addi	a5,a5,1
   11f00:	00700613          	li	a2,7
   11f04:	0136a023          	sw	s3,0(a3)
   11f08:	0086a223          	sw	s0,4(a3)
   11f0c:	08e12a23          	sw	a4,148(sp)
   11f10:	08f12823          	sw	a5,144(sp)
   11f14:	00868693          	addi	a3,a3,8
   11f18:	02f65063          	ble	a5,a2,11f38 <_vfprintf_r+0x1344>
   11f1c:	000a8513          	mv	a0,s5
   11f20:	00090593          	mv	a1,s2
   11f24:	08c10613          	addi	a2,sp,140
   11f28:	0b1040ef          	jal	167d8 <__sprint_r>
   11f2c:	c0051663          	bnez	a0,11338 <_vfprintf_r+0x744>
   11f30:	09412703          	lw	a4,148(sp)
   11f34:	000b8693          	mv	a3,s7
   11f38:	01fa1893          	slli	a7,s4,0x1f
   11f3c:	9808da63          	bgez	a7,110d0 <_vfprintf_r+0x4dc>
   11f40:	05012283          	lw	t0,80(sp)
   11f44:	09012783          	lw	a5,144(sp)
   11f48:	00570733          	add	a4,a4,t0
   11f4c:	04412283          	lw	t0,68(sp)
   11f50:	00178793          	addi	a5,a5,1
   11f54:	0056a023          	sw	t0,0(a3)
   11f58:	05012283          	lw	t0,80(sp)
   11f5c:	8a9ff06f          	j	11804 <_vfprintf_r+0xc10>
   11f60:	000a8513          	mv	a0,s5
   11f64:	00090593          	mv	a1,s2
   11f68:	08c10613          	addi	a2,sp,140
   11f6c:	06d040ef          	jal	167d8 <__sprint_r>
   11f70:	bc051463          	bnez	a0,11338 <_vfprintf_r+0x744>
   11f74:	09412703          	lw	a4,148(sp)
   11f78:	000b8693          	mv	a3,s7
   11f7c:	94dff06f          	j	118c8 <_vfprintf_r+0xcd4>
   11f80:	0001b637          	lui	a2,0x1b
   11f84:	2a860613          	addi	a2,a2,680 # 1b2a8 <__clz_tab+0x168>
   11f88:	00c6a023          	sw	a2,0(a3)
   11f8c:	00100613          	li	a2,1
   11f90:	00c6a223          	sw	a2,4(a3)
   11f94:	00170713          	addi	a4,a4,1
   11f98:	00178793          	addi	a5,a5,1
   11f9c:	00700613          	li	a2,7
   11fa0:	08e12a23          	sw	a4,148(sp)
   11fa4:	08f12823          	sw	a5,144(sp)
   11fa8:	00868693          	addi	a3,a3,8
   11fac:	10f64063          	blt	a2,a5,120ac <_vfprintf_r+0x14b8>
   11fb0:	0e0c8263          	beqz	s9,12094 <_vfprintf_r+0x14a0>
   11fb4:	05012283          	lw	t0,80(sp)
   11fb8:	09012783          	lw	a5,144(sp)
   11fbc:	00700613          	li	a2,7
   11fc0:	00570733          	add	a4,a4,t0
   11fc4:	04412283          	lw	t0,68(sp)
   11fc8:	00178793          	addi	a5,a5,1
   11fcc:	08e12a23          	sw	a4,148(sp)
   11fd0:	0056a023          	sw	t0,0(a3)
   11fd4:	05012283          	lw	t0,80(sp)
   11fd8:	08f12823          	sw	a5,144(sp)
   11fdc:	00868693          	addi	a3,a3,8
   11fe0:	fe56ae23          	sw	t0,-4(a3)
   11fe4:	3cf64c63          	blt	a2,a5,123bc <_vfprintf_r+0x17c8>
   11fe8:	41900cb3          	neg	s9,s9
   11fec:	15905e63          	blez	s9,12148 <_vfprintf_r+0x1554>
   11ff0:	0001b8b7          	lui	a7,0x1b
   11ff4:	01000d13          	li	s10,16
   11ff8:	e1c88993          	addi	s3,a7,-484 # 1ae1c <zeroes.3945>
   11ffc:	00700d93          	li	s11,7
   12000:	019d4863          	blt	s10,s9,12010 <_vfprintf_r+0x141c>
   12004:	1000006f          	j	12104 <_vfprintf_r+0x1510>
   12008:	ff0c8c93          	addi	s9,s9,-16
   1200c:	0f9d5c63          	ble	s9,s10,12104 <_vfprintf_r+0x1510>
   12010:	01070713          	addi	a4,a4,16
   12014:	00178793          	addi	a5,a5,1
   12018:	0136a023          	sw	s3,0(a3)
   1201c:	01a6a223          	sw	s10,4(a3)
   12020:	08e12a23          	sw	a4,148(sp)
   12024:	08f12823          	sw	a5,144(sp)
   12028:	00868693          	addi	a3,a3,8
   1202c:	fcfddee3          	ble	a5,s11,12008 <_vfprintf_r+0x1414>
   12030:	000a8513          	mv	a0,s5
   12034:	00090593          	mv	a1,s2
   12038:	08c10613          	addi	a2,sp,140
   1203c:	79c040ef          	jal	167d8 <__sprint_r>
   12040:	ae051c63          	bnez	a0,11338 <_vfprintf_r+0x744>
   12044:	09412703          	lw	a4,148(sp)
   12048:	09012783          	lw	a5,144(sp)
   1204c:	000b8693          	mv	a3,s7
   12050:	fb9ff06f          	j	12008 <_vfprintf_r+0x1414>
   12054:	04700793          	li	a5,71
   12058:	2b97c263          	blt	a5,s9,122fc <_vfprintf_r+0x1708>
   1205c:	0001b437          	lui	s0,0x1b
   12060:	27040413          	addi	s0,s0,624 # 1b270 <__clz_tab+0x130>
   12064:	00300713          	li	a4,3
   12068:	02e12223          	sw	a4,36(sp)
   1206c:	f7fa7a13          	andi	s4,s4,-129
   12070:	06f14503          	lbu	a0,111(sp)
   12074:	02e12423          	sw	a4,40(sp)
   12078:	04012023          	sw	zero,64(sp)
   1207c:	e2dfe06f          	j	10ea8 <_vfprintf_r+0x2b4>
   12080:	03b12423          	sw	s11,40(sp)
   12084:	db0ff06f          	j	11634 <_vfprintf_r+0xa40>
   12088:	0001b437          	lui	s0,0x1b
   1208c:	26840413          	addi	s0,s0,616 # 1b268 <__clz_tab+0x128>
   12090:	d4cff06f          	j	115dc <_vfprintf_r+0x9e8>
   12094:	04812883          	lw	a7,72(sp)
   12098:	f0089ee3          	bnez	a7,11fb4 <_vfprintf_r+0x13c0>
   1209c:	01fa1293          	slli	t0,s4,0x1f
   120a0:	0002c463          	bltz	t0,120a8 <_vfprintf_r+0x14b4>
   120a4:	82cff06f          	j	110d0 <_vfprintf_r+0x4dc>
   120a8:	f0dff06f          	j	11fb4 <_vfprintf_r+0x13c0>
   120ac:	000a8513          	mv	a0,s5
   120b0:	00090593          	mv	a1,s2
   120b4:	08c10613          	addi	a2,sp,140
   120b8:	720040ef          	jal	167d8 <__sprint_r>
   120bc:	a6051e63          	bnez	a0,11338 <_vfprintf_r+0x744>
   120c0:	07412c83          	lw	s9,116(sp)
   120c4:	09412703          	lw	a4,148(sp)
   120c8:	000b8693          	mv	a3,s7
   120cc:	ee0c94e3          	bnez	s9,11fb4 <_vfprintf_r+0x13c0>
   120d0:	fc5ff06f          	j	12094 <_vfprintf_r+0x14a0>
   120d4:	000a8513          	mv	a0,s5
   120d8:	00090593          	mv	a1,s2
   120dc:	08c10613          	addi	a2,sp,140
   120e0:	6f8040ef          	jal	167d8 <__sprint_r>
   120e4:	a4051a63          	bnez	a0,11338 <_vfprintf_r+0x744>
   120e8:	09412703          	lw	a4,148(sp)
   120ec:	000b8693          	mv	a3,s7
   120f0:	821ff06f          	j	11910 <_vfprintf_r+0xd1c>
   120f4:	01c12783          	lw	a5,28(sp)
   120f8:	408787b3          	sub	a5,a5,s0
   120fc:	02f12423          	sw	a5,40(sp)
   12100:	d99fe06f          	j	10e98 <_vfprintf_r+0x2a4>
   12104:	01970733          	add	a4,a4,s9
   12108:	00178793          	addi	a5,a5,1
   1210c:	00700613          	li	a2,7
   12110:	0136a023          	sw	s3,0(a3)
   12114:	0196a223          	sw	s9,4(a3)
   12118:	08e12a23          	sw	a4,148(sp)
   1211c:	08f12823          	sw	a5,144(sp)
   12120:	00868693          	addi	a3,a3,8
   12124:	02f65263          	ble	a5,a2,12148 <_vfprintf_r+0x1554>
   12128:	000a8513          	mv	a0,s5
   1212c:	00090593          	mv	a1,s2
   12130:	08c10613          	addi	a2,sp,140
   12134:	6a4040ef          	jal	167d8 <__sprint_r>
   12138:	a0051063          	bnez	a0,11338 <_vfprintf_r+0x744>
   1213c:	09412703          	lw	a4,148(sp)
   12140:	09012783          	lw	a5,144(sp)
   12144:	000b8693          	mv	a3,s7
   12148:	04812883          	lw	a7,72(sp)
   1214c:	f61fe06f          	j	110ac <_vfprintf_r+0x4b8>
   12150:	00d12a23          	sw	a3,20(sp)
   12154:	50c040ef          	jal	16660 <strlen>
   12158:	02a12423          	sw	a0,40(sp)
   1215c:	02812783          	lw	a5,40(sp)
   12160:	fff54993          	not	s3,a0
   12164:	41f9d993          	srai	s3,s3,0x1f
   12168:	0137f9b3          	and	s3,a5,s3
   1216c:	06f14503          	lbu	a0,111(sp)
   12170:	03312223          	sw	s3,36(sp)
   12174:	03a12623          	sw	s10,44(sp)
   12178:	04012023          	sw	zero,64(sp)
   1217c:	01412683          	lw	a3,20(sp)
   12180:	d29fe06f          	j	10ea8 <_vfprintf_r+0x2b4>
   12184:	08410793          	addi	a5,sp,132
   12188:	22948653          	fmv.d	fa2,fs1
   1218c:	00f12023          	sw	a5,0(sp)
   12190:	000a8513          	mv	a0,s5
   12194:	00300713          	li	a4,3
   12198:	000d8793          	mv	a5,s11
   1219c:	07410813          	addi	a6,sp,116
   121a0:	07810893          	addi	a7,sp,120
   121a4:	00d12a23          	sw	a3,20(sp)
   121a8:	151000ef          	jal	12af8 <_dtoa_r>
   121ac:	01412683          	lw	a3,20(sp)
   121b0:	00050413          	mv	s0,a0
   121b4:	000d8993          	mv	s3,s11
   121b8:	04600793          	li	a5,70
   121bc:	01340633          	add	a2,s0,s3
   121c0:	bafd18e3          	bne	s10,a5,11d70 <_vfprintf_r+0x117c>
   121c4:	00044703          	lbu	a4,0(s0)
   121c8:	03000793          	li	a5,48
   121cc:	28f70a63          	beq	a4,a5,12460 <_vfprintf_r+0x186c>
   121d0:	07412983          	lw	s3,116(sp)
   121d4:	01360633          	add	a2,a2,s3
   121d8:	b99ff06f          	j	11d70 <_vfprintf_r+0x117c>
   121dc:	00600713          	li	a4,6
   121e0:	000d8793          	mv	a5,s11
   121e4:	01b77463          	bleu	s11,a4,121ec <_vfprintf_r+0x15f8>
   121e8:	00070793          	mv	a5,a4
   121ec:	fff7c993          	not	s3,a5
   121f0:	41f9d993          	srai	s3,s3,0x1f
   121f4:	0137f9b3          	and	s3,a5,s3
   121f8:	0001b437          	lui	s0,0x1b
   121fc:	02f12423          	sw	a5,40(sp)
   12200:	03312223          	sw	s3,36(sp)
   12204:	03a12623          	sw	s10,44(sp)
   12208:	2a040413          	addi	s0,s0,672 # 1b2a0 <__clz_tab+0x160>
   1220c:	9bcff06f          	j	113c8 <_vfprintf_r+0x7d4>
   12210:	ffec8c93          	addi	s9,s9,-2
   12214:	fff78793          	addi	a5,a5,-1
   12218:	06f12a23          	sw	a5,116(sp)
   1221c:	07910e23          	sb	s9,124(sp)
   12220:	2807c263          	bltz	a5,124a4 <_vfprintf_r+0x18b0>
   12224:	02b00713          	li	a4,43
   12228:	06e10ea3          	sb	a4,125(sp)
   1222c:	00900593          	li	a1,9
   12230:	24f5d663          	ble	a5,a1,1247c <_vfprintf_r+0x1888>
   12234:	08b10513          	addi	a0,sp,139
   12238:	00050713          	mv	a4,a0
   1223c:	00a00813          	li	a6,10
   12240:	0307e633          	rem	a2,a5,a6
   12244:	fff70713          	addi	a4,a4,-1
   12248:	0307c7b3          	div	a5,a5,a6
   1224c:	03060613          	addi	a2,a2,48
   12250:	00c70023          	sb	a2,0(a4)
   12254:	fef5c6e3          	blt	a1,a5,12240 <_vfprintf_r+0x164c>
   12258:	03078793          	addi	a5,a5,48
   1225c:	0ff7f793          	andi	a5,a5,255
   12260:	fff70613          	addi	a2,a4,-1
   12264:	fef70fa3          	sb	a5,-1(a4)
   12268:	2ca67463          	bleu	a0,a2,12530 <_vfprintf_r+0x193c>
   1226c:	07e10593          	addi	a1,sp,126
   12270:	0080006f          	j	12278 <_vfprintf_r+0x1684>
   12274:	00064783          	lbu	a5,0(a2)
   12278:	00158593          	addi	a1,a1,1
   1227c:	00160613          	addi	a2,a2,1
   12280:	fef58fa3          	sb	a5,-1(a1)
   12284:	fea618e3          	bne	a2,a0,12274 <_vfprintf_r+0x1680>
   12288:	08c10793          	addi	a5,sp,140
   1228c:	40e78733          	sub	a4,a5,a4
   12290:	07e10593          	addi	a1,sp,126
   12294:	00e58733          	add	a4,a1,a4
   12298:	07c10793          	addi	a5,sp,124
   1229c:	40f707b3          	sub	a5,a4,a5
   122a0:	04812703          	lw	a4,72(sp)
   122a4:	04812883          	lw	a7,72(sp)
   122a8:	04f12a23          	sw	a5,84(sp)
   122ac:	00f70733          	add	a4,a4,a5
   122b0:	00100793          	li	a5,1
   122b4:	02e12423          	sw	a4,40(sp)
   122b8:	2517dc63          	ble	a7,a5,12510 <_vfprintf_r+0x191c>
   122bc:	02812703          	lw	a4,40(sp)
   122c0:	00170713          	addi	a4,a4,1
   122c4:	02e12423          	sw	a4,40(sp)
   122c8:	fff74993          	not	s3,a4
   122cc:	41f9d993          	srai	s3,s3,0x1f
   122d0:	013779b3          	and	s3,a4,s3
   122d4:	03312223          	sw	s3,36(sp)
   122d8:	b1dff06f          	j	11df4 <_vfprintf_r+0x1200>
   122dc:	02d00793          	li	a5,45
   122e0:	06f107a3          	sb	a5,111(sp)
   122e4:	02d00513          	li	a0,45
   122e8:	ae4ff06f          	j	115cc <_vfprintf_r+0x9d8>
   122ec:	06f14503          	lbu	a0,111(sp)
   122f0:	00048a13          	mv	s4,s1
   122f4:	04012023          	sw	zero,64(sp)
   122f8:	bb1fe06f          	j	10ea8 <_vfprintf_r+0x2b4>
   122fc:	0001b437          	lui	s0,0x1b
   12300:	27440413          	addi	s0,s0,628 # 1b274 <__clz_tab+0x134>
   12304:	d61ff06f          	j	12064 <_vfprintf_r+0x1470>
   12308:	07412783          	lw	a5,116(sp)
   1230c:	ffd00713          	li	a4,-3
   12310:	f0e7c0e3          	blt	a5,a4,12210 <_vfprintf_r+0x161c>
   12314:	eefdcee3          	blt	s11,a5,12210 <_vfprintf_r+0x161c>
   12318:	02f12423          	sw	a5,40(sp)
   1231c:	06700c93          	li	s9,103
   12320:	aa5ff06f          	j	11dc4 <_vfprintf_r+0x11d0>
   12324:	000a8513          	mv	a0,s5
   12328:	00090593          	mv	a1,s2
   1232c:	08c10613          	addi	a2,sp,140
   12330:	4a8040ef          	jal	167d8 <__sprint_r>
   12334:	00050463          	beqz	a0,1233c <_vfprintf_r+0x1748>
   12338:	800ff06f          	j	11338 <_vfprintf_r+0x744>
   1233c:	07412c83          	lw	s9,116(sp)
   12340:	09412703          	lw	a4,148(sp)
   12344:	000b8693          	mv	a3,s7
   12348:	829ff06f          	j	11b70 <_vfprintf_r+0xf7c>
   1234c:	000a8513          	mv	a0,s5
   12350:	00090593          	mv	a1,s2
   12354:	08c10613          	addi	a2,sp,140
   12358:	480040ef          	jal	167d8 <__sprint_r>
   1235c:	00050463          	beqz	a0,12364 <_vfprintf_r+0x1770>
   12360:	fd9fe06f          	j	11338 <_vfprintf_r+0x744>
   12364:	07412c83          	lw	s9,116(sp)
   12368:	09412703          	lw	a4,148(sp)
   1236c:	09012783          	lw	a5,144(sp)
   12370:	000b8693          	mv	a3,s7
   12374:	b59ff06f          	j	11ecc <_vfprintf_r+0x12d8>
   12378:	000a8513          	mv	a0,s5
   1237c:	00090593          	mv	a1,s2
   12380:	08c10613          	addi	a2,sp,140
   12384:	454040ef          	jal	167d8 <__sprint_r>
   12388:	00050463          	beqz	a0,12390 <_vfprintf_r+0x179c>
   1238c:	fadfe06f          	j	11338 <_vfprintf_r+0x744>
   12390:	07412c83          	lw	s9,116(sp)
   12394:	09412703          	lw	a4,148(sp)
   12398:	09012783          	lw	a5,144(sp)
   1239c:	000b8693          	mv	a3,s7
   123a0:	af9ff06f          	j	11e98 <_vfprintf_r+0x12a4>
   123a4:	03b12223          	sw	s11,36(sp)
   123a8:	06f14503          	lbu	a0,111(sp)
   123ac:	03b12423          	sw	s11,40(sp)
   123b0:	03a12623          	sw	s10,44(sp)
   123b4:	04012023          	sw	zero,64(sp)
   123b8:	af1fe06f          	j	10ea8 <_vfprintf_r+0x2b4>
   123bc:	000a8513          	mv	a0,s5
   123c0:	00090593          	mv	a1,s2
   123c4:	08c10613          	addi	a2,sp,140
   123c8:	410040ef          	jal	167d8 <__sprint_r>
   123cc:	00050463          	beqz	a0,123d4 <_vfprintf_r+0x17e0>
   123d0:	f69fe06f          	j	11338 <_vfprintf_r+0x744>
   123d4:	07412c83          	lw	s9,116(sp)
   123d8:	09412703          	lw	a4,148(sp)
   123dc:	09012783          	lw	a5,144(sp)
   123e0:	000b8693          	mv	a3,s7
   123e4:	c05ff06f          	j	11fe8 <_vfprintf_r+0x13f4>
   123e8:	900d96e3          	bnez	s11,11cf4 <_vfprintf_r+0x1100>
   123ec:	00040d93          	mv	s11,s0
   123f0:	905ff06f          	j	11cf4 <_vfprintf_r+0x1100>
   123f4:	00600d93          	li	s11,6
   123f8:	8fdff06f          	j	11cf4 <_vfprintf_r+0x1100>
   123fc:	02d00293          	li	t0,45
   12400:	229494d3          	fneg.d	fs1,fs1
   12404:	02512a23          	sw	t0,52(sp)
   12408:	901ff06f          	j	11d08 <_vfprintf_r+0x1114>
   1240c:	02812283          	lw	t0,40(sp)
   12410:	00100793          	li	a5,1
   12414:	10505463          	blez	t0,1251c <_vfprintf_r+0x1928>
   12418:	04812703          	lw	a4,72(sp)
   1241c:	00e787b3          	add	a5,a5,a4
   12420:	fff7c993          	not	s3,a5
   12424:	41f9d993          	srai	s3,s3,0x1f
   12428:	0137f9b3          	and	s3,a5,s3
   1242c:	02f12423          	sw	a5,40(sp)
   12430:	03312223          	sw	s3,36(sp)
   12434:	9c1ff06f          	j	11df4 <_vfprintf_r+0x1200>
   12438:	07412883          	lw	a7,116(sp)
   1243c:	03112423          	sw	a7,40(sp)
   12440:	07105a63          	blez	a7,124b4 <_vfprintf_r+0x18c0>
   12444:	040d9863          	bnez	s11,12494 <_vfprintf_r+0x18a0>
   12448:	01fa1293          	slli	t0,s4,0x1f
   1244c:	0402c463          	bltz	t0,12494 <_vfprintf_r+0x18a0>
   12450:	03112223          	sw	a7,36(sp)
   12454:	9a1ff06f          	j	11df4 <_vfprintf_r+0x1200>
   12458:	08412783          	lw	a5,132(sp)
   1245c:	941ff06f          	j	11d9c <_vfprintf_r+0x11a8>
   12460:	a284a7d3          	feq.d	a5,fs1,fs0
   12464:	d60796e3          	bnez	a5,121d0 <_vfprintf_r+0x15dc>
   12468:	00100793          	li	a5,1
   1246c:	413789b3          	sub	s3,a5,s3
   12470:	07312a23          	sw	s3,116(sp)
   12474:	01360633          	add	a2,a2,s3
   12478:	8f9ff06f          	j	11d70 <_vfprintf_r+0x117c>
   1247c:	03000713          	li	a4,48
   12480:	03078793          	addi	a5,a5,48
   12484:	06e10f23          	sb	a4,126(sp)
   12488:	06f10fa3          	sb	a5,127(sp)
   1248c:	08010713          	addi	a4,sp,128
   12490:	e09ff06f          	j	12298 <_vfprintf_r+0x16a4>
   12494:	02812703          	lw	a4,40(sp)
   12498:	001d8793          	addi	a5,s11,1
   1249c:	00f70733          	add	a4,a4,a5
   124a0:	e25ff06f          	j	122c4 <_vfprintf_r+0x16d0>
   124a4:	02d00713          	li	a4,45
   124a8:	40f007b3          	neg	a5,a5
   124ac:	06e10ea3          	sb	a4,125(sp)
   124b0:	d7dff06f          	j	1222c <_vfprintf_r+0x1638>
   124b4:	000d9c63          	bnez	s11,124cc <_vfprintf_r+0x18d8>
   124b8:	00100793          	li	a5,1
   124bc:	01fa1893          	slli	a7,s4,0x1f
   124c0:	02f12223          	sw	a5,36(sp)
   124c4:	02f12423          	sw	a5,40(sp)
   124c8:	9208d6e3          	bgez	a7,11df4 <_vfprintf_r+0x1200>
   124cc:	002d8d93          	addi	s11,s11,2
   124d0:	fffdc993          	not	s3,s11
   124d4:	41f9d993          	srai	s3,s3,0x1f
   124d8:	013df9b3          	and	s3,s11,s3
   124dc:	03b12423          	sw	s11,40(sp)
   124e0:	03312223          	sw	s3,36(sp)
   124e4:	911ff06f          	j	11df4 <_vfprintf_r+0x1200>
   124e8:	fff00413          	li	s0,-1
   124ec:	db1fe06f          	j	1129c <_vfprintf_r+0x6a8>
   124f0:	02c12283          	lw	t0,44(sp)
   124f4:	0002ad83          	lw	s11,0(t0)
   124f8:	00428293          	addi	t0,t0,4
   124fc:	02512623          	sw	t0,44(sp)
   12500:	000dc463          	bltz	s11,12508 <_vfprintf_r+0x1914>
   12504:	8a1fe06f          	j	10da4 <_vfprintf_r+0x1b0>
   12508:	fff00d93          	li	s11,-1
   1250c:	899fe06f          	j	10da4 <_vfprintf_r+0x1b0>
   12510:	01fa1293          	slli	t0,s4,0x1f
   12514:	da02dae3          	bgez	t0,122c8 <_vfprintf_r+0x16d4>
   12518:	da5ff06f          	j	122bc <_vfprintf_r+0x16c8>
   1251c:	00200793          	li	a5,2
   12520:	405787b3          	sub	a5,a5,t0
   12524:	ef5ff06f          	j	12418 <_vfprintf_r+0x1824>
   12528:	07412783          	lw	a5,116(sp)
   1252c:	ce9ff06f          	j	12214 <_vfprintf_r+0x1620>
   12530:	07e10713          	addi	a4,sp,126
   12534:	d65ff06f          	j	12298 <_vfprintf_r+0x16a4>

00012538 <vfprintf>:
   12538:	00050713          	mv	a4,a0
   1253c:	8081a503          	lw	a0,-2040(gp) # 1cd88 <_impure_ptr>
   12540:	00058793          	mv	a5,a1
   12544:	00060693          	mv	a3,a2
   12548:	00070593          	mv	a1,a4
   1254c:	00078613          	mv	a2,a5
   12550:	ea4fe06f          	j	10bf4 <_vfprintf_r>

00012554 <__swsetup_r>:
   12554:	8081a783          	lw	a5,-2040(gp) # 1cd88 <_impure_ptr>
   12558:	ff010113          	addi	sp,sp,-16
   1255c:	00812423          	sw	s0,8(sp)
   12560:	00912223          	sw	s1,4(sp)
   12564:	00112623          	sw	ra,12(sp)
   12568:	00050493          	mv	s1,a0
   1256c:	00058413          	mv	s0,a1
   12570:	00078663          	beqz	a5,1257c <__swsetup_r+0x28>
   12574:	0387a703          	lw	a4,56(a5)
   12578:	0c070863          	beqz	a4,12648 <__swsetup_r+0xf4>
   1257c:	00c41703          	lh	a4,12(s0)
   12580:	01071793          	slli	a5,a4,0x10
   12584:	0107d793          	srli	a5,a5,0x10
   12588:	0087f693          	andi	a3,a5,8
   1258c:	04068263          	beqz	a3,125d0 <__swsetup_r+0x7c>
   12590:	01042683          	lw	a3,16(s0)
   12594:	06068263          	beqz	a3,125f8 <__swsetup_r+0xa4>
   12598:	01f79713          	slli	a4,a5,0x1f
   1259c:	08074063          	bltz	a4,1261c <__swsetup_r+0xc8>
   125a0:	0027f793          	andi	a5,a5,2
   125a4:	00000713          	li	a4,0
   125a8:	00079463          	bnez	a5,125b0 <__swsetup_r+0x5c>
   125ac:	01442703          	lw	a4,20(s0)
   125b0:	00e42423          	sw	a4,8(s0)
   125b4:	00000513          	li	a0,0
   125b8:	06068e63          	beqz	a3,12634 <__swsetup_r+0xe0>
   125bc:	00c12083          	lw	ra,12(sp)
   125c0:	00812403          	lw	s0,8(sp)
   125c4:	00412483          	lw	s1,4(sp)
   125c8:	01010113          	addi	sp,sp,16
   125cc:	00008067          	ret
   125d0:	0107f693          	andi	a3,a5,16
   125d4:	0a068a63          	beqz	a3,12688 <__swsetup_r+0x134>
   125d8:	0047f793          	andi	a5,a5,4
   125dc:	06079c63          	bnez	a5,12654 <__swsetup_r+0x100>
   125e0:	01042683          	lw	a3,16(s0)
   125e4:	00876793          	ori	a5,a4,8
   125e8:	00f41623          	sh	a5,12(s0)
   125ec:	01079793          	slli	a5,a5,0x10
   125f0:	0107d793          	srli	a5,a5,0x10
   125f4:	fa0692e3          	bnez	a3,12598 <__swsetup_r+0x44>
   125f8:	2807f613          	andi	a2,a5,640
   125fc:	20000713          	li	a4,512
   12600:	f8e60ce3          	beq	a2,a4,12598 <__swsetup_r+0x44>
   12604:	00048513          	mv	a0,s1
   12608:	00040593          	mv	a1,s0
   1260c:	220020ef          	jal	1482c <__smakebuf_r>
   12610:	00c45783          	lhu	a5,12(s0)
   12614:	01042683          	lw	a3,16(s0)
   12618:	f81ff06f          	j	12598 <__swsetup_r+0x44>
   1261c:	01442783          	lw	a5,20(s0)
   12620:	00042423          	sw	zero,8(s0)
   12624:	00000513          	li	a0,0
   12628:	40f007b3          	neg	a5,a5
   1262c:	00f42c23          	sw	a5,24(s0)
   12630:	f80696e3          	bnez	a3,125bc <__swsetup_r+0x68>
   12634:	00c45783          	lhu	a5,12(s0)
   12638:	0807f793          	andi	a5,a5,128
   1263c:	04079663          	bnez	a5,12688 <__swsetup_r+0x134>
   12640:	00068513          	mv	a0,a3
   12644:	f79ff06f          	j	125bc <__swsetup_r+0x68>
   12648:	00078513          	mv	a0,a5
   1264c:	3c5010ef          	jal	14210 <__sinit>
   12650:	f2dff06f          	j	1257c <__swsetup_r+0x28>
   12654:	03042583          	lw	a1,48(s0)
   12658:	00058e63          	beqz	a1,12674 <__swsetup_r+0x120>
   1265c:	04040793          	addi	a5,s0,64
   12660:	00f58863          	beq	a1,a5,12670 <__swsetup_r+0x11c>
   12664:	00048513          	mv	a0,s1
   12668:	4e9010ef          	jal	14350 <_free_r>
   1266c:	00c41703          	lh	a4,12(s0)
   12670:	02042823          	sw	zero,48(s0)
   12674:	01042683          	lw	a3,16(s0)
   12678:	fdb77713          	andi	a4,a4,-37
   1267c:	00042223          	sw	zero,4(s0)
   12680:	00d42023          	sw	a3,0(s0)
   12684:	f61ff06f          	j	125e4 <__swsetup_r+0x90>
   12688:	fff00513          	li	a0,-1
   1268c:	f31ff06f          	j	125bc <__swsetup_r+0x68>

00012690 <__register_exitproc>:
   12690:	fe010113          	addi	sp,sp,-32
   12694:	00812c23          	sw	s0,24(sp)
   12698:	8041a403          	lw	s0,-2044(gp) # 1cd84 <_global_impure_ptr>
   1269c:	00912a23          	sw	s1,20(sp)
   126a0:	00112e23          	sw	ra,28(sp)
   126a4:	14842783          	lw	a5,328(s0)
   126a8:	00050493          	mv	s1,a0
   126ac:	0c078863          	beqz	a5,1277c <__register_exitproc+0xec>
   126b0:	0047a703          	lw	a4,4(a5)
   126b4:	01f00513          	li	a0,31
   126b8:	02e54a63          	blt	a0,a4,126ec <__register_exitproc+0x5c>
   126bc:	00170513          	addi	a0,a4,1
   126c0:	00271813          	slli	a6,a4,0x2
   126c4:	08049063          	bnez	s1,12744 <__register_exitproc+0xb4>
   126c8:	01078833          	add	a6,a5,a6
   126cc:	00a7a223          	sw	a0,4(a5)
   126d0:	00000513          	li	a0,0
   126d4:	00b82423          	sw	a1,8(a6)
   126d8:	01c12083          	lw	ra,28(sp)
   126dc:	01812403          	lw	s0,24(sp)
   126e0:	01412483          	lw	s1,20(sp)
   126e4:	02010113          	addi	sp,sp,32
   126e8:	00008067          	ret
   126ec:	00000793          	li	a5,0
   126f0:	08078c63          	beqz	a5,12788 <__register_exitproc+0xf8>
   126f4:	19000513          	li	a0,400
   126f8:	00b12623          	sw	a1,12(sp)
   126fc:	00c12423          	sw	a2,8(sp)
   12700:	00d12223          	sw	a3,4(sp)
   12704:	8fded0ef          	jal	0 <_ftext-0x10000>
   12708:	00050793          	mv	a5,a0
   1270c:	00c12583          	lw	a1,12(sp)
   12710:	00812603          	lw	a2,8(sp)
   12714:	00412683          	lw	a3,4(sp)
   12718:	06050863          	beqz	a0,12788 <__register_exitproc+0xf8>
   1271c:	14842703          	lw	a4,328(s0)
   12720:	00052223          	sw	zero,4(a0)
   12724:	00100513          	li	a0,1
   12728:	00e7a023          	sw	a4,0(a5)
   1272c:	00000713          	li	a4,0
   12730:	14f42423          	sw	a5,328(s0)
   12734:	00271813          	slli	a6,a4,0x2
   12738:	1807a423          	sw	zero,392(a5)
   1273c:	1807a623          	sw	zero,396(a5)
   12740:	f80484e3          	beqz	s1,126c8 <__register_exitproc+0x38>
   12744:	010782b3          	add	t0,a5,a6
   12748:	08c2a423          	sw	a2,136(t0)
   1274c:	1887a883          	lw	a7,392(a5)
   12750:	00100613          	li	a2,1
   12754:	00e61733          	sll	a4,a2,a4
   12758:	00e8e633          	or	a2,a7,a4
   1275c:	18c7a423          	sw	a2,392(a5)
   12760:	10d2a423          	sw	a3,264(t0)
   12764:	00200693          	li	a3,2
   12768:	f6d490e3          	bne	s1,a3,126c8 <__register_exitproc+0x38>
   1276c:	18c7a683          	lw	a3,396(a5)
   12770:	00e6e733          	or	a4,a3,a4
   12774:	18e7a623          	sw	a4,396(a5)
   12778:	f51ff06f          	j	126c8 <__register_exitproc+0x38>
   1277c:	14c40793          	addi	a5,s0,332
   12780:	14f42423          	sw	a5,328(s0)
   12784:	f2dff06f          	j	126b0 <__register_exitproc+0x20>
   12788:	fff00513          	li	a0,-1
   1278c:	f4dff06f          	j	126d8 <__register_exitproc+0x48>

00012790 <__call_exitprocs>:
   12790:	fc010113          	addi	sp,sp,-64
   12794:	03612023          	sw	s6,32(sp)
   12798:	8041ab03          	lw	s6,-2044(gp) # 1cd84 <_global_impure_ptr>
   1279c:	03512223          	sw	s5,36(sp)
   127a0:	03212823          	sw	s2,48(sp)
   127a4:	03412423          	sw	s4,40(sp)
   127a8:	01712e23          	sw	s7,28(sp)
   127ac:	01812c23          	sw	s8,24(sp)
   127b0:	01912a23          	sw	s9,20(sp)
   127b4:	02112e23          	sw	ra,60(sp)
   127b8:	02812c23          	sw	s0,56(sp)
   127bc:	02912a23          	sw	s1,52(sp)
   127c0:	03312623          	sw	s3,44(sp)
   127c4:	01a12823          	sw	s10,16(sp)
   127c8:	01b12623          	sw	s11,12(sp)
   127cc:	00050a13          	mv	s4,a0
   127d0:	00058913          	mv	s2,a1
   127d4:	148b0b93          	addi	s7,s6,328
   127d8:	00100c13          	li	s8,1
   127dc:	fff00c93          	li	s9,-1
   127e0:	00000a93          	li	s5,0
   127e4:	148b2983          	lw	s3,328(s6)
   127e8:	04098e63          	beqz	s3,12844 <__call_exitprocs+0xb4>
   127ec:	000b8d93          	mv	s11,s7
   127f0:	0049a403          	lw	s0,4(s3)
   127f4:	00241493          	slli	s1,s0,0x2
   127f8:	fff40413          	addi	s0,s0,-1
   127fc:	009984b3          	add	s1,s3,s1
   12800:	00044e63          	bltz	s0,1281c <__call_exitprocs+0x8c>
   12804:	06090e63          	beqz	s2,12880 <__call_exitprocs+0xf0>
   12808:	1044a783          	lw	a5,260(s1)
   1280c:	07278a63          	beq	a5,s2,12880 <__call_exitprocs+0xf0>
   12810:	fff40413          	addi	s0,s0,-1
   12814:	ffc48493          	addi	s1,s1,-4
   12818:	ff9416e3          	bne	s0,s9,12804 <__call_exitprocs+0x74>
   1281c:	020a8463          	beqz	s5,12844 <__call_exitprocs+0xb4>
   12820:	0049a783          	lw	a5,4(s3)
   12824:	0c079863          	bnez	a5,128f4 <__call_exitprocs+0x164>
   12828:	0009a783          	lw	a5,0(s3)
   1282c:	0c078e63          	beqz	a5,12908 <__call_exitprocs+0x178>
   12830:	00098513          	mv	a0,s3
   12834:	00fda023          	sw	a5,0(s11)
   12838:	fc8ed0ef          	jal	0 <_ftext-0x10000>
   1283c:	000da983          	lw	s3,0(s11)
   12840:	fa0998e3          	bnez	s3,127f0 <__call_exitprocs+0x60>
   12844:	03c12083          	lw	ra,60(sp)
   12848:	03812403          	lw	s0,56(sp)
   1284c:	03412483          	lw	s1,52(sp)
   12850:	03012903          	lw	s2,48(sp)
   12854:	02c12983          	lw	s3,44(sp)
   12858:	02812a03          	lw	s4,40(sp)
   1285c:	02412a83          	lw	s5,36(sp)
   12860:	02012b03          	lw	s6,32(sp)
   12864:	01c12b83          	lw	s7,28(sp)
   12868:	01812c03          	lw	s8,24(sp)
   1286c:	01412c83          	lw	s9,20(sp)
   12870:	01012d03          	lw	s10,16(sp)
   12874:	00c12d83          	lw	s11,12(sp)
   12878:	04010113          	addi	sp,sp,64
   1287c:	00008067          	ret
   12880:	0049a783          	lw	a5,4(s3)
   12884:	0044a703          	lw	a4,4(s1)
   12888:	fff78793          	addi	a5,a5,-1
   1288c:	04878a63          	beq	a5,s0,128e0 <__call_exitprocs+0x150>
   12890:	0004a223          	sw	zero,4(s1)
   12894:	f6070ee3          	beqz	a4,12810 <__call_exitprocs+0x80>
   12898:	1889a783          	lw	a5,392(s3)
   1289c:	008c16b3          	sll	a3,s8,s0
   128a0:	0049ad03          	lw	s10,4(s3)
   128a4:	00f6f7b3          	and	a5,a3,a5
   128a8:	00079e63          	bnez	a5,128c4 <__call_exitprocs+0x134>
   128ac:	000700e7          	jalr	a4
   128b0:	0049a783          	lw	a5,4(s3)
   128b4:	f3a798e3          	bne	a5,s10,127e4 <__call_exitprocs+0x54>
   128b8:	000da783          	lw	a5,0(s11)
   128bc:	f5378ae3          	beq	a5,s3,12810 <__call_exitprocs+0x80>
   128c0:	f25ff06f          	j	127e4 <__call_exitprocs+0x54>
   128c4:	18c9a783          	lw	a5,396(s3)
   128c8:	00f6f7b3          	and	a5,a3,a5
   128cc:	00079e63          	bnez	a5,128e8 <__call_exitprocs+0x158>
   128d0:	0844a583          	lw	a1,132(s1)
   128d4:	000a0513          	mv	a0,s4
   128d8:	000700e7          	jalr	a4
   128dc:	fd5ff06f          	j	128b0 <__call_exitprocs+0x120>
   128e0:	0089a223          	sw	s0,4(s3)
   128e4:	fb1ff06f          	j	12894 <__call_exitprocs+0x104>
   128e8:	0844a503          	lw	a0,132(s1)
   128ec:	000700e7          	jalr	a4
   128f0:	fc1ff06f          	j	128b0 <__call_exitprocs+0x120>
   128f4:	0009a783          	lw	a5,0(s3)
   128f8:	00098d93          	mv	s11,s3
   128fc:	00078993          	mv	s3,a5
   12900:	ee0998e3          	bnez	s3,127f0 <__call_exitprocs+0x60>
   12904:	f41ff06f          	j	12844 <__call_exitprocs+0xb4>
   12908:	00000793          	li	a5,0
   1290c:	fedff06f          	j	128f8 <__call_exitprocs+0x168>

00012910 <quorem>:
   12910:	fe010113          	addi	sp,sp,-32
   12914:	01212823          	sw	s2,16(sp)
   12918:	01052783          	lw	a5,16(a0)
   1291c:	0105a903          	lw	s2,16(a1)
   12920:	00112e23          	sw	ra,28(sp)
   12924:	00812c23          	sw	s0,24(sp)
   12928:	00912a23          	sw	s1,20(sp)
   1292c:	01312623          	sw	s3,12(sp)
   12930:	01412423          	sw	s4,8(sp)
   12934:	01512223          	sw	s5,4(sp)
   12938:	1b27cc63          	blt	a5,s2,12af0 <quorem+0x1e0>
   1293c:	fff90913          	addi	s2,s2,-1
   12940:	00291e13          	slli	t3,s2,0x2
   12944:	01458413          	addi	s0,a1,20
   12948:	01c409b3          	add	s3,s0,t3
   1294c:	01450a13          	addi	s4,a0,20
   12950:	01ca0e33          	add	t3,s4,t3
   12954:	0009a783          	lw	a5,0(s3)
   12958:	000e2483          	lw	s1,0(t3)
   1295c:	00178793          	addi	a5,a5,1
   12960:	02f4d4b3          	divu	s1,s1,a5
   12964:	0a048e63          	beqz	s1,12a20 <quorem+0x110>
   12968:	000102b7          	lui	t0,0x10
   1296c:	00040393          	mv	t2,s0
   12970:	000a0313          	mv	t1,s4
   12974:	00000813          	li	a6,0
   12978:	00000793          	li	a5,0
   1297c:	fff28293          	addi	t0,t0,-1 # ffff <_ftext-0x1>
   12980:	00438393          	addi	t2,t2,4
   12984:	ffc3a883          	lw	a7,-4(t2)
   12988:	00032703          	lw	a4,0(t1)
   1298c:	00430313          	addi	t1,t1,4
   12990:	0058f633          	and	a2,a7,t0
   12994:	02c48633          	mul	a2,s1,a2
   12998:	0108d893          	srli	a7,a7,0x10
   1299c:	00577eb3          	and	t4,a4,t0
   129a0:	01075713          	srli	a4,a4,0x10
   129a4:	031488b3          	mul	a7,s1,a7
   129a8:	00c80633          	add	a2,a6,a2
   129ac:	005676b3          	and	a3,a2,t0
   129b0:	01065813          	srli	a6,a2,0x10
   129b4:	40d787b3          	sub	a5,a5,a3
   129b8:	01d786b3          	add	a3,a5,t4
   129bc:	4106de93          	srai	t4,a3,0x10
   129c0:	0056f6b3          	and	a3,a3,t0
   129c4:	01180633          	add	a2,a6,a7
   129c8:	005677b3          	and	a5,a2,t0
   129cc:	40f70733          	sub	a4,a4,a5
   129d0:	01d707b3          	add	a5,a4,t4
   129d4:	01079713          	slli	a4,a5,0x10
   129d8:	00d766b3          	or	a3,a4,a3
   129dc:	01065813          	srli	a6,a2,0x10
   129e0:	4107d793          	srai	a5,a5,0x10
   129e4:	fed32e23          	sw	a3,-4(t1)
   129e8:	f879fce3          	bleu	t2,s3,12980 <quorem+0x70>
   129ec:	000e2783          	lw	a5,0(t3)
   129f0:	02079863          	bnez	a5,12a20 <quorem+0x110>
   129f4:	ffce0793          	addi	a5,t3,-4
   129f8:	02fa7263          	bleu	a5,s4,12a1c <quorem+0x10c>
   129fc:	ffce2703          	lw	a4,-4(t3)
   12a00:	00070863          	beqz	a4,12a10 <quorem+0x100>
   12a04:	0180006f          	j	12a1c <quorem+0x10c>
   12a08:	0007a703          	lw	a4,0(a5)
   12a0c:	00071863          	bnez	a4,12a1c <quorem+0x10c>
   12a10:	ffc78793          	addi	a5,a5,-4
   12a14:	fff90913          	addi	s2,s2,-1
   12a18:	fefa68e3          	bltu	s4,a5,12a08 <quorem+0xf8>
   12a1c:	01252823          	sw	s2,16(a0)
   12a20:	00050a93          	mv	s5,a0
   12a24:	280030ef          	jal	15ca4 <__mcmp>
   12a28:	0a054063          	bltz	a0,12ac8 <quorem+0x1b8>
   12a2c:	00010837          	lui	a6,0x10
   12a30:	00148493          	addi	s1,s1,1
   12a34:	000a0593          	mv	a1,s4
   12a38:	00000793          	li	a5,0
   12a3c:	fff80813          	addi	a6,a6,-1 # ffff <_ftext-0x1>
   12a40:	00440413          	addi	s0,s0,4
   12a44:	ffc42603          	lw	a2,-4(s0)
   12a48:	0005a703          	lw	a4,0(a1)
   12a4c:	00458593          	addi	a1,a1,4
   12a50:	010676b3          	and	a3,a2,a6
   12a54:	40d787b3          	sub	a5,a5,a3
   12a58:	010776b3          	and	a3,a4,a6
   12a5c:	00d786b3          	add	a3,a5,a3
   12a60:	01075713          	srli	a4,a4,0x10
   12a64:	01065793          	srli	a5,a2,0x10
   12a68:	40f70733          	sub	a4,a4,a5
   12a6c:	4106d793          	srai	a5,a3,0x10
   12a70:	00f707b3          	add	a5,a4,a5
   12a74:	01079713          	slli	a4,a5,0x10
   12a78:	0106f6b3          	and	a3,a3,a6
   12a7c:	00d766b3          	or	a3,a4,a3
   12a80:	4107d793          	srai	a5,a5,0x10
   12a84:	fed5ae23          	sw	a3,-4(a1)
   12a88:	fa89fce3          	bleu	s0,s3,12a40 <quorem+0x130>
   12a8c:	00291713          	slli	a4,s2,0x2
   12a90:	00ea0733          	add	a4,s4,a4
   12a94:	00072783          	lw	a5,0(a4)
   12a98:	02079863          	bnez	a5,12ac8 <quorem+0x1b8>
   12a9c:	ffc70793          	addi	a5,a4,-4
   12aa0:	02fa7263          	bleu	a5,s4,12ac4 <quorem+0x1b4>
   12aa4:	ffc72703          	lw	a4,-4(a4)
   12aa8:	00070863          	beqz	a4,12ab8 <quorem+0x1a8>
   12aac:	0180006f          	j	12ac4 <quorem+0x1b4>
   12ab0:	0007a703          	lw	a4,0(a5)
   12ab4:	00071863          	bnez	a4,12ac4 <quorem+0x1b4>
   12ab8:	ffc78793          	addi	a5,a5,-4
   12abc:	fff90913          	addi	s2,s2,-1
   12ac0:	fefa68e3          	bltu	s4,a5,12ab0 <quorem+0x1a0>
   12ac4:	012aa823          	sw	s2,16(s5)
   12ac8:	00048513          	mv	a0,s1
   12acc:	01c12083          	lw	ra,28(sp)
   12ad0:	01812403          	lw	s0,24(sp)
   12ad4:	01412483          	lw	s1,20(sp)
   12ad8:	01012903          	lw	s2,16(sp)
   12adc:	00c12983          	lw	s3,12(sp)
   12ae0:	00812a03          	lw	s4,8(sp)
   12ae4:	00412a83          	lw	s5,4(sp)
   12ae8:	02010113          	addi	sp,sp,32
   12aec:	00008067          	ret
   12af0:	00000513          	li	a0,0
   12af4:	fd9ff06f          	j	12acc <quorem+0x1bc>

00012af8 <_dtoa_r>:
   12af8:	04052683          	lw	a3,64(a0)
   12afc:	f5010113          	addi	sp,sp,-176
   12b00:	00c13827          	fsd	fa2,16(sp)
   12b04:	0a812423          	sw	s0,168(sp)
   12b08:	0b212023          	sw	s2,160(sp)
   12b0c:	09312e23          	sw	s3,156(sp)
   12b10:	09512a23          	sw	s5,148(sp)
   12b14:	09912223          	sw	s9,132(sp)
   12b18:	0a112623          	sw	ra,172(sp)
   12b1c:	0a912223          	sw	s1,164(sp)
   12b20:	09412c23          	sw	s4,152(sp)
   12b24:	09612823          	sw	s6,144(sp)
   12b28:	09712623          	sw	s7,140(sp)
   12b2c:	09812423          	sw	s8,136(sp)
   12b30:	09a12023          	sw	s10,128(sp)
   12b34:	07b12e23          	sw	s11,124(sp)
   12b38:	06813427          	fsd	fs0,104(sp)
   12b3c:	07213027          	fsd	fs2,96(sp)
   12b40:	05413c27          	fsd	fs4,88(sp)
   12b44:	05613827          	fsd	fs6,80(sp)
   12b48:	00050413          	mv	s0,a0
   12b4c:	00070a93          	mv	s5,a4
   12b50:	00078c93          	mv	s9,a5
   12b54:	01012e23          	sw	a6,28(sp)
   12b58:	01012903          	lw	s2,16(sp)
   12b5c:	01412983          	lw	s3,20(sp)
   12b60:	02068663          	beqz	a3,12b8c <_dtoa_r+0x94>
   12b64:	04452703          	lw	a4,68(a0)
   12b68:	00100793          	li	a5,1
   12b6c:	00068593          	mv	a1,a3
   12b70:	00e797b3          	sll	a5,a5,a4
   12b74:	00e6a223          	sw	a4,4(a3)
   12b78:	00f6a423          	sw	a5,8(a3)
   12b7c:	01112623          	sw	a7,12(sp)
   12b80:	109020ef          	jal	15488 <_Bfree>
   12b84:	00c12883          	lw	a7,12(sp)
   12b88:	04042023          	sw	zero,64(s0)
   12b8c:	00098493          	mv	s1,s3
   12b90:	0e09c263          	bltz	s3,12c74 <_dtoa_r+0x17c>
   12b94:	0008a023          	sw	zero,0(a7)
   12b98:	7ff007b7          	lui	a5,0x7ff00
   12b9c:	00f4f733          	and	a4,s1,a5
   12ba0:	08f70863          	beq	a4,a5,12c30 <_dtoa_r+0x138>
   12ba4:	01212823          	sw	s2,16(sp)
   12ba8:	01312a23          	sw	s3,20(sp)
   12bac:	01013087          	fld	ft1,16(sp)
   12bb0:	d2000053          	fcvt.d.w	ft0,zero
   12bb4:	a200a7d3          	feq.d	a5,ft1,ft0
   12bb8:	0c078c63          	beqz	a5,12c90 <_dtoa_r+0x198>
   12bbc:	01c12683          	lw	a3,28(sp)
   12bc0:	0b012703          	lw	a4,176(sp)
   12bc4:	00100793          	li	a5,1
   12bc8:	00f6a023          	sw	a5,0(a3)
   12bcc:	48070663          	beqz	a4,13058 <_dtoa_r+0x560>
   12bd0:	0001b7b7          	lui	a5,0x1b
   12bd4:	2a978793          	addi	a5,a5,681 # 1b2a9 <__clz_tab+0x169>
   12bd8:	0001b4b7          	lui	s1,0x1b
   12bdc:	00f72023          	sw	a5,0(a4)
   12be0:	2a848513          	addi	a0,s1,680 # 1b2a8 <__clz_tab+0x168>
   12be4:	0ac12083          	lw	ra,172(sp)
   12be8:	0a812403          	lw	s0,168(sp)
   12bec:	0a412483          	lw	s1,164(sp)
   12bf0:	0a012903          	lw	s2,160(sp)
   12bf4:	09c12983          	lw	s3,156(sp)
   12bf8:	09812a03          	lw	s4,152(sp)
   12bfc:	09412a83          	lw	s5,148(sp)
   12c00:	09012b03          	lw	s6,144(sp)
   12c04:	08c12b83          	lw	s7,140(sp)
   12c08:	08812c03          	lw	s8,136(sp)
   12c0c:	08412c83          	lw	s9,132(sp)
   12c10:	08012d03          	lw	s10,128(sp)
   12c14:	07c12d83          	lw	s11,124(sp)
   12c18:	06813407          	fld	fs0,104(sp)
   12c1c:	06013907          	fld	fs2,96(sp)
   12c20:	05813a07          	fld	fs4,88(sp)
   12c24:	05013b07          	fld	fs6,80(sp)
   12c28:	0b010113          	addi	sp,sp,176
   12c2c:	00008067          	ret
   12c30:	01c12683          	lw	a3,28(sp)
   12c34:	000027b7          	lui	a5,0x2
   12c38:	70f78793          	addi	a5,a5,1807 # 270f <_ftext-0xd8f1>
   12c3c:	00f6a023          	sw	a5,0(a3)
   12c40:	3c090c63          	beqz	s2,13018 <_dtoa_r+0x520>
   12c44:	0001b537          	lui	a0,0x1b
   12c48:	2b850493          	addi	s1,a0,696 # 1b2b8 <__clz_tab+0x178>
   12c4c:	0b012783          	lw	a5,176(sp)
   12c50:	5c078c63          	beqz	a5,13228 <_dtoa_r+0x730>
   12c54:	0034c703          	lbu	a4,3(s1)
   12c58:	00348793          	addi	a5,s1,3
   12c5c:	00070463          	beqz	a4,12c64 <_dtoa_r+0x16c>
   12c60:	00848793          	addi	a5,s1,8
   12c64:	0b012683          	lw	a3,176(sp)
   12c68:	00048513          	mv	a0,s1
   12c6c:	00f6a023          	sw	a5,0(a3)
   12c70:	f75ff06f          	j	12be4 <_dtoa_r+0xec>
   12c74:	800004b7          	lui	s1,0x80000
   12c78:	fff4c493          	not	s1,s1
   12c7c:	0134f4b3          	and	s1,s1,s3
   12c80:	00100793          	li	a5,1
   12c84:	00f8a023          	sw	a5,0(a7)
   12c88:	00048993          	mv	s3,s1
   12c8c:	f0dff06f          	j	12b98 <_dtoa_r+0xa0>
   12c90:	01013607          	fld	fa2,16(sp)
   12c94:	00040513          	mv	a0,s0
   12c98:	04c10713          	addi	a4,sp,76
   12c9c:	04810793          	addi	a5,sp,72
   12ca0:	3c4030ef          	jal	16064 <__d2b>
   12ca4:	0144d693          	srli	a3,s1,0x14
   12ca8:	00050a13          	mv	s4,a0
   12cac:	38069063          	bnez	a3,1302c <_dtoa_r+0x534>
   12cb0:	04812803          	lw	a6,72(sp)
   12cb4:	04c12603          	lw	a2,76(sp)
   12cb8:	bef00793          	li	a5,-1041
   12cbc:	00c80633          	add	a2,a6,a2
   12cc0:	0af644e3          	blt	a2,a5,13568 <_dtoa_r+0xa70>
   12cc4:	c0e00793          	li	a5,-1010
   12cc8:	40c787b3          	sub	a5,a5,a2
   12ccc:	41260713          	addi	a4,a2,1042
   12cd0:	00f494b3          	sll	s1,s1,a5
   12cd4:	00e95733          	srl	a4,s2,a4
   12cd8:	00e4e4b3          	or	s1,s1,a4
   12cdc:	d2148053          	fcvt.d.wu	ft0,s1
   12ce0:	00013027          	fsd	ft0,0(sp)
   12ce4:	00412783          	lw	a5,4(sp)
   12ce8:	00012703          	lw	a4,0(sp)
   12cec:	fe1006b7          	lui	a3,0xfe100
   12cf0:	00f687b3          	add	a5,a3,a5
   12cf4:	00100b13          	li	s6,1
   12cf8:	fff60693          	addi	a3,a2,-1
   12cfc:	00f12223          	sw	a5,4(sp)
   12d00:	00e12023          	sw	a4,0(sp)
   12d04:	8201b007          	fld	ft0,-2016(gp) # 1cda0 <__wctomb+0x8>
   12d08:	00013107          	fld	ft2,0(sp)
   12d0c:	0a0170d3          	fsub.d	ft1,ft2,ft0
   12d10:	8301b007          	fld	ft0,-2000(gp) # 1cdb0 <__wctomb+0x18>
   12d14:	8281b107          	fld	ft2,-2008(gp) # 1cda8 <__wctomb+0x10>
   12d18:	0220f043          	fmadd.d	ft0,ft1,ft2,ft0
   12d1c:	8381b107          	fld	ft2,-1992(gp) # 1cdb8 <__wctomb+0x20>
   12d20:	d20680d3          	fcvt.d.w	ft1,a3
   12d24:	0220f043          	fmadd.d	ft0,ft1,ft2,ft0
   12d28:	d20000d3          	fcvt.d.w	ft1,zero
   12d2c:	a21017d3          	flt.d	a5,ft0,ft1
   12d30:	c2001bd3          	fcvt.w.d	s7,ft0,rtz
   12d34:	4e079e63          	bnez	a5,13230 <_dtoa_r+0x738>
   12d38:	00100713          	li	a4,1
   12d3c:	01600793          	li	a5,22
   12d40:	02e12a23          	sw	a4,52(sp)
   12d44:	0377ea63          	bltu	a5,s7,12d78 <_dtoa_r+0x280>
   12d48:	0001b737          	lui	a4,0x1b
   12d4c:	003b9793          	slli	a5,s7,0x3
   12d50:	e7870713          	addi	a4,a4,-392 # 1ae78 <__mprec_tens>
   12d54:	00e787b3          	add	a5,a5,a4
   12d58:	01212023          	sw	s2,0(sp)
   12d5c:	01312223          	sw	s3,4(sp)
   12d60:	0007b007          	fld	ft0,0(a5)
   12d64:	00013087          	fld	ft1,0(sp)
   12d68:	a20097d3          	flt.d	a5,ft1,ft0
   12d6c:	7e078a63          	beqz	a5,13560 <_dtoa_r+0xa68>
   12d70:	fffb8b93          	addi	s7,s7,-1
   12d74:	02012a23          	sw	zero,52(sp)
   12d78:	40d806b3          	sub	a3,a6,a3
   12d7c:	fff68d13          	addi	s10,a3,-1 # fe0fffff <_gp+0xfe0e2a7f>
   12d80:	02012423          	sw	zero,40(sp)
   12d84:	2e0d4063          	bltz	s10,13064 <_dtoa_r+0x56c>
   12d88:	4a0bce63          	bltz	s7,13244 <_dtoa_r+0x74c>
   12d8c:	017d0d33          	add	s10,s10,s7
   12d90:	03712823          	sw	s7,48(sp)
   12d94:	00000c13          	li	s8,0
   12d98:	00900793          	li	a5,9
   12d9c:	2d57ec63          	bltu	a5,s5,13074 <_dtoa_r+0x57c>
   12da0:	00500793          	li	a5,5
   12da4:	00100893          	li	a7,1
   12da8:	0157d663          	ble	s5,a5,12db4 <_dtoa_r+0x2bc>
   12dac:	ffca8a93          	addi	s5,s5,-4
   12db0:	00000893          	li	a7,0
   12db4:	00300793          	li	a5,3
   12db8:	36fa84e3          	beq	s5,a5,13920 <_dtoa_r+0xe28>
   12dbc:	2557dae3          	ble	s5,a5,13810 <_dtoa_r+0xd18>
   12dc0:	00400793          	li	a5,4
   12dc4:	0cfa86e3          	beq	s5,a5,13690 <_dtoa_r+0xb98>
   12dc8:	00100793          	li	a5,1
   12dcc:	02f12623          	sw	a5,44(sp)
   12dd0:	00500793          	li	a5,5
   12dd4:	24fa94e3          	bne	s5,a5,1381c <_dtoa_r+0xd24>
   12dd8:	017c87b3          	add	a5,s9,s7
   12ddc:	00178713          	addi	a4,a5,1
   12de0:	02f12c23          	sw	a5,56(sp)
   12de4:	00e12823          	sw	a4,16(sp)
   12de8:	00070513          	mv	a0,a4
   12dec:	00070613          	mv	a2,a4
   12df0:	20e05ae3          	blez	a4,13804 <_dtoa_r+0xd0c>
   12df4:	01700793          	li	a5,23
   12df8:	04042223          	sw	zero,68(s0)
   12dfc:	00000593          	li	a1,0
   12e00:	02a7f263          	bleu	a0,a5,12e24 <_dtoa_r+0x32c>
   12e04:	00100713          	li	a4,1
   12e08:	00400793          	li	a5,4
   12e0c:	00179793          	slli	a5,a5,0x1
   12e10:	01478693          	addi	a3,a5,20
   12e14:	00070593          	mv	a1,a4
   12e18:	00170713          	addi	a4,a4,1
   12e1c:	fed578e3          	bleu	a3,a0,12e0c <_dtoa_r+0x314>
   12e20:	04b42223          	sw	a1,68(s0)
   12e24:	00040513          	mv	a0,s0
   12e28:	00c12423          	sw	a2,8(sp)
   12e2c:	01112623          	sw	a7,12(sp)
   12e30:	5b4020ef          	jal	153e4 <_Balloc>
   12e34:	00812603          	lw	a2,8(sp)
   12e38:	00e00793          	li	a5,14
   12e3c:	00050493          	mv	s1,a0
   12e40:	04a42023          	sw	a0,64(s0)
   12e44:	00c12883          	lw	a7,12(sp)
   12e48:	26c7e063          	bltu	a5,a2,130a8 <_dtoa_r+0x5b0>
   12e4c:	24088e63          	beqz	a7,130a8 <_dtoa_r+0x5b0>
   12e50:	03212023          	sw	s2,32(sp)
   12e54:	03312223          	sw	s3,36(sp)
   12e58:	31705ee3          	blez	s7,13974 <_dtoa_r+0xe7c>
   12e5c:	00fbf793          	andi	a5,s7,15
   12e60:	00379713          	slli	a4,a5,0x3
   12e64:	0001b7b7          	lui	a5,0x1b
   12e68:	e7878793          	addi	a5,a5,-392 # 1ae78 <__mprec_tens>
   12e6c:	00f707b3          	add	a5,a4,a5
   12e70:	404bd913          	srai	s2,s7,0x4
   12e74:	0007b407          	fld	fs0,0(a5)
   12e78:	01b91793          	slli	a5,s2,0x1b
   12e7c:	02013507          	fld	fa0,32(sp)
   12e80:	00200993          	li	s3,2
   12e84:	0007dc63          	bgez	a5,12e9c <_dtoa_r+0x3a4>
   12e88:	0001b7b7          	lui	a5,0x1b
   12e8c:	f887b607          	fld	fa2,-120(a5) # 1af88 <__mprec_bigtens+0x20>
   12e90:	00f97913          	andi	s2,s2,15
   12e94:	00300993          	li	s3,3
   12e98:	0ad060ef          	jal	19744 <__divdf3>
   12e9c:	02090663          	beqz	s2,12ec8 <_dtoa_r+0x3d0>
   12ea0:	0001b7b7          	lui	a5,0x1b
   12ea4:	f6878793          	addi	a5,a5,-152 # 1af68 <__mprec_bigtens>
   12ea8:	01f91693          	slli	a3,s2,0x1f
   12eac:	0006d863          	bgez	a3,12ebc <_dtoa_r+0x3c4>
   12eb0:	0007b007          	fld	ft0,0(a5)
   12eb4:	00198993          	addi	s3,s3,1
   12eb8:	12047453          	fmul.d	fs0,fs0,ft0
   12ebc:	40195913          	srai	s2,s2,0x1
   12ec0:	00878793          	addi	a5,a5,8
   12ec4:	fe0912e3          	bnez	s2,12ea8 <_dtoa_r+0x3b0>
   12ec8:	22840653          	fmv.d	fa2,fs0
   12ecc:	079060ef          	jal	19744 <__divdf3>
   12ed0:	22a50453          	fmv.d	fs0,fa0
   12ed4:	03412703          	lw	a4,52(sp)
   12ed8:	00070863          	beqz	a4,12ee8 <_dtoa_r+0x3f0>
   12edc:	8401b007          	fld	ft0,-1984(gp) # 1cdc0 <__wctomb+0x28>
   12ee0:	a20417d3          	flt.d	a5,fs0,ft0
   12ee4:	420790e3          	bnez	a5,13b04 <_dtoa_r+0x100c>
   12ee8:	8501b007          	fld	ft0,-1968(gp) # 1cdd0 <__wctomb+0x38>
   12eec:	d20980d3          	fcvt.d.w	ft1,s3
   12ef0:	fcc007b7          	lui	a5,0xfcc00
   12ef4:	0280f043          	fmadd.d	ft0,ft1,fs0,ft0
   12ef8:	00013027          	fsd	ft0,0(sp)
   12efc:	00412983          	lw	s3,4(sp)
   12f00:	00012903          	lw	s2,0(sp)
   12f04:	013789b3          	add	s3,a5,s3
   12f08:	01012783          	lw	a5,16(sp)
   12f0c:	1c0784e3          	beqz	a5,138d4 <_dtoa_r+0xddc>
   12f10:	01012583          	lw	a1,16(sp)
   12f14:	000b8613          	mv	a2,s7
   12f18:	02c12703          	lw	a4,44(sp)
   12f1c:	300702e3          	beqz	a4,13a20 <_dtoa_r+0xf28>
   12f20:	fff58793          	addi	a5,a1,-1
   12f24:	00379713          	slli	a4,a5,0x3
   12f28:	0001b7b7          	lui	a5,0x1b
   12f2c:	e7878793          	addi	a5,a5,-392 # 1ae78 <__mprec_tens>
   12f30:	00f707b3          	add	a5,a4,a5
   12f34:	8601b507          	fld	fa0,-1952(gp) # 1cde0 <__wctomb+0x48>
   12f38:	0007b607          	fld	fa2,0(a5)
   12f3c:	00b12623          	sw	a1,12(sp)
   12f40:	00c12423          	sw	a2,8(sp)
   12f44:	001060ef          	jal	19744 <__divdf3>
   12f48:	01212023          	sw	s2,0(sp)
   12f4c:	01312223          	sw	s3,4(sp)
   12f50:	00013087          	fld	ft1,0(sp)
   12f54:	c2041753          	fcvt.w.d	a4,fs0,rtz
   12f58:	d2070053          	fcvt.d.w	ft0,a4
   12f5c:	0a157553          	fsub.d	fa0,fa0,ft1
   12f60:	0a047053          	fsub.d	ft0,fs0,ft0
   12f64:	03070713          	addi	a4,a4,48
   12f68:	0ff77713          	andi	a4,a4,255
   12f6c:	00e48023          	sb	a4,0(s1) # 80000000 <_gp+0x7ffe2a80>
   12f70:	a2a016d3          	flt.d	a3,ft0,fa0
   12f74:	00148d93          	addi	s11,s1,1
   12f78:	00c12583          	lw	a1,12(sp)
   12f7c:	00812603          	lw	a2,8(sp)
   12f80:	06069263          	bnez	a3,12fe4 <_dtoa_r+0x4ec>
   12f84:	8401b207          	fld	ft4,-1984(gp) # 1cdc0 <__wctomb+0x28>
   12f88:	0a0270d3          	fsub.d	ft1,ft4,ft0
   12f8c:	a2a096d3          	flt.d	a3,ft1,fa0
   12f90:	400694e3          	bnez	a3,13b98 <_dtoa_r+0x10a0>
   12f94:	00100713          	li	a4,1
   12f98:	1ab75ce3          	ble	a1,a4,13950 <_dtoa_r+0xe58>
   12f9c:	00b485b3          	add	a1,s1,a1
   12fa0:	8481b107          	fld	ft2,-1976(gp) # 1cdc8 <__wctomb+0x30>
   12fa4:	0140006f          	j	12fb8 <_dtoa_r+0x4c0>
   12fa8:	0a0270d3          	fsub.d	ft1,ft4,ft0
   12fac:	a2a096d3          	flt.d	a3,ft1,fa0
   12fb0:	3e0694e3          	bnez	a3,13b98 <_dtoa_r+0x10a0>
   12fb4:	18bd8ee3          	beq	s11,a1,13950 <_dtoa_r+0xe58>
   12fb8:	12207053          	fmul.d	ft0,ft0,ft2
   12fbc:	12257553          	fmul.d	fa0,fa0,ft2
   12fc0:	001d8d93          	addi	s11,s11,1
   12fc4:	c2001753          	fcvt.w.d	a4,ft0,rtz
   12fc8:	d20700d3          	fcvt.d.w	ft1,a4
   12fcc:	0a107053          	fsub.d	ft0,ft0,ft1
   12fd0:	03070713          	addi	a4,a4,48
   12fd4:	0ff77713          	andi	a4,a4,255
   12fd8:	feed8fa3          	sb	a4,-1(s11)
   12fdc:	a2a016d3          	flt.d	a3,ft0,fa0
   12fe0:	fc0684e3          	beqz	a3,12fa8 <_dtoa_r+0x4b0>
   12fe4:	00060b93          	mv	s7,a2
   12fe8:	00040513          	mv	a0,s0
   12fec:	000a0593          	mv	a1,s4
   12ff0:	498020ef          	jal	15488 <_Bfree>
   12ff4:	01c12683          	lw	a3,28(sp)
   12ff8:	0b012703          	lw	a4,176(sp)
   12ffc:	001b8b93          	addi	s7,s7,1
   13000:	000d8023          	sb	zero,0(s11)
   13004:	0176a023          	sw	s7,0(a3)
   13008:	22070063          	beqz	a4,13228 <_dtoa_r+0x730>
   1300c:	01b72023          	sw	s11,0(a4)
   13010:	00048513          	mv	a0,s1
   13014:	bd1ff06f          	j	12be4 <_dtoa_r+0xec>
   13018:	00c49713          	slli	a4,s1,0xc
   1301c:	c20714e3          	bnez	a4,12c44 <_dtoa_r+0x14c>
   13020:	0001b537          	lui	a0,0x1b
   13024:	2ac50493          	addi	s1,a0,684 # 1b2ac <__clz_tab+0x16c>
   13028:	c25ff06f          	j	12c4c <_dtoa_r+0x154>
   1302c:	01412783          	lw	a5,20(sp)
   13030:	00100637          	lui	a2,0x100
   13034:	fff60613          	addi	a2,a2,-1 # fffff <_gp+0xe2a7f>
   13038:	00c7f633          	and	a2,a5,a2
   1303c:	3ff005b7          	lui	a1,0x3ff00
   13040:	01012703          	lw	a4,16(sp)
   13044:	00b667b3          	or	a5,a2,a1
   13048:	c0168693          	addi	a3,a3,-1023
   1304c:	04812803          	lw	a6,72(sp)
   13050:	00000b13          	li	s6,0
   13054:	ca9ff06f          	j	12cfc <_dtoa_r+0x204>
   13058:	0001b4b7          	lui	s1,0x1b
   1305c:	2a848513          	addi	a0,s1,680 # 1b2a8 <__clz_tab+0x168>
   13060:	b85ff06f          	j	12be4 <_dtoa_r+0xec>
   13064:	41a00d33          	neg	s10,s10
   13068:	03a12423          	sw	s10,40(sp)
   1306c:	00000d13          	li	s10,0
   13070:	d19ff06f          	j	12d88 <_dtoa_r+0x290>
   13074:	04042223          	sw	zero,68(s0)
   13078:	00040513          	mv	a0,s0
   1307c:	00000593          	li	a1,0
   13080:	364020ef          	jal	153e4 <_Balloc>
   13084:	fff00793          	li	a5,-1
   13088:	00100713          	li	a4,1
   1308c:	00050493          	mv	s1,a0
   13090:	00f12823          	sw	a5,16(sp)
   13094:	04a42023          	sw	a0,64(s0)
   13098:	02e12623          	sw	a4,44(sp)
   1309c:	00000a93          	li	s5,0
   130a0:	00000c93          	li	s9,0
   130a4:	02f12c23          	sw	a5,56(sp)
   130a8:	04c12783          	lw	a5,76(sp)
   130ac:	1007c863          	bltz	a5,131bc <_dtoa_r+0x6c4>
   130b0:	00e00713          	li	a4,14
   130b4:	11774463          	blt	a4,s7,131bc <_dtoa_r+0x6c4>
   130b8:	0001b737          	lui	a4,0x1b
   130bc:	003b9793          	slli	a5,s7,0x3
   130c0:	e7870713          	addi	a4,a4,-392 # 1ae78 <__mprec_tens>
   130c4:	00e787b3          	add	a5,a5,a4
   130c8:	0007bb07          	fld	fs6,0(a5)
   130cc:	5e0cc263          	bltz	s9,136b0 <_dtoa_r+0xbb8>
   130d0:	01212023          	sw	s2,0(sp)
   130d4:	01312223          	sw	s3,4(sp)
   130d8:	00013407          	fld	fs0,0(sp)
   130dc:	236b0653          	fmv.d	fa2,fs6
   130e0:	00148d93          	addi	s11,s1,1
   130e4:	22840553          	fmv.d	fa0,fs0
   130e8:	65c060ef          	jal	19744 <__divdf3>
   130ec:	c20516d3          	fcvt.w.d	a3,fa0,rtz
   130f0:	d2068053          	fcvt.d.w	ft0,a3
   130f4:	01012783          	lw	a5,16(sp)
   130f8:	03068713          	addi	a4,a3,48
   130fc:	22001053          	fneg.d	ft0,ft0
   13100:	00e48023          	sb	a4,0(s1)
   13104:	00100713          	li	a4,1
   13108:	43607443          	fmadd.d	fs0,ft0,fs6,fs0
   1310c:	06e78263          	beq	a5,a4,13170 <_dtoa_r+0x678>
   13110:	8481ba07          	fld	fs4,-1976(gp) # 1cdc8 <__wctomb+0x30>
   13114:	d2000953          	fcvt.d.w	fs2,zero
   13118:	13447453          	fmul.d	fs0,fs0,fs4
   1311c:	a3242753          	feq.d	a4,fs0,fs2
   13120:	ec0714e3          	bnez	a4,12fe8 <_dtoa_r+0x4f0>
   13124:	01012703          	lw	a4,16(sp)
   13128:	00248913          	addi	s2,s1,2
   1312c:	00e489b3          	add	s3,s1,a4
   13130:	0140006f          	j	13144 <_dtoa_r+0x64c>
   13134:	13447453          	fmul.d	fs0,fs0,fs4
   13138:	00190913          	addi	s2,s2,1
   1313c:	a3242753          	feq.d	a4,fs0,fs2
   13140:	ea0714e3          	bnez	a4,12fe8 <_dtoa_r+0x4f0>
   13144:	22840553          	fmv.d	fa0,fs0
   13148:	236b0653          	fmv.d	fa2,fs6
   1314c:	00090d93          	mv	s11,s2
   13150:	5f4060ef          	jal	19744 <__divdf3>
   13154:	c20516d3          	fcvt.w.d	a3,fa0,rtz
   13158:	d2068053          	fcvt.d.w	ft0,a3
   1315c:	22001053          	fneg.d	ft0,ft0
   13160:	03068713          	addi	a4,a3,48
   13164:	fee90fa3          	sb	a4,-1(s2)
   13168:	43607443          	fmadd.d	fs0,ft0,fs6,fs0
   1316c:	fd3914e3          	bne	s2,s3,13134 <_dtoa_r+0x63c>
   13170:	02847453          	fadd.d	fs0,fs0,fs0
   13174:	a28b1753          	flt.d	a4,fs6,fs0
   13178:	00071a63          	bnez	a4,1318c <_dtoa_r+0x694>
   1317c:	a28b2753          	feq.d	a4,fs6,fs0
   13180:	e60704e3          	beqz	a4,12fe8 <_dtoa_r+0x4f0>
   13184:	01f69793          	slli	a5,a3,0x1f
   13188:	e607d0e3          	bgez	a5,12fe8 <_dtoa_r+0x4f0>
   1318c:	fffdc703          	lbu	a4,-1(s11)
   13190:	03900613          	li	a2,57
   13194:	0100006f          	j	131a4 <_dtoa_r+0x6ac>
   13198:	7cd48263          	beq	s1,a3,1395c <_dtoa_r+0xe64>
   1319c:	fff6c703          	lbu	a4,-1(a3)
   131a0:	00068d93          	mv	s11,a3
   131a4:	fffd8693          	addi	a3,s11,-1
   131a8:	fec708e3          	beq	a4,a2,13198 <_dtoa_r+0x6a0>
   131ac:	00170713          	addi	a4,a4,1
   131b0:	0ff77713          	andi	a4,a4,255
   131b4:	00e68023          	sb	a4,0(a3)
   131b8:	e31ff06f          	j	12fe8 <_dtoa_r+0x4f0>
   131bc:	02c12703          	lw	a4,44(sp)
   131c0:	08070e63          	beqz	a4,1325c <_dtoa_r+0x764>
   131c4:	00100713          	li	a4,1
   131c8:	59575063          	ble	s5,a4,13748 <_dtoa_r+0xc50>
   131cc:	01012783          	lw	a5,16(sp)
   131d0:	fff78713          	addi	a4,a5,-1
   131d4:	40ec0db3          	sub	s11,s8,a4
   131d8:	00ec5e63          	ble	a4,s8,131f4 <_dtoa_r+0x6fc>
   131dc:	03012683          	lw	a3,48(sp)
   131e0:	41870c33          	sub	s8,a4,s8
   131e4:	00000d93          	li	s11,0
   131e8:	018686b3          	add	a3,a3,s8
   131ec:	02d12823          	sw	a3,48(sp)
   131f0:	00070c13          	mv	s8,a4
   131f4:	02812703          	lw	a4,40(sp)
   131f8:	01012783          	lw	a5,16(sp)
   131fc:	02e12023          	sw	a4,32(sp)
   13200:	0c07c8e3          	bltz	a5,13ad0 <_dtoa_r+0xfd8>
   13204:	02812683          	lw	a3,40(sp)
   13208:	00040513          	mv	a0,s0
   1320c:	00100593          	li	a1,1
   13210:	00f686b3          	add	a3,a3,a5
   13214:	02d12423          	sw	a3,40(sp)
   13218:	00fd0d33          	add	s10,s10,a5
   1321c:	5d4020ef          	jal	157f0 <__i2b>
   13220:	00050b13          	mv	s6,a0
   13224:	0480006f          	j	1326c <_dtoa_r+0x774>
   13228:	00048513          	mv	a0,s1
   1322c:	9b9ff06f          	j	12be4 <_dtoa_r+0xec>
   13230:	d20b80d3          	fcvt.d.w	ft1,s7
   13234:	a200a7d3          	feq.d	a5,ft1,ft0
   13238:	0017b793          	seqz	a5,a5
   1323c:	40fb8bb3          	sub	s7,s7,a5
   13240:	af9ff06f          	j	12d38 <_dtoa_r+0x240>
   13244:	02812683          	lw	a3,40(sp)
   13248:	41700c33          	neg	s8,s7
   1324c:	02012823          	sw	zero,48(sp)
   13250:	417686b3          	sub	a3,a3,s7
   13254:	02d12423          	sw	a3,40(sp)
   13258:	b41ff06f          	j	12d98 <_dtoa_r+0x2a0>
   1325c:	02812703          	lw	a4,40(sp)
   13260:	000c0d93          	mv	s11,s8
   13264:	00000b13          	li	s6,0
   13268:	02e12023          	sw	a4,32(sp)
   1326c:	02012783          	lw	a5,32(sp)
   13270:	02078863          	beqz	a5,132a0 <_dtoa_r+0x7a8>
   13274:	03a05663          	blez	s10,132a0 <_dtoa_r+0x7a8>
   13278:	02012703          	lw	a4,32(sp)
   1327c:	000d0793          	mv	a5,s10
   13280:	41a74463          	blt	a4,s10,13688 <_dtoa_r+0xb90>
   13284:	02812683          	lw	a3,40(sp)
   13288:	02012703          	lw	a4,32(sp)
   1328c:	40fd0d33          	sub	s10,s10,a5
   13290:	40f686b3          	sub	a3,a3,a5
   13294:	40f70733          	sub	a4,a4,a5
   13298:	02d12423          	sw	a3,40(sp)
   1329c:	02e12023          	sw	a4,32(sp)
   132a0:	05805c63          	blez	s8,132f8 <_dtoa_r+0x800>
   132a4:	02c12783          	lw	a5,44(sp)
   132a8:	66078063          	beqz	a5,13908 <_dtoa_r+0xe10>
   132ac:	05b05263          	blez	s11,132f0 <_dtoa_r+0x7f8>
   132b0:	000b0593          	mv	a1,s6
   132b4:	000d8613          	mv	a2,s11
   132b8:	00040513          	mv	a0,s0
   132bc:	75c020ef          	jal	15a18 <__pow5mult>
   132c0:	00050b13          	mv	s6,a0
   132c4:	000a0613          	mv	a2,s4
   132c8:	000b0593          	mv	a1,s6
   132cc:	00040513          	mv	a0,s0
   132d0:	554020ef          	jal	15824 <__multiply>
   132d4:	00050793          	mv	a5,a0
   132d8:	000a0593          	mv	a1,s4
   132dc:	00040513          	mv	a0,s0
   132e0:	00f12623          	sw	a5,12(sp)
   132e4:	1a4020ef          	jal	15488 <_Bfree>
   132e8:	00c12783          	lw	a5,12(sp)
   132ec:	00078a13          	mv	s4,a5
   132f0:	41bc0633          	sub	a2,s8,s11
   132f4:	40061463          	bnez	a2,136fc <_dtoa_r+0xc04>
   132f8:	00040513          	mv	a0,s0
   132fc:	00100593          	li	a1,1
   13300:	4f0020ef          	jal	157f0 <__i2b>
   13304:	03012683          	lw	a3,48(sp)
   13308:	00050c13          	mv	s8,a0
   1330c:	04d05463          	blez	a3,13354 <_dtoa_r+0x85c>
   13310:	000c0593          	mv	a1,s8
   13314:	00040513          	mv	a0,s0
   13318:	00068613          	mv	a2,a3
   1331c:	6fc020ef          	jal	15a18 <__pow5mult>
   13320:	00100793          	li	a5,1
   13324:	00050c13          	mv	s8,a0
   13328:	3f57d463          	ble	s5,a5,13710 <_dtoa_r+0xc18>
   1332c:	02012e23          	sw	zero,60(sp)
   13330:	010c2783          	lw	a5,16(s8)
   13334:	00378793          	addi	a5,a5,3
   13338:	00279793          	slli	a5,a5,0x2
   1333c:	00fc07b3          	add	a5,s8,a5
   13340:	0047a503          	lw	a0,4(a5)
   13344:	384020ef          	jal	156c8 <__hi0bits>
   13348:	02000793          	li	a5,32
   1334c:	40a78533          	sub	a0,a5,a0
   13350:	01c0006f          	j	1336c <_dtoa_r+0x874>
   13354:	00100793          	li	a5,1
   13358:	02012e23          	sw	zero,60(sp)
   1335c:	4f57da63          	ble	s5,a5,13850 <_dtoa_r+0xd58>
   13360:	03012783          	lw	a5,48(sp)
   13364:	00100513          	li	a0,1
   13368:	fc0794e3          	bnez	a5,13330 <_dtoa_r+0x838>
   1336c:	01a50533          	add	a0,a0,s10
   13370:	01f57513          	andi	a0,a0,31
   13374:	1c050463          	beqz	a0,1353c <_dtoa_r+0xa44>
   13378:	02000793          	li	a5,32
   1337c:	40a787b3          	sub	a5,a5,a0
   13380:	00400713          	li	a4,4
   13384:	08f754e3          	ble	a5,a4,13c0c <_dtoa_r+0x1114>
   13388:	02812683          	lw	a3,40(sp)
   1338c:	02012703          	lw	a4,32(sp)
   13390:	01c00793          	li	a5,28
   13394:	40a78533          	sub	a0,a5,a0
   13398:	00a686b3          	add	a3,a3,a0
   1339c:	00a70733          	add	a4,a4,a0
   133a0:	02d12423          	sw	a3,40(sp)
   133a4:	02e12023          	sw	a4,32(sp)
   133a8:	00ad0d33          	add	s10,s10,a0
   133ac:	02812783          	lw	a5,40(sp)
   133b0:	00f05c63          	blez	a5,133c8 <_dtoa_r+0x8d0>
   133b4:	000a0593          	mv	a1,s4
   133b8:	00040513          	mv	a0,s0
   133bc:	00078613          	mv	a2,a5
   133c0:	790020ef          	jal	15b50 <__lshift>
   133c4:	00050a13          	mv	s4,a0
   133c8:	01a05c63          	blez	s10,133e0 <_dtoa_r+0x8e8>
   133cc:	000c0593          	mv	a1,s8
   133d0:	00040513          	mv	a0,s0
   133d4:	000d0613          	mv	a2,s10
   133d8:	778020ef          	jal	15b50 <__lshift>
   133dc:	00050c13          	mv	s8,a0
   133e0:	03412683          	lw	a3,52(sp)
   133e4:	18069a63          	bnez	a3,13578 <_dtoa_r+0xa80>
   133e8:	01012703          	lw	a4,16(sp)
   133ec:	46e05663          	blez	a4,13858 <_dtoa_r+0xd60>
   133f0:	02c12703          	lw	a4,44(sp)
   133f4:	1c070263          	beqz	a4,135b8 <_dtoa_r+0xac0>
   133f8:	02012783          	lw	a5,32(sp)
   133fc:	00f05c63          	blez	a5,13414 <_dtoa_r+0x91c>
   13400:	000b0593          	mv	a1,s6
   13404:	00040513          	mv	a0,s0
   13408:	00078613          	mv	a2,a5
   1340c:	744020ef          	jal	15b50 <__lshift>
   13410:	00050b13          	mv	s6,a0
   13414:	03c12703          	lw	a4,60(sp)
   13418:	000b0c93          	mv	s9,s6
   1341c:	5a071c63          	bnez	a4,139d4 <_dtoa_r+0xedc>
   13420:	01012783          	lw	a5,16(sp)
   13424:	00197713          	andi	a4,s2,1
   13428:	00148993          	addi	s3,s1,1
   1342c:	00f487b3          	add	a5,s1,a5
   13430:	02f12023          	sw	a5,32(sp)
   13434:	02e12423          	sw	a4,40(sp)
   13438:	000c0593          	mv	a1,s8
   1343c:	000a0513          	mv	a0,s4
   13440:	cd0ff0ef          	jal	12910 <quorem>
   13444:	00050d93          	mv	s11,a0
   13448:	000b0593          	mv	a1,s6
   1344c:	000a0513          	mv	a0,s4
   13450:	055020ef          	jal	15ca4 <__mcmp>
   13454:	00050913          	mv	s2,a0
   13458:	000c0593          	mv	a1,s8
   1345c:	00040513          	mv	a0,s0
   13460:	000c8613          	mv	a2,s9
   13464:	0a1020ef          	jal	15d04 <__mdiff>
   13468:	00c52683          	lw	a3,12(a0)
   1346c:	fff98713          	addi	a4,s3,-1
   13470:	00e12823          	sw	a4,16(sp)
   13474:	00050793          	mv	a5,a0
   13478:	030d8d13          	addi	s10,s11,48
   1347c:	00100713          	li	a4,1
   13480:	00069e63          	bnez	a3,1349c <_dtoa_r+0x9a4>
   13484:	00078593          	mv	a1,a5
   13488:	000a0513          	mv	a0,s4
   1348c:	00f12623          	sw	a5,12(sp)
   13490:	015020ef          	jal	15ca4 <__mcmp>
   13494:	00c12783          	lw	a5,12(sp)
   13498:	00050713          	mv	a4,a0
   1349c:	00078593          	mv	a1,a5
   134a0:	00040513          	mv	a0,s0
   134a4:	00e12623          	sw	a4,12(sp)
   134a8:	7e1010ef          	jal	15488 <_Bfree>
   134ac:	00c12703          	lw	a4,12(sp)
   134b0:	015767b3          	or	a5,a4,s5
   134b4:	00079663          	bnez	a5,134c0 <_dtoa_r+0x9c8>
   134b8:	02812783          	lw	a5,40(sp)
   134bc:	2a078263          	beqz	a5,13760 <_dtoa_r+0xc68>
   134c0:	2c094463          	bltz	s2,13788 <_dtoa_r+0xc90>
   134c4:	01596933          	or	s2,s2,s5
   134c8:	00091663          	bnez	s2,134d4 <_dtoa_r+0x9dc>
   134cc:	02812783          	lw	a5,40(sp)
   134d0:	2a078c63          	beqz	a5,13788 <_dtoa_r+0xc90>
   134d4:	5ee04063          	bgtz	a4,13ab4 <_dtoa_r+0xfbc>
   134d8:	02012703          	lw	a4,32(sp)
   134dc:	00098d93          	mv	s11,s3
   134e0:	ffa98fa3          	sb	s10,-1(s3)
   134e4:	5ee98063          	beq	s3,a4,13ac4 <_dtoa_r+0xfcc>
   134e8:	000a0593          	mv	a1,s4
   134ec:	00040513          	mv	a0,s0
   134f0:	00a00613          	li	a2,10
   134f4:	00000693          	li	a3,0
   134f8:	7b5010ef          	jal	154ac <__multadd>
   134fc:	00050a13          	mv	s4,a0
   13500:	2d9b0863          	beq	s6,s9,137d0 <_dtoa_r+0xcd8>
   13504:	000b0593          	mv	a1,s6
   13508:	00a00613          	li	a2,10
   1350c:	00000693          	li	a3,0
   13510:	00040513          	mv	a0,s0
   13514:	799010ef          	jal	154ac <__multadd>
   13518:	00050b13          	mv	s6,a0
   1351c:	000c8593          	mv	a1,s9
   13520:	00040513          	mv	a0,s0
   13524:	00a00613          	li	a2,10
   13528:	00000693          	li	a3,0
   1352c:	781010ef          	jal	154ac <__multadd>
   13530:	00050c93          	mv	s9,a0
   13534:	00198993          	addi	s3,s3,1
   13538:	f01ff06f          	j	13438 <_dtoa_r+0x940>
   1353c:	01c00513          	li	a0,28
   13540:	02812783          	lw	a5,40(sp)
   13544:	02012703          	lw	a4,32(sp)
   13548:	00ad0d33          	add	s10,s10,a0
   1354c:	00a787b3          	add	a5,a5,a0
   13550:	00a70733          	add	a4,a4,a0
   13554:	02f12423          	sw	a5,40(sp)
   13558:	02e12023          	sw	a4,32(sp)
   1355c:	e51ff06f          	j	133ac <_dtoa_r+0x8b4>
   13560:	02012a23          	sw	zero,52(sp)
   13564:	815ff06f          	j	12d78 <_dtoa_r+0x280>
   13568:	bee00493          	li	s1,-1042
   1356c:	40c484b3          	sub	s1,s1,a2
   13570:	009914b3          	sll	s1,s2,s1
   13574:	f68ff06f          	j	12cdc <_dtoa_r+0x1e4>
   13578:	000a0513          	mv	a0,s4
   1357c:	000c0593          	mv	a1,s8
   13580:	724020ef          	jal	15ca4 <__mcmp>
   13584:	e60552e3          	bgez	a0,133e8 <_dtoa_r+0x8f0>
   13588:	000a0593          	mv	a1,s4
   1358c:	00040513          	mv	a0,s0
   13590:	00a00613          	li	a2,10
   13594:	00000693          	li	a3,0
   13598:	715010ef          	jal	154ac <__multadd>
   1359c:	02c12703          	lw	a4,44(sp)
   135a0:	00050a13          	mv	s4,a0
   135a4:	fffb8b93          	addi	s7,s7,-1
   135a8:	60071463          	bnez	a4,13bb0 <_dtoa_r+0x10b8>
   135ac:	03812703          	lw	a4,56(sp)
   135b0:	62e05463          	blez	a4,13bd8 <_dtoa_r+0x10e0>
   135b4:	00e12823          	sw	a4,16(sp)
   135b8:	00048913          	mv	s2,s1
   135bc:	00c0006f          	j	135c8 <_dtoa_r+0xad0>
   135c0:	6ed010ef          	jal	154ac <__multadd>
   135c4:	00050a13          	mv	s4,a0
   135c8:	000c0593          	mv	a1,s8
   135cc:	000a0513          	mv	a0,s4
   135d0:	b40ff0ef          	jal	12910 <quorem>
   135d4:	01012703          	lw	a4,16(sp)
   135d8:	00190913          	addi	s2,s2,1
   135dc:	03050d13          	addi	s10,a0,48
   135e0:	409907b3          	sub	a5,s2,s1
   135e4:	00040513          	mv	a0,s0
   135e8:	000a0593          	mv	a1,s4
   135ec:	00a00613          	li	a2,10
   135f0:	00000693          	li	a3,0
   135f4:	ffa90fa3          	sb	s10,-1(s2)
   135f8:	fce7c4e3          	blt	a5,a4,135c0 <_dtoa_r+0xac8>
   135fc:	00070d93          	mv	s11,a4
   13600:	4ee05063          	blez	a4,13ae0 <_dtoa_r+0xfe8>
   13604:	01b48db3          	add	s11,s1,s11
   13608:	00000913          	li	s2,0
   1360c:	000a0593          	mv	a1,s4
   13610:	00100613          	li	a2,1
   13614:	00040513          	mv	a0,s0
   13618:	538020ef          	jal	15b50 <__lshift>
   1361c:	000c0593          	mv	a1,s8
   13620:	00050a13          	mv	s4,a0
   13624:	680020ef          	jal	15ca4 <__mcmp>
   13628:	30a05063          	blez	a0,13928 <_dtoa_r+0xe30>
   1362c:	fffdc683          	lbu	a3,-1(s11)
   13630:	03900613          	li	a2,57
   13634:	0100006f          	j	13644 <_dtoa_r+0xb4c>
   13638:	26e48663          	beq	s1,a4,138a4 <_dtoa_r+0xdac>
   1363c:	fff74683          	lbu	a3,-1(a4)
   13640:	00070d93          	mv	s11,a4
   13644:	fffd8713          	addi	a4,s11,-1
   13648:	fec688e3          	beq	a3,a2,13638 <_dtoa_r+0xb40>
   1364c:	00168693          	addi	a3,a3,1
   13650:	00d70023          	sb	a3,0(a4)
   13654:	00040513          	mv	a0,s0
   13658:	000c0593          	mv	a1,s8
   1365c:	62d010ef          	jal	15488 <_Bfree>
   13660:	980b04e3          	beqz	s6,12fe8 <_dtoa_r+0x4f0>
   13664:	00090a63          	beqz	s2,13678 <_dtoa_r+0xb80>
   13668:	01690863          	beq	s2,s6,13678 <_dtoa_r+0xb80>
   1366c:	00040513          	mv	a0,s0
   13670:	00090593          	mv	a1,s2
   13674:	615010ef          	jal	15488 <_Bfree>
   13678:	00040513          	mv	a0,s0
   1367c:	000b0593          	mv	a1,s6
   13680:	609010ef          	jal	15488 <_Bfree>
   13684:	965ff06f          	j	12fe8 <_dtoa_r+0x4f0>
   13688:	00070793          	mv	a5,a4
   1368c:	bf9ff06f          	j	13284 <_dtoa_r+0x78c>
   13690:	00100713          	li	a4,1
   13694:	02e12623          	sw	a4,44(sp)
   13698:	15905e63          	blez	s9,137f4 <_dtoa_r+0xcfc>
   1369c:	000c8513          	mv	a0,s9
   136a0:	000c8613          	mv	a2,s9
   136a4:	03912c23          	sw	s9,56(sp)
   136a8:	01912823          	sw	s9,16(sp)
   136ac:	f48ff06f          	j	12df4 <_dtoa_r+0x2fc>
   136b0:	01012703          	lw	a4,16(sp)
   136b4:	a0e04ee3          	bgtz	a4,130d0 <_dtoa_r+0x5d8>
   136b8:	24071263          	bnez	a4,138fc <_dtoa_r+0xe04>
   136bc:	8581b007          	fld	ft0,-1960(gp) # 1cdd8 <__wctomb+0x40>
   136c0:	01212023          	sw	s2,0(sp)
   136c4:	01312223          	sw	s3,4(sp)
   136c8:	120b7b53          	fmul.d	fs6,fs6,ft0
   136cc:	00013007          	fld	ft0,0(sp)
   136d0:	00000c13          	li	s8,0
   136d4:	00000b13          	li	s6,0
   136d8:	a3600953          	fle.d	s2,ft0,fs6
   136dc:	1a090a63          	beqz	s2,13890 <_dtoa_r+0xd98>
   136e0:	fffccb93          	not	s7,s9
   136e4:	00048d93          	mv	s11,s1
   136e8:	00040513          	mv	a0,s0
   136ec:	000c0593          	mv	a1,s8
   136f0:	599010ef          	jal	15488 <_Bfree>
   136f4:	f80b12e3          	bnez	s6,13678 <_dtoa_r+0xb80>
   136f8:	8f1ff06f          	j	12fe8 <_dtoa_r+0x4f0>
   136fc:	000a0593          	mv	a1,s4
   13700:	00040513          	mv	a0,s0
   13704:	314020ef          	jal	15a18 <__pow5mult>
   13708:	00050a13          	mv	s4,a0
   1370c:	bedff06f          	j	132f8 <_dtoa_r+0x800>
   13710:	c0091ee3          	bnez	s2,1332c <_dtoa_r+0x834>
   13714:	00c99713          	slli	a4,s3,0xc
   13718:	02012e23          	sw	zero,60(sp)
   1371c:	c40712e3          	bnez	a4,13360 <_dtoa_r+0x868>
   13720:	7ff007b7          	lui	a5,0x7ff00
   13724:	0137f7b3          	and	a5,a5,s3
   13728:	c2078ce3          	beqz	a5,13360 <_dtoa_r+0x868>
   1372c:	02812783          	lw	a5,40(sp)
   13730:	00100713          	li	a4,1
   13734:	001d0d13          	addi	s10,s10,1
   13738:	00178793          	addi	a5,a5,1 # 7ff00001 <_gp+0x7fee2a81>
   1373c:	02f12423          	sw	a5,40(sp)
   13740:	02e12e23          	sw	a4,60(sp)
   13744:	c1dff06f          	j	13360 <_dtoa_r+0x868>
   13748:	3a0b0063          	beqz	s6,13ae8 <_dtoa_r+0xff0>
   1374c:	02812683          	lw	a3,40(sp)
   13750:	43378793          	addi	a5,a5,1075
   13754:	000c0d93          	mv	s11,s8
   13758:	02d12023          	sw	a3,32(sp)
   1375c:	aa9ff06f          	j	13204 <_dtoa_r+0x70c>
   13760:	03900793          	li	a5,57
   13764:	3efd0463          	beq	s10,a5,13b4c <_dtoa_r+0x1054>
   13768:	01205463          	blez	s2,13770 <_dtoa_r+0xc78>
   1376c:	031d8d13          	addi	s10,s11,49
   13770:	01012683          	lw	a3,16(sp)
   13774:	000b0913          	mv	s2,s6
   13778:	000c8b13          	mv	s6,s9
   1377c:	00168d93          	addi	s11,a3,1
   13780:	01a68023          	sb	s10,0(a3)
   13784:	ed1ff06f          	j	13654 <_dtoa_r+0xb5c>
   13788:	02e05863          	blez	a4,137b8 <_dtoa_r+0xcc0>
   1378c:	000a0593          	mv	a1,s4
   13790:	00100613          	li	a2,1
   13794:	00040513          	mv	a0,s0
   13798:	3b8020ef          	jal	15b50 <__lshift>
   1379c:	000c0593          	mv	a1,s8
   137a0:	00050a13          	mv	s4,a0
   137a4:	500020ef          	jal	15ca4 <__mcmp>
   137a8:	3ea05c63          	blez	a0,13ba0 <_dtoa_r+0x10a8>
   137ac:	03900793          	li	a5,57
   137b0:	38fd0e63          	beq	s10,a5,13b4c <_dtoa_r+0x1054>
   137b4:	001d0d13          	addi	s10,s10,1
   137b8:	01012703          	lw	a4,16(sp)
   137bc:	000b0913          	mv	s2,s6
   137c0:	000c8b13          	mv	s6,s9
   137c4:	00170d93          	addi	s11,a4,1
   137c8:	01a70023          	sb	s10,0(a4)
   137cc:	e89ff06f          	j	13654 <_dtoa_r+0xb5c>
   137d0:	000b0593          	mv	a1,s6
   137d4:	00040513          	mv	a0,s0
   137d8:	00a00613          	li	a2,10
   137dc:	00000693          	li	a3,0
   137e0:	4cd010ef          	jal	154ac <__multadd>
   137e4:	00050b13          	mv	s6,a0
   137e8:	00050c93          	mv	s9,a0
   137ec:	00198993          	addi	s3,s3,1
   137f0:	c49ff06f          	j	13438 <_dtoa_r+0x940>
   137f4:	00100613          	li	a2,1
   137f8:	02c12c23          	sw	a2,56(sp)
   137fc:	00c12823          	sw	a2,16(sp)
   13800:	00060c93          	mv	s9,a2
   13804:	04042223          	sw	zero,68(s0)
   13808:	00000593          	li	a1,0
   1380c:	e18ff06f          	j	12e24 <_dtoa_r+0x32c>
   13810:	00200793          	li	a5,2
   13814:	02012623          	sw	zero,44(sp)
   13818:	e8fa80e3          	beq	s5,a5,13698 <_dtoa_r+0xba0>
   1381c:	04042223          	sw	zero,68(s0)
   13820:	00040513          	mv	a0,s0
   13824:	00000593          	li	a1,0
   13828:	3bd010ef          	jal	153e4 <_Balloc>
   1382c:	fff00793          	li	a5,-1
   13830:	00100713          	li	a4,1
   13834:	00050493          	mv	s1,a0
   13838:	00f12823          	sw	a5,16(sp)
   1383c:	04a42023          	sw	a0,64(s0)
   13840:	02e12623          	sw	a4,44(sp)
   13844:	00000c93          	li	s9,0
   13848:	02f12c23          	sw	a5,56(sp)
   1384c:	85dff06f          	j	130a8 <_dtoa_r+0x5b0>
   13850:	b00918e3          	bnez	s2,13360 <_dtoa_r+0x868>
   13854:	ec1ff06f          	j	13714 <_dtoa_r+0xc1c>
   13858:	00200793          	li	a5,2
   1385c:	b957dae3          	ble	s5,a5,133f0 <_dtoa_r+0x8f8>
   13860:	01012783          	lw	a5,16(sp)
   13864:	e6079ee3          	bnez	a5,136e0 <_dtoa_r+0xbe8>
   13868:	000c0593          	mv	a1,s8
   1386c:	00040513          	mv	a0,s0
   13870:	00500613          	li	a2,5
   13874:	00000693          	li	a3,0
   13878:	435010ef          	jal	154ac <__multadd>
   1387c:	00050c13          	mv	s8,a0
   13880:	000c0593          	mv	a1,s8
   13884:	000a0513          	mv	a0,s4
   13888:	41c020ef          	jal	15ca4 <__mcmp>
   1388c:	e4a05ae3          	blez	a0,136e0 <_dtoa_r+0xbe8>
   13890:	03100713          	li	a4,49
   13894:	00148d93          	addi	s11,s1,1
   13898:	00e48023          	sb	a4,0(s1)
   1389c:	001b8b93          	addi	s7,s7,1
   138a0:	e49ff06f          	j	136e8 <_dtoa_r+0xbf0>
   138a4:	03100713          	li	a4,49
   138a8:	001b8b93          	addi	s7,s7,1
   138ac:	00e48023          	sb	a4,0(s1)
   138b0:	da5ff06f          	j	13654 <_dtoa_r+0xb5c>
   138b4:	8501b087          	fld	ft1,-1968(gp) # 1cdd0 <__wctomb+0x38>
   138b8:	d2098053          	fcvt.d.w	ft0,s3
   138bc:	fcc007b7          	lui	a5,0xfcc00
   138c0:	0a8070c3          	fmadd.d	ft1,ft0,fs0,ft1
   138c4:	00113027          	fsd	ft1,0(sp)
   138c8:	00412983          	lw	s3,4(sp)
   138cc:	00012903          	lw	s2,0(sp)
   138d0:	013789b3          	add	s3,a5,s3
   138d4:	8581b007          	fld	ft0,-1960(gp) # 1cdd8 <__wctomb+0x40>
   138d8:	01212023          	sw	s2,0(sp)
   138dc:	01312223          	sw	s3,4(sp)
   138e0:	0a047053          	fsub.d	ft0,fs0,ft0
   138e4:	00013087          	fld	ft1,0(sp)
   138e8:	a20097d3          	flt.d	a5,ft1,ft0
   138ec:	12079463          	bnez	a5,13a14 <_dtoa_r+0xf1c>
   138f0:	221090d3          	fneg.d	ft1,ft1
   138f4:	a21017d3          	flt.d	a5,ft0,ft1
   138f8:	04078c63          	beqz	a5,13950 <_dtoa_r+0xe58>
   138fc:	00000c13          	li	s8,0
   13900:	00000b13          	li	s6,0
   13904:	dddff06f          	j	136e0 <_dtoa_r+0xbe8>
   13908:	000a0593          	mv	a1,s4
   1390c:	00040513          	mv	a0,s0
   13910:	000c0613          	mv	a2,s8
   13914:	104020ef          	jal	15a18 <__pow5mult>
   13918:	00050a13          	mv	s4,a0
   1391c:	9ddff06f          	j	132f8 <_dtoa_r+0x800>
   13920:	02012623          	sw	zero,44(sp)
   13924:	cb4ff06f          	j	12dd8 <_dtoa_r+0x2e0>
   13928:	00051663          	bnez	a0,13934 <_dtoa_r+0xe3c>
   1392c:	01fd1793          	slli	a5,s10,0x1f
   13930:	ce07cee3          	bltz	a5,1362c <_dtoa_r+0xb34>
   13934:	03000613          	li	a2,48
   13938:	0080006f          	j	13940 <_dtoa_r+0xe48>
   1393c:	00068d93          	mv	s11,a3
   13940:	fffdc703          	lbu	a4,-1(s11)
   13944:	fffd8693          	addi	a3,s11,-1
   13948:	fec70ae3          	beq	a4,a2,1393c <_dtoa_r+0xe44>
   1394c:	d09ff06f          	j	13654 <_dtoa_r+0xb5c>
   13950:	02012903          	lw	s2,32(sp)
   13954:	02412983          	lw	s3,36(sp)
   13958:	f50ff06f          	j	130a8 <_dtoa_r+0x5b0>
   1395c:	03000713          	li	a4,48
   13960:	00e48023          	sb	a4,0(s1)
   13964:	001b8b93          	addi	s7,s7,1
   13968:	00048693          	mv	a3,s1
   1396c:	03100713          	li	a4,49
   13970:	845ff06f          	j	131b4 <_dtoa_r+0x6bc>
   13974:	417007b3          	neg	a5,s7
   13978:	02013407          	fld	fs0,32(sp)
   1397c:	00200993          	li	s3,2
   13980:	d4078a63          	beqz	a5,12ed4 <_dtoa_r+0x3dc>
   13984:	00f7f713          	andi	a4,a5,15
   13988:	00371693          	slli	a3,a4,0x3
   1398c:	0001b737          	lui	a4,0x1b
   13990:	e7870713          	addi	a4,a4,-392 # 1ae78 <__mprec_tens>
   13994:	00e68733          	add	a4,a3,a4
   13998:	00073007          	fld	ft0,0(a4)
   1399c:	4047d793          	srai	a5,a5,0x4
   139a0:	12047453          	fmul.d	fs0,fs0,ft0
   139a4:	d2078863          	beqz	a5,12ed4 <_dtoa_r+0x3dc>
   139a8:	0001b737          	lui	a4,0x1b
   139ac:	f6870713          	addi	a4,a4,-152 # 1af68 <__mprec_bigtens>
   139b0:	01f79693          	slli	a3,a5,0x1f
   139b4:	0006d863          	bgez	a3,139c4 <_dtoa_r+0xecc>
   139b8:	00073007          	fld	ft0,0(a4)
   139bc:	00198993          	addi	s3,s3,1
   139c0:	12047453          	fmul.d	fs0,fs0,ft0
   139c4:	4017d793          	srai	a5,a5,0x1
   139c8:	00870713          	addi	a4,a4,8
   139cc:	fe0792e3          	bnez	a5,139b0 <_dtoa_r+0xeb8>
   139d0:	d04ff06f          	j	12ed4 <_dtoa_r+0x3dc>
   139d4:	004b2583          	lw	a1,4(s6)
   139d8:	00040513          	mv	a0,s0
   139dc:	209010ef          	jal	153e4 <_Balloc>
   139e0:	010b2603          	lw	a2,16(s6)
   139e4:	00050c93          	mv	s9,a0
   139e8:	00cb0593          	addi	a1,s6,12
   139ec:	00260613          	addi	a2,a2,2
   139f0:	00261613          	slli	a2,a2,0x2
   139f4:	00c50513          	addi	a0,a0,12
   139f8:	7d4010ef          	jal	151cc <memcpy>
   139fc:	000c8593          	mv	a1,s9
   13a00:	00040513          	mv	a0,s0
   13a04:	00100613          	li	a2,1
   13a08:	148020ef          	jal	15b50 <__lshift>
   13a0c:	00050c93          	mv	s9,a0
   13a10:	a11ff06f          	j	13420 <_dtoa_r+0x928>
   13a14:	00000c13          	li	s8,0
   13a18:	00000b13          	li	s6,0
   13a1c:	e75ff06f          	j	13890 <_dtoa_r+0xd98>
   13a20:	fff58513          	addi	a0,a1,-1 # 3fefffff <_gp+0x3fee2a7f>
   13a24:	0001b7b7          	lui	a5,0x1b
   13a28:	00351713          	slli	a4,a0,0x3
   13a2c:	e7878793          	addi	a5,a5,-392 # 1ae78 <__mprec_tens>
   13a30:	00f707b3          	add	a5,a4,a5
   13a34:	01212023          	sw	s2,0(sp)
   13a38:	01312223          	sw	s3,4(sp)
   13a3c:	0007b187          	fld	ft3,0(a5)
   13a40:	00013107          	fld	ft2,0(sp)
   13a44:	c20417d3          	fcvt.w.d	a5,fs0,rtz
   13a48:	03078713          	addi	a4,a5,48
   13a4c:	d2078053          	fcvt.d.w	ft0,a5
   13a50:	00e48023          	sb	a4,0(s1)
   13a54:	00100713          	li	a4,1
   13a58:	1221f1d3          	fmul.d	ft3,ft3,ft2
   13a5c:	0a047053          	fsub.d	ft0,fs0,ft0
   13a60:	00148d93          	addi	s11,s1,1
   13a64:	02e58a63          	beq	a1,a4,13a98 <_dtoa_r+0xfa0>
   13a68:	8481b107          	fld	ft2,-1976(gp) # 1cdc8 <__wctomb+0x30>
   13a6c:	00b485b3          	add	a1,s1,a1
   13a70:	000d8693          	mv	a3,s11
   13a74:	12207053          	fmul.d	ft0,ft0,ft2
   13a78:	00168693          	addi	a3,a3,1
   13a7c:	c2001753          	fcvt.w.d	a4,ft0,rtz
   13a80:	d20700d3          	fcvt.d.w	ft1,a4
   13a84:	03070713          	addi	a4,a4,48
   13a88:	0a107053          	fsub.d	ft0,ft0,ft1
   13a8c:	fee68fa3          	sb	a4,-1(a3)
   13a90:	feb692e3          	bne	a3,a1,13a74 <_dtoa_r+0xf7c>
   13a94:	00ad8db3          	add	s11,s11,a0
   13a98:	8601b087          	fld	ft1,-1952(gp) # 1cde0 <__wctomb+0x48>
   13a9c:	0211f153          	fadd.d	ft2,ft3,ft1
   13aa0:	a2011753          	flt.d	a4,ft2,ft0
   13aa4:	0c070463          	beqz	a4,13b6c <_dtoa_r+0x1074>
   13aa8:	fffdc703          	lbu	a4,-1(s11)
   13aac:	00060b93          	mv	s7,a2
   13ab0:	ee0ff06f          	j	13190 <_dtoa_r+0x698>
   13ab4:	03900793          	li	a5,57
   13ab8:	08fd0a63          	beq	s10,a5,13b4c <_dtoa_r+0x1054>
   13abc:	001d0d13          	addi	s10,s10,1
   13ac0:	cb1ff06f          	j	13770 <_dtoa_r+0xc78>
   13ac4:	000b0913          	mv	s2,s6
   13ac8:	000c8b13          	mv	s6,s9
   13acc:	b41ff06f          	j	1360c <_dtoa_r+0xb14>
   13ad0:	40f707b3          	sub	a5,a4,a5
   13ad4:	02f12023          	sw	a5,32(sp)
   13ad8:	00000793          	li	a5,0
   13adc:	f28ff06f          	j	13204 <_dtoa_r+0x70c>
   13ae0:	00100d93          	li	s11,1
   13ae4:	b21ff06f          	j	13604 <_dtoa_r+0xb0c>
   13ae8:	04812683          	lw	a3,72(sp)
   13aec:	02812703          	lw	a4,40(sp)
   13af0:	03600793          	li	a5,54
   13af4:	000c0d93          	mv	s11,s8
   13af8:	40d787b3          	sub	a5,a5,a3
   13afc:	02e12023          	sw	a4,32(sp)
   13b00:	f04ff06f          	j	13204 <_dtoa_r+0x70c>
   13b04:	01012783          	lw	a5,16(sp)
   13b08:	da0786e3          	beqz	a5,138b4 <_dtoa_r+0xdbc>
   13b0c:	03812703          	lw	a4,56(sp)
   13b10:	e4e050e3          	blez	a4,13950 <_dtoa_r+0xe58>
   13b14:	8481b007          	fld	ft0,-1976(gp) # 1cdc8 <__wctomb+0x30>
   13b18:	8501b087          	fld	ft1,-1968(gp) # 1cdd0 <__wctomb+0x38>
   13b1c:	12047453          	fmul.d	fs0,fs0,ft0
   13b20:	00198993          	addi	s3,s3,1
   13b24:	d2098053          	fcvt.d.w	ft0,s3
   13b28:	fcc007b7          	lui	a5,0xfcc00
   13b2c:	fffb8613          	addi	a2,s7,-1
   13b30:	03812583          	lw	a1,56(sp)
   13b34:	0a0470c3          	fmadd.d	ft1,fs0,ft0,ft1
   13b38:	00113027          	fsd	ft1,0(sp)
   13b3c:	00412983          	lw	s3,4(sp)
   13b40:	00012903          	lw	s2,0(sp)
   13b44:	013789b3          	add	s3,a5,s3
   13b48:	bd0ff06f          	j	12f18 <_dtoa_r+0x420>
   13b4c:	01012783          	lw	a5,16(sp)
   13b50:	03900713          	li	a4,57
   13b54:	000b0913          	mv	s2,s6
   13b58:	00178d93          	addi	s11,a5,1 # fcc00001 <_gp+0xfcbe2a81>
   13b5c:	000c8b13          	mv	s6,s9
   13b60:	00e78023          	sb	a4,0(a5)
   13b64:	03900693          	li	a3,57
   13b68:	ac9ff06f          	j	13630 <_dtoa_r+0xb38>
   13b6c:	0a30f1d3          	fsub.d	ft3,ft1,ft3
   13b70:	03000593          	li	a1,48
   13b74:	a2301753          	flt.d	a4,ft0,ft3
   13b78:	00071663          	bnez	a4,13b84 <_dtoa_r+0x108c>
   13b7c:	dd5ff06f          	j	13950 <_dtoa_r+0xe58>
   13b80:	00068d93          	mv	s11,a3
   13b84:	fffdc703          	lbu	a4,-1(s11)
   13b88:	fffd8693          	addi	a3,s11,-1
   13b8c:	feb70ae3          	beq	a4,a1,13b80 <_dtoa_r+0x1088>
   13b90:	00060b93          	mv	s7,a2
   13b94:	c54ff06f          	j	12fe8 <_dtoa_r+0x4f0>
   13b98:	00060b93          	mv	s7,a2
   13b9c:	df4ff06f          	j	13190 <_dtoa_r+0x698>
   13ba0:	c0051ce3          	bnez	a0,137b8 <_dtoa_r+0xcc0>
   13ba4:	01fd1693          	slli	a3,s10,0x1f
   13ba8:	c006d8e3          	bgez	a3,137b8 <_dtoa_r+0xcc0>
   13bac:	c01ff06f          	j	137ac <_dtoa_r+0xcb4>
   13bb0:	000b0593          	mv	a1,s6
   13bb4:	00040513          	mv	a0,s0
   13bb8:	00a00613          	li	a2,10
   13bbc:	00000693          	li	a3,0
   13bc0:	0ed010ef          	jal	154ac <__multadd>
   13bc4:	03812783          	lw	a5,56(sp)
   13bc8:	00050b13          	mv	s6,a0
   13bcc:	02f05663          	blez	a5,13bf8 <_dtoa_r+0x1100>
   13bd0:	00f12823          	sw	a5,16(sp)
   13bd4:	825ff06f          	j	133f8 <_dtoa_r+0x900>
   13bd8:	00200793          	li	a5,2
   13bdc:	0157c863          	blt	a5,s5,13bec <_dtoa_r+0x10f4>
   13be0:	03812783          	lw	a5,56(sp)
   13be4:	00f12823          	sw	a5,16(sp)
   13be8:	9d1ff06f          	j	135b8 <_dtoa_r+0xac0>
   13bec:	03812783          	lw	a5,56(sp)
   13bf0:	00f12823          	sw	a5,16(sp)
   13bf4:	c6dff06f          	j	13860 <_dtoa_r+0xd68>
   13bf8:	03812703          	lw	a4,56(sp)
   13bfc:	00200793          	li	a5,2
   13c00:	00e12823          	sw	a4,16(sp)
   13c04:	c557cee3          	blt	a5,s5,13860 <_dtoa_r+0xd68>
   13c08:	ff0ff06f          	j	133f8 <_dtoa_r+0x900>
   13c0c:	fae78063          	beq	a5,a4,133ac <_dtoa_r+0x8b4>
   13c10:	03c00793          	li	a5,60
   13c14:	40a78533          	sub	a0,a5,a0
   13c18:	929ff06f          	j	13540 <_dtoa_r+0xa48>

00013c1c <_fflush_r>:
   13c1c:	fe010113          	addi	sp,sp,-32
   13c20:	00812c23          	sw	s0,24(sp)
   13c24:	01312623          	sw	s3,12(sp)
   13c28:	00112e23          	sw	ra,28(sp)
   13c2c:	00912a23          	sw	s1,20(sp)
   13c30:	01212823          	sw	s2,16(sp)
   13c34:	00050993          	mv	s3,a0
   13c38:	00058413          	mv	s0,a1
   13c3c:	00050663          	beqz	a0,13c48 <_fflush_r+0x2c>
   13c40:	03852783          	lw	a5,56(a0)
   13c44:	18078863          	beqz	a5,13dd4 <_fflush_r+0x1b8>
   13c48:	00c41703          	lh	a4,12(s0)
   13c4c:	10070063          	beqz	a4,13d4c <_fflush_r+0x130>
   13c50:	00877793          	andi	a5,a4,8
   13c54:	10079c63          	bnez	a5,13d6c <_fflush_r+0x150>
   13c58:	000017b7          	lui	a5,0x1
   13c5c:	00442683          	lw	a3,4(s0)
   13c60:	80078793          	addi	a5,a5,-2048 # 800 <_ftext-0xf800>
   13c64:	00f767b3          	or	a5,a4,a5
   13c68:	00f41623          	sh	a5,12(s0)
   13c6c:	1ad05663          	blez	a3,13e18 <_fflush_r+0x1fc>
   13c70:	02842803          	lw	a6,40(s0)
   13c74:	0c080c63          	beqz	a6,13d4c <_fflush_r+0x130>
   13c78:	01079793          	slli	a5,a5,0x10
   13c7c:	0107d793          	srli	a5,a5,0x10
   13c80:	01379693          	slli	a3,a5,0x13
   13c84:	0009a483          	lw	s1,0(s3)
   13c88:	0009a023          	sw	zero,0(s3)
   13c8c:	1406dc63          	bgez	a3,13de4 <_fflush_r+0x1c8>
   13c90:	05042603          	lw	a2,80(s0)
   13c94:	41f65693          	srai	a3,a2,0x1f
   13c98:	0047f793          	andi	a5,a5,4
   13c9c:	04078263          	beqz	a5,13ce0 <_fflush_r+0xc4>
   13ca0:	00442503          	lw	a0,4(s0)
   13ca4:	03042703          	lw	a4,48(s0)
   13ca8:	40a607b3          	sub	a5,a2,a0
   13cac:	41f55513          	srai	a0,a0,0x1f
   13cb0:	00f635b3          	sltu	a1,a2,a5
   13cb4:	40a686b3          	sub	a3,a3,a0
   13cb8:	00078613          	mv	a2,a5
   13cbc:	40b686b3          	sub	a3,a3,a1
   13cc0:	02070063          	beqz	a4,13ce0 <_fflush_r+0xc4>
   13cc4:	03c42503          	lw	a0,60(s0)
   13cc8:	40a787b3          	sub	a5,a5,a0
   13ccc:	41f55513          	srai	a0,a0,0x1f
   13cd0:	00f63733          	sltu	a4,a2,a5
   13cd4:	40a686b3          	sub	a3,a3,a0
   13cd8:	00078613          	mv	a2,a5
   13cdc:	40e686b3          	sub	a3,a3,a4
   13ce0:	01c42583          	lw	a1,28(s0)
   13ce4:	00098513          	mv	a0,s3
   13ce8:	00000713          	li	a4,0
   13cec:	000800e7          	jalr	a6
   13cf0:	fff00793          	li	a5,-1
   13cf4:	12f50863          	beq	a0,a5,13e24 <_fflush_r+0x208>
   13cf8:	00c45683          	lhu	a3,12(s0)
   13cfc:	fffff7b7          	lui	a5,0xfffff
   13d00:	7ff78793          	addi	a5,a5,2047 # fffff7ff <_gp+0xfffe227f>
   13d04:	01042703          	lw	a4,16(s0)
   13d08:	00f6f7b3          	and	a5,a3,a5
   13d0c:	01079793          	slli	a5,a5,0x10
   13d10:	4107d793          	srai	a5,a5,0x10
   13d14:	00e42023          	sw	a4,0(s0)
   13d18:	01379713          	slli	a4,a5,0x13
   13d1c:	00f41623          	sh	a5,12(s0)
   13d20:	00042223          	sw	zero,4(s0)
   13d24:	00075463          	bgez	a4,13d2c <_fflush_r+0x110>
   13d28:	04a42823          	sw	a0,80(s0)
   13d2c:	03042583          	lw	a1,48(s0)
   13d30:	0099a023          	sw	s1,0(s3)
   13d34:	00058c63          	beqz	a1,13d4c <_fflush_r+0x130>
   13d38:	04040793          	addi	a5,s0,64
   13d3c:	00f58663          	beq	a1,a5,13d48 <_fflush_r+0x12c>
   13d40:	00098513          	mv	a0,s3
   13d44:	60c000ef          	jal	14350 <_free_r>
   13d48:	02042823          	sw	zero,48(s0)
   13d4c:	00000513          	li	a0,0
   13d50:	01c12083          	lw	ra,28(sp)
   13d54:	01812403          	lw	s0,24(sp)
   13d58:	01412483          	lw	s1,20(sp)
   13d5c:	01012903          	lw	s2,16(sp)
   13d60:	00c12983          	lw	s3,12(sp)
   13d64:	02010113          	addi	sp,sp,32
   13d68:	00008067          	ret
   13d6c:	01042903          	lw	s2,16(s0)
   13d70:	fc090ee3          	beqz	s2,13d4c <_fflush_r+0x130>
   13d74:	00042483          	lw	s1,0(s0)
   13d78:	01e71693          	slli	a3,a4,0x1e
   13d7c:	00000793          	li	a5,0
   13d80:	01242023          	sw	s2,0(s0)
   13d84:	412484b3          	sub	s1,s1,s2
   13d88:	04068a63          	beqz	a3,13ddc <_fflush_r+0x1c0>
   13d8c:	00f42423          	sw	a5,8(s0)
   13d90:	00904863          	bgtz	s1,13da0 <_fflush_r+0x184>
   13d94:	fb9ff06f          	j	13d4c <_fflush_r+0x130>
   13d98:	00a90933          	add	s2,s2,a0
   13d9c:	fa9058e3          	blez	s1,13d4c <_fflush_r+0x130>
   13da0:	02442783          	lw	a5,36(s0)
   13da4:	01c42583          	lw	a1,28(s0)
   13da8:	00048693          	mv	a3,s1
   13dac:	00090613          	mv	a2,s2
   13db0:	00098513          	mv	a0,s3
   13db4:	000780e7          	jalr	a5
   13db8:	40a484b3          	sub	s1,s1,a0
   13dbc:	fca04ee3          	bgtz	a0,13d98 <_fflush_r+0x17c>
   13dc0:	00c45783          	lhu	a5,12(s0)
   13dc4:	fff00513          	li	a0,-1
   13dc8:	0407e793          	ori	a5,a5,64
   13dcc:	00f41623          	sh	a5,12(s0)
   13dd0:	f81ff06f          	j	13d50 <_fflush_r+0x134>
   13dd4:	43c000ef          	jal	14210 <__sinit>
   13dd8:	e71ff06f          	j	13c48 <_fflush_r+0x2c>
   13ddc:	01442783          	lw	a5,20(s0)
   13de0:	fadff06f          	j	13d8c <_fflush_r+0x170>
   13de4:	01c42583          	lw	a1,28(s0)
   13de8:	00000613          	li	a2,0
   13dec:	00000693          	li	a3,0
   13df0:	00098513          	mv	a0,s3
   13df4:	00100713          	li	a4,1
   13df8:	000800e7          	jalr	a6
   13dfc:	fff00793          	li	a5,-1
   13e00:	00050613          	mv	a2,a0
   13e04:	00058693          	mv	a3,a1
   13e08:	08f50863          	beq	a0,a5,13e98 <_fflush_r+0x27c>
   13e0c:	00c45783          	lhu	a5,12(s0)
   13e10:	02842803          	lw	a6,40(s0)
   13e14:	e85ff06f          	j	13c98 <_fflush_r+0x7c>
   13e18:	03c42703          	lw	a4,60(s0)
   13e1c:	e4e04ae3          	bgtz	a4,13c70 <_fflush_r+0x54>
   13e20:	f2dff06f          	j	13d4c <_fflush_r+0x130>
   13e24:	eca59ae3          	bne	a1,a0,13cf8 <_fflush_r+0xdc>
   13e28:	0009a783          	lw	a5,0(s3)
   13e2c:	02078c63          	beqz	a5,13e64 <_fflush_r+0x248>
   13e30:	01d00713          	li	a4,29
   13e34:	00e78663          	beq	a5,a4,13e40 <_fflush_r+0x224>
   13e38:	01600713          	li	a4,22
   13e3c:	f8e792e3          	bne	a5,a4,13dc0 <_fflush_r+0x1a4>
   13e40:	00c45683          	lhu	a3,12(s0)
   13e44:	01042703          	lw	a4,16(s0)
   13e48:	fffff7b7          	lui	a5,0xfffff
   13e4c:	7ff78793          	addi	a5,a5,2047 # fffff7ff <_gp+0xfffe227f>
   13e50:	00f6f7b3          	and	a5,a3,a5
   13e54:	00f41623          	sh	a5,12(s0)
   13e58:	00042223          	sw	zero,4(s0)
   13e5c:	00e42023          	sw	a4,0(s0)
   13e60:	ecdff06f          	j	13d2c <_fflush_r+0x110>
   13e64:	00c45683          	lhu	a3,12(s0)
   13e68:	fffff7b7          	lui	a5,0xfffff
   13e6c:	7ff78793          	addi	a5,a5,2047 # fffff7ff <_gp+0xfffe227f>
   13e70:	00f6f7b3          	and	a5,a3,a5
   13e74:	01042703          	lw	a4,16(s0)
   13e78:	01079793          	slli	a5,a5,0x10
   13e7c:	4107d793          	srai	a5,a5,0x10
   13e80:	01379693          	slli	a3,a5,0x13
   13e84:	00f41623          	sh	a5,12(s0)
   13e88:	00042223          	sw	zero,4(s0)
   13e8c:	00e42023          	sw	a4,0(s0)
   13e90:	e806cce3          	bltz	a3,13d28 <_fflush_r+0x10c>
   13e94:	e99ff06f          	j	13d2c <_fflush_r+0x110>
   13e98:	f6a59ae3          	bne	a1,a0,13e0c <_fflush_r+0x1f0>
   13e9c:	0009a783          	lw	a5,0(s3)
   13ea0:	f60786e3          	beqz	a5,13e0c <_fflush_r+0x1f0>
   13ea4:	01d00713          	li	a4,29
   13ea8:	00e78663          	beq	a5,a4,13eb4 <_fflush_r+0x298>
   13eac:	01600713          	li	a4,22
   13eb0:	f0e798e3          	bne	a5,a4,13dc0 <_fflush_r+0x1a4>
   13eb4:	0099a023          	sw	s1,0(s3)
   13eb8:	00000513          	li	a0,0
   13ebc:	e95ff06f          	j	13d50 <_fflush_r+0x134>

00013ec0 <fflush>:
   13ec0:	00050593          	mv	a1,a0
   13ec4:	00050663          	beqz	a0,13ed0 <fflush+0x10>
   13ec8:	8081a503          	lw	a0,-2040(gp) # 1cd88 <_impure_ptr>
   13ecc:	d51ff06f          	j	13c1c <_fflush_r>
   13ed0:	8041a503          	lw	a0,-2044(gp) # 1cd84 <_global_impure_ptr>
   13ed4:	000145b7          	lui	a1,0x14
   13ed8:	c1c58593          	addi	a1,a1,-996 # 13c1c <_fflush_r>
   13edc:	7d80006f          	j	146b4 <_fwalk_reent>

00013ee0 <__fp_lock>:
   13ee0:	00000513          	li	a0,0
   13ee4:	00008067          	ret

00013ee8 <__fp_unlock>:
   13ee8:	00000513          	li	a0,0
   13eec:	00008067          	ret

00013ef0 <_cleanup_r>:
   13ef0:	000185b7          	lui	a1,0x18
   13ef4:	96058593          	addi	a1,a1,-1696 # 17960 <fclose>
   13ef8:	7180006f          	j	14610 <_fwalk>

00013efc <__sinit.part.1>:
   13efc:	fd010113          	addi	sp,sp,-48
   13f00:	000147b7          	lui	a5,0x14
   13f04:	02812423          	sw	s0,40(sp)
   13f08:	ef078793          	addi	a5,a5,-272 # 13ef0 <_cleanup_r>
   13f0c:	00452403          	lw	s0,4(a0)
   13f10:	02112623          	sw	ra,44(sp)
   13f14:	02912223          	sw	s1,36(sp)
   13f18:	03212023          	sw	s2,32(sp)
   13f1c:	01312e23          	sw	s3,28(sp)
   13f20:	01412c23          	sw	s4,24(sp)
   13f24:	01512a23          	sw	s5,20(sp)
   13f28:	01612823          	sw	s6,16(sp)
   13f2c:	01712623          	sw	s7,12(sp)
   13f30:	02f52e23          	sw	a5,60(a0)
   13f34:	00300793          	li	a5,3
   13f38:	2ef52223          	sw	a5,740(a0)
   13f3c:	2ec50713          	addi	a4,a0,748
   13f40:	00100b93          	li	s7,1
   13f44:	00400793          	li	a5,4
   13f48:	2ee52423          	sw	a4,744(a0)
   13f4c:	03752c23          	sw	s7,56(a0)
   13f50:	2e052023          	sw	zero,736(a0)
   13f54:	00050913          	mv	s2,a0
   13f58:	00f41623          	sh	a5,12(s0)
   13f5c:	00000593          	li	a1,0
   13f60:	00800613          	li	a2,8
   13f64:	00042023          	sw	zero,0(s0)
   13f68:	00042223          	sw	zero,4(s0)
   13f6c:	00042423          	sw	zero,8(s0)
   13f70:	06042223          	sw	zero,100(s0)
   13f74:	00041723          	sh	zero,14(s0)
   13f78:	00042823          	sw	zero,16(s0)
   13f7c:	00042a23          	sw	zero,20(s0)
   13f80:	00042c23          	sw	zero,24(s0)
   13f84:	05c40513          	addi	a0,s0,92
   13f88:	378010ef          	jal	15300 <memset>
   13f8c:	00892483          	lw	s1,8(s2)
   13f90:	00016b37          	lui	s6,0x16
   13f94:	00016ab7          	lui	s5,0x16
   13f98:	00016a37          	lui	s4,0x16
   13f9c:	000169b7          	lui	s3,0x16
   13fa0:	3f8b0b13          	addi	s6,s6,1016 # 163f8 <__sread>
   13fa4:	464a8a93          	addi	s5,s5,1124 # 16464 <__swrite>
   13fa8:	4dca0a13          	addi	s4,s4,1244 # 164dc <__sseek>
   13fac:	54498993          	addi	s3,s3,1348 # 16544 <__sclose>
   13fb0:	00900793          	li	a5,9
   13fb4:	03642023          	sw	s6,32(s0)
   13fb8:	03542223          	sw	s5,36(s0)
   13fbc:	03442423          	sw	s4,40(s0)
   13fc0:	03342623          	sw	s3,44(s0)
   13fc4:	00842e23          	sw	s0,28(s0)
   13fc8:	00000593          	li	a1,0
   13fcc:	00f49623          	sh	a5,12(s1)
   13fd0:	01749723          	sh	s7,14(s1)
   13fd4:	00800613          	li	a2,8
   13fd8:	0004a023          	sw	zero,0(s1)
   13fdc:	0004a223          	sw	zero,4(s1)
   13fe0:	0004a423          	sw	zero,8(s1)
   13fe4:	0604a223          	sw	zero,100(s1)
   13fe8:	0004a823          	sw	zero,16(s1)
   13fec:	0004aa23          	sw	zero,20(s1)
   13ff0:	0004ac23          	sw	zero,24(s1)
   13ff4:	05c48513          	addi	a0,s1,92
   13ff8:	308010ef          	jal	15300 <memset>
   13ffc:	00c92403          	lw	s0,12(s2)
   14000:	01200793          	li	a5,18
   14004:	0364a023          	sw	s6,32(s1)
   14008:	0354a223          	sw	s5,36(s1)
   1400c:	0344a423          	sw	s4,40(s1)
   14010:	0334a623          	sw	s3,44(s1)
   14014:	0094ae23          	sw	s1,28(s1)
   14018:	00f41623          	sh	a5,12(s0)
   1401c:	00200793          	li	a5,2
   14020:	05c40513          	addi	a0,s0,92
   14024:	00042023          	sw	zero,0(s0)
   14028:	00042223          	sw	zero,4(s0)
   1402c:	00042423          	sw	zero,8(s0)
   14030:	06042223          	sw	zero,100(s0)
   14034:	00f41723          	sh	a5,14(s0)
   14038:	00042823          	sw	zero,16(s0)
   1403c:	00042a23          	sw	zero,20(s0)
   14040:	00042c23          	sw	zero,24(s0)
   14044:	00000593          	li	a1,0
   14048:	00800613          	li	a2,8
   1404c:	2b4010ef          	jal	15300 <memset>
   14050:	02c12083          	lw	ra,44(sp)
   14054:	03642023          	sw	s6,32(s0)
   14058:	03542223          	sw	s5,36(s0)
   1405c:	03442423          	sw	s4,40(s0)
   14060:	03342623          	sw	s3,44(s0)
   14064:	00842e23          	sw	s0,28(s0)
   14068:	02412483          	lw	s1,36(sp)
   1406c:	02812403          	lw	s0,40(sp)
   14070:	02012903          	lw	s2,32(sp)
   14074:	01c12983          	lw	s3,28(sp)
   14078:	01812a03          	lw	s4,24(sp)
   1407c:	01412a83          	lw	s5,20(sp)
   14080:	01012b03          	lw	s6,16(sp)
   14084:	00c12b83          	lw	s7,12(sp)
   14088:	03010113          	addi	sp,sp,48
   1408c:	00008067          	ret

00014090 <__sfmoreglue>:
   14090:	ff010113          	addi	sp,sp,-16
   14094:	00912223          	sw	s1,4(sp)
   14098:	06800493          	li	s1,104
   1409c:	029584b3          	mul	s1,a1,s1
   140a0:	01212023          	sw	s2,0(sp)
   140a4:	00058913          	mv	s2,a1
   140a8:	00812423          	sw	s0,8(sp)
   140ac:	00112623          	sw	ra,12(sp)
   140b0:	00c48593          	addi	a1,s1,12
   140b4:	10d000ef          	jal	149c0 <_malloc_r>
   140b8:	00050413          	mv	s0,a0
   140bc:	02050063          	beqz	a0,140dc <__sfmoreglue+0x4c>
   140c0:	00c50513          	addi	a0,a0,12
   140c4:	00042023          	sw	zero,0(s0)
   140c8:	01242223          	sw	s2,4(s0)
   140cc:	00a42423          	sw	a0,8(s0)
   140d0:	00000593          	li	a1,0
   140d4:	00048613          	mv	a2,s1
   140d8:	228010ef          	jal	15300 <memset>
   140dc:	00c12083          	lw	ra,12(sp)
   140e0:	00040513          	mv	a0,s0
   140e4:	00412483          	lw	s1,4(sp)
   140e8:	00812403          	lw	s0,8(sp)
   140ec:	00012903          	lw	s2,0(sp)
   140f0:	01010113          	addi	sp,sp,16
   140f4:	00008067          	ret

000140f8 <__sfp>:
   140f8:	fe010113          	addi	sp,sp,-32
   140fc:	01212823          	sw	s2,16(sp)
   14100:	8041a903          	lw	s2,-2044(gp) # 1cd84 <_global_impure_ptr>
   14104:	01312623          	sw	s3,12(sp)
   14108:	00112e23          	sw	ra,28(sp)
   1410c:	03892783          	lw	a5,56(s2)
   14110:	00812c23          	sw	s0,24(sp)
   14114:	00912a23          	sw	s1,20(sp)
   14118:	00050993          	mv	s3,a0
   1411c:	00079663          	bnez	a5,14128 <__sfp+0x30>
   14120:	00090513          	mv	a0,s2
   14124:	dd9ff0ef          	jal	13efc <__sinit.part.1>
   14128:	2e090913          	addi	s2,s2,736
   1412c:	fff00493          	li	s1,-1
   14130:	00492783          	lw	a5,4(s2)
   14134:	00892403          	lw	s0,8(s2)
   14138:	fff78793          	addi	a5,a5,-1
   1413c:	0007da63          	bgez	a5,14150 <__sfp+0x58>
   14140:	0840006f          	j	141c4 <__sfp+0xcc>
   14144:	fff78793          	addi	a5,a5,-1
   14148:	06840413          	addi	s0,s0,104
   1414c:	06978c63          	beq	a5,s1,141c4 <__sfp+0xcc>
   14150:	00c41703          	lh	a4,12(s0)
   14154:	fe0718e3          	bnez	a4,14144 <__sfp+0x4c>
   14158:	fff00793          	li	a5,-1
   1415c:	00f41723          	sh	a5,14(s0)
   14160:	00100793          	li	a5,1
   14164:	00f41623          	sh	a5,12(s0)
   14168:	06042223          	sw	zero,100(s0)
   1416c:	00042023          	sw	zero,0(s0)
   14170:	00042423          	sw	zero,8(s0)
   14174:	00042223          	sw	zero,4(s0)
   14178:	00042823          	sw	zero,16(s0)
   1417c:	00042a23          	sw	zero,20(s0)
   14180:	00042c23          	sw	zero,24(s0)
   14184:	05c40513          	addi	a0,s0,92
   14188:	00000593          	li	a1,0
   1418c:	00800613          	li	a2,8
   14190:	170010ef          	jal	15300 <memset>
   14194:	02042823          	sw	zero,48(s0)
   14198:	02042a23          	sw	zero,52(s0)
   1419c:	04042223          	sw	zero,68(s0)
   141a0:	04042423          	sw	zero,72(s0)
   141a4:	00040513          	mv	a0,s0
   141a8:	01c12083          	lw	ra,28(sp)
   141ac:	01812403          	lw	s0,24(sp)
   141b0:	01412483          	lw	s1,20(sp)
   141b4:	01012903          	lw	s2,16(sp)
   141b8:	00c12983          	lw	s3,12(sp)
   141bc:	02010113          	addi	sp,sp,32
   141c0:	00008067          	ret
   141c4:	00092783          	lw	a5,0(s2)
   141c8:	00078663          	beqz	a5,141d4 <__sfp+0xdc>
   141cc:	00078913          	mv	s2,a5
   141d0:	f61ff06f          	j	14130 <__sfp+0x38>
   141d4:	00098513          	mv	a0,s3
   141d8:	00400593          	li	a1,4
   141dc:	eb5ff0ef          	jal	14090 <__sfmoreglue>
   141e0:	00a92023          	sw	a0,0(s2)
   141e4:	00050663          	beqz	a0,141f0 <__sfp+0xf8>
   141e8:	00050913          	mv	s2,a0
   141ec:	f45ff06f          	j	14130 <__sfp+0x38>
   141f0:	00c00793          	li	a5,12
   141f4:	00f9a023          	sw	a5,0(s3)
   141f8:	00000513          	li	a0,0
   141fc:	fadff06f          	j	141a8 <__sfp+0xb0>

00014200 <_cleanup>:
   14200:	8041a503          	lw	a0,-2044(gp) # 1cd84 <_global_impure_ptr>
   14204:	000185b7          	lui	a1,0x18
   14208:	96058593          	addi	a1,a1,-1696 # 17960 <fclose>
   1420c:	4040006f          	j	14610 <_fwalk>

00014210 <__sinit>:
   14210:	03852783          	lw	a5,56(a0)
   14214:	00078463          	beqz	a5,1421c <__sinit+0xc>
   14218:	00008067          	ret
   1421c:	ce1ff06f          	j	13efc <__sinit.part.1>

00014220 <__sfp_lock_acquire>:
   14220:	00008067          	ret

00014224 <__sfp_lock_release>:
   14224:	00008067          	ret

00014228 <__sinit_lock_acquire>:
   14228:	00008067          	ret

0001422c <__sinit_lock_release>:
   1422c:	00008067          	ret

00014230 <__fp_lock_all>:
   14230:	8081a503          	lw	a0,-2040(gp) # 1cd88 <_impure_ptr>
   14234:	000145b7          	lui	a1,0x14
   14238:	ee058593          	addi	a1,a1,-288 # 13ee0 <__fp_lock>
   1423c:	3d40006f          	j	14610 <_fwalk>

00014240 <__fp_unlock_all>:
   14240:	8081a503          	lw	a0,-2040(gp) # 1cd88 <_impure_ptr>
   14244:	000145b7          	lui	a1,0x14
   14248:	ee858593          	addi	a1,a1,-280 # 13ee8 <__fp_unlock>
   1424c:	3c40006f          	j	14610 <_fwalk>

00014250 <_malloc_trim_r>:
   14250:	fe010113          	addi	sp,sp,-32
   14254:	01212823          	sw	s2,16(sp)
   14258:	0001d937          	lui	s2,0x1d
   1425c:	97890913          	addi	s2,s2,-1672 # 1c978 <__malloc_av_>
   14260:	00812c23          	sw	s0,24(sp)
   14264:	00912a23          	sw	s1,20(sp)
   14268:	00058413          	mv	s0,a1
   1426c:	01312623          	sw	s3,12(sp)
   14270:	00112e23          	sw	ra,28(sp)
   14274:	00050993          	mv	s3,a0
   14278:	164010ef          	jal	153dc <__malloc_lock>
   1427c:	00892703          	lw	a4,8(s2)
   14280:	000017b7          	lui	a5,0x1
   14284:	fef78593          	addi	a1,a5,-17 # fef <_ftext-0xf011>
   14288:	00472483          	lw	s1,4(a4)
   1428c:	ffc4f493          	andi	s1,s1,-4
   14290:	40848433          	sub	s0,s1,s0
   14294:	00b40433          	add	s0,s0,a1
   14298:	00c45413          	srli	s0,s0,0xc
   1429c:	fff40413          	addi	s0,s0,-1
   142a0:	00c41413          	slli	s0,s0,0xc
   142a4:	00f44c63          	blt	s0,a5,142bc <_malloc_trim_r+0x6c>
   142a8:	00000513          	li	a0,0
   142ac:	28d040ef          	jal	18d38 <sbrk>
   142b0:	00892783          	lw	a5,8(s2)
   142b4:	009787b3          	add	a5,a5,s1
   142b8:	02f50663          	beq	a0,a5,142e4 <_malloc_trim_r+0x94>
   142bc:	00098513          	mv	a0,s3
   142c0:	120010ef          	jal	153e0 <__malloc_unlock>
   142c4:	00000513          	li	a0,0
   142c8:	01c12083          	lw	ra,28(sp)
   142cc:	01812403          	lw	s0,24(sp)
   142d0:	01412483          	lw	s1,20(sp)
   142d4:	01012903          	lw	s2,16(sp)
   142d8:	00c12983          	lw	s3,12(sp)
   142dc:	02010113          	addi	sp,sp,32
   142e0:	00008067          	ret
   142e4:	40800533          	neg	a0,s0
   142e8:	251040ef          	jal	18d38 <sbrk>
   142ec:	fff00793          	li	a5,-1
   142f0:	02f50863          	beq	a0,a5,14320 <_malloc_trim_r+0xd0>
   142f4:	8b41a783          	lw	a5,-1868(gp) # 1ce34 <__malloc_current_mallinfo>
   142f8:	00892683          	lw	a3,8(s2)
   142fc:	408484b3          	sub	s1,s1,s0
   14300:	0014e493          	ori	s1,s1,1
   14304:	40878433          	sub	s0,a5,s0
   14308:	00098513          	mv	a0,s3
   1430c:	0096a223          	sw	s1,4(a3)
   14310:	8a81aa23          	sw	s0,-1868(gp) # 1ce34 <__malloc_current_mallinfo>
   14314:	0cc010ef          	jal	153e0 <__malloc_unlock>
   14318:	00100513          	li	a0,1
   1431c:	fadff06f          	j	142c8 <_malloc_trim_r+0x78>
   14320:	00000513          	li	a0,0
   14324:	215040ef          	jal	18d38 <sbrk>
   14328:	00892703          	lw	a4,8(s2)
   1432c:	00f00693          	li	a3,15
   14330:	40e507b3          	sub	a5,a0,a4
   14334:	f8f6d4e3          	ble	a5,a3,142bc <_malloc_trim_r+0x6c>
   14338:	8101a683          	lw	a3,-2032(gp) # 1cd90 <__malloc_sbrk_base>
   1433c:	0017e793          	ori	a5,a5,1
   14340:	00f72223          	sw	a5,4(a4)
   14344:	40d50533          	sub	a0,a0,a3
   14348:	8aa1aa23          	sw	a0,-1868(gp) # 1ce34 <__malloc_current_mallinfo>
   1434c:	f71ff06f          	j	142bc <_malloc_trim_r+0x6c>

00014350 <_free_r>:
   14350:	12058463          	beqz	a1,14478 <_free_r+0x128>
   14354:	ff010113          	addi	sp,sp,-16
   14358:	00812423          	sw	s0,8(sp)
   1435c:	00058413          	mv	s0,a1
   14360:	00912223          	sw	s1,4(sp)
   14364:	00112623          	sw	ra,12(sp)
   14368:	00050493          	mv	s1,a0
   1436c:	070010ef          	jal	153dc <__malloc_lock>
   14370:	ffc42583          	lw	a1,-4(s0)
   14374:	0001d7b7          	lui	a5,0x1d
   14378:	ff840613          	addi	a2,s0,-8
   1437c:	ffe5f713          	andi	a4,a1,-2
   14380:	97878813          	addi	a6,a5,-1672 # 1c978 <__malloc_av_>
   14384:	00e606b3          	add	a3,a2,a4
   14388:	0046a783          	lw	a5,4(a3)
   1438c:	00882503          	lw	a0,8(a6)
   14390:	ffc7f793          	andi	a5,a5,-4
   14394:	12d50e63          	beq	a0,a3,144d0 <_free_r+0x180>
   14398:	01f59513          	slli	a0,a1,0x1f
   1439c:	00f6a223          	sw	a5,4(a3)
   143a0:	02054663          	bltz	a0,143cc <_free_r+0x7c>
   143a4:	ff842583          	lw	a1,-8(s0)
   143a8:	40b60633          	sub	a2,a2,a1
   143ac:	00862503          	lw	a0,8(a2)
   143b0:	00b70733          	add	a4,a4,a1
   143b4:	0001d5b7          	lui	a1,0x1d
   143b8:	98058593          	addi	a1,a1,-1664 # 1c980 <__malloc_av_+0x8>
   143bc:	16b50063          	beq	a0,a1,1451c <_free_r+0x1cc>
   143c0:	00c62583          	lw	a1,12(a2)
   143c4:	00b52623          	sw	a1,12(a0)
   143c8:	00a5a423          	sw	a0,8(a1)
   143cc:	00f685b3          	add	a1,a3,a5
   143d0:	0045a583          	lw	a1,4(a1)
   143d4:	01f59513          	slli	a0,a1,0x1f
   143d8:	02054c63          	bltz	a0,14410 <_free_r+0xc0>
   143dc:	0086a583          	lw	a1,8(a3)
   143e0:	00f70733          	add	a4,a4,a5
   143e4:	0001d7b7          	lui	a5,0x1d
   143e8:	98078793          	addi	a5,a5,-1664 # 1c980 <__malloc_av_+0x8>
   143ec:	1af58863          	beq	a1,a5,1459c <_free_r+0x24c>
   143f0:	00c6a503          	lw	a0,12(a3)
   143f4:	00e607b3          	add	a5,a2,a4
   143f8:	00176693          	ori	a3,a4,1
   143fc:	00a5a623          	sw	a0,12(a1)
   14400:	00b52423          	sw	a1,8(a0)
   14404:	00d62223          	sw	a3,4(a2)
   14408:	00e7a023          	sw	a4,0(a5)
   1440c:	0140006f          	j	14420 <_free_r+0xd0>
   14410:	00176793          	ori	a5,a4,1
   14414:	00e606b3          	add	a3,a2,a4
   14418:	00f62223          	sw	a5,4(a2)
   1441c:	00e6a023          	sw	a4,0(a3)
   14420:	1ff00793          	li	a5,511
   14424:	04e7ec63          	bltu	a5,a4,1447c <_free_r+0x12c>
   14428:	00375713          	srli	a4,a4,0x3
   1442c:	00371693          	slli	a3,a4,0x3
   14430:	00d806b3          	add	a3,a6,a3
   14434:	00482783          	lw	a5,4(a6)
   14438:	0086a503          	lw	a0,8(a3)
   1443c:	40275713          	srai	a4,a4,0x2
   14440:	00100593          	li	a1,1
   14444:	00e59733          	sll	a4,a1,a4
   14448:	00f76733          	or	a4,a4,a5
   1444c:	00d62623          	sw	a3,12(a2)
   14450:	00a62423          	sw	a0,8(a2)
   14454:	00e82223          	sw	a4,4(a6)
   14458:	00c6a423          	sw	a2,8(a3)
   1445c:	00c52623          	sw	a2,12(a0)
   14460:	00048513          	mv	a0,s1
   14464:	00c12083          	lw	ra,12(sp)
   14468:	00812403          	lw	s0,8(sp)
   1446c:	00412483          	lw	s1,4(sp)
   14470:	01010113          	addi	sp,sp,16
   14474:	76d0006f          	j	153e0 <__malloc_unlock>
   14478:	00008067          	ret
   1447c:	00975793          	srli	a5,a4,0x9
   14480:	00400693          	li	a3,4
   14484:	0ef6e263          	bltu	a3,a5,14568 <_free_r+0x218>
   14488:	00675693          	srli	a3,a4,0x6
   1448c:	03868693          	addi	a3,a3,56
   14490:	00169593          	slli	a1,a3,0x1
   14494:	00259593          	slli	a1,a1,0x2
   14498:	00b805b3          	add	a1,a6,a1
   1449c:	0085a783          	lw	a5,8(a1)
   144a0:	0cb78e63          	beq	a5,a1,1457c <_free_r+0x22c>
   144a4:	0047a683          	lw	a3,4(a5)
   144a8:	ffc6f693          	andi	a3,a3,-4
   144ac:	00d77663          	bleu	a3,a4,144b8 <_free_r+0x168>
   144b0:	0087a783          	lw	a5,8(a5)
   144b4:	fef598e3          	bne	a1,a5,144a4 <_free_r+0x154>
   144b8:	00c7a703          	lw	a4,12(a5)
   144bc:	00e62623          	sw	a4,12(a2)
   144c0:	00f62423          	sw	a5,8(a2)
   144c4:	00c72423          	sw	a2,8(a4)
   144c8:	00c7a623          	sw	a2,12(a5)
   144cc:	f95ff06f          	j	14460 <_free_r+0x110>
   144d0:	01f59513          	slli	a0,a1,0x1f
   144d4:	00e78733          	add	a4,a5,a4
   144d8:	02054063          	bltz	a0,144f8 <_free_r+0x1a8>
   144dc:	ff842583          	lw	a1,-8(s0)
   144e0:	40b60633          	sub	a2,a2,a1
   144e4:	00c62783          	lw	a5,12(a2)
   144e8:	00862683          	lw	a3,8(a2)
   144ec:	00b70733          	add	a4,a4,a1
   144f0:	00f6a623          	sw	a5,12(a3)
   144f4:	00d7a423          	sw	a3,8(a5)
   144f8:	8141a783          	lw	a5,-2028(gp) # 1cd94 <__malloc_trim_threshold>
   144fc:	00176693          	ori	a3,a4,1
   14500:	00d62223          	sw	a3,4(a2)
   14504:	00c82423          	sw	a2,8(a6)
   14508:	f4f76ce3          	bltu	a4,a5,14460 <_free_r+0x110>
   1450c:	88c1a583          	lw	a1,-1908(gp) # 1ce0c <__malloc_top_pad>
   14510:	00048513          	mv	a0,s1
   14514:	d3dff0ef          	jal	14250 <_malloc_trim_r>
   14518:	f49ff06f          	j	14460 <_free_r+0x110>
   1451c:	00f685b3          	add	a1,a3,a5
   14520:	0045a583          	lw	a1,4(a1)
   14524:	01f59513          	slli	a0,a1,0x1f
   14528:	02054663          	bltz	a0,14554 <_free_r+0x204>
   1452c:	00c6a583          	lw	a1,12(a3)
   14530:	0086a683          	lw	a3,8(a3)
   14534:	00f70733          	add	a4,a4,a5
   14538:	00176513          	ori	a0,a4,1
   1453c:	00e607b3          	add	a5,a2,a4
   14540:	00b6a623          	sw	a1,12(a3)
   14544:	00d5a423          	sw	a3,8(a1)
   14548:	00a62223          	sw	a0,4(a2)
   1454c:	00e7a023          	sw	a4,0(a5)
   14550:	f11ff06f          	j	14460 <_free_r+0x110>
   14554:	00176693          	ori	a3,a4,1
   14558:	00e607b3          	add	a5,a2,a4
   1455c:	00d62223          	sw	a3,4(a2)
   14560:	00e7a023          	sw	a4,0(a5)
   14564:	efdff06f          	j	14460 <_free_r+0x110>
   14568:	01400693          	li	a3,20
   1456c:	04f6ea63          	bltu	a3,a5,145c0 <_free_r+0x270>
   14570:	05b78693          	addi	a3,a5,91
   14574:	00169593          	slli	a1,a3,0x1
   14578:	f1dff06f          	j	14494 <_free_r+0x144>
   1457c:	00482703          	lw	a4,4(a6)
   14580:	4026d693          	srai	a3,a3,0x2
   14584:	00100593          	li	a1,1
   14588:	00d596b3          	sll	a3,a1,a3
   1458c:	00e6e6b3          	or	a3,a3,a4
   14590:	00d82223          	sw	a3,4(a6)
   14594:	00078713          	mv	a4,a5
   14598:	f25ff06f          	j	144bc <_free_r+0x16c>
   1459c:	00176693          	ori	a3,a4,1
   145a0:	00e607b3          	add	a5,a2,a4
   145a4:	00c82a23          	sw	a2,20(a6)
   145a8:	00c82823          	sw	a2,16(a6)
   145ac:	00b62623          	sw	a1,12(a2)
   145b0:	00b62423          	sw	a1,8(a2)
   145b4:	00d62223          	sw	a3,4(a2)
   145b8:	00e7a023          	sw	a4,0(a5)
   145bc:	ea5ff06f          	j	14460 <_free_r+0x110>
   145c0:	05400693          	li	a3,84
   145c4:	00f6ea63          	bltu	a3,a5,145d8 <_free_r+0x288>
   145c8:	00c75693          	srli	a3,a4,0xc
   145cc:	06e68693          	addi	a3,a3,110
   145d0:	00169593          	slli	a1,a3,0x1
   145d4:	ec1ff06f          	j	14494 <_free_r+0x144>
   145d8:	15400693          	li	a3,340
   145dc:	00f6ea63          	bltu	a3,a5,145f0 <_free_r+0x2a0>
   145e0:	00f75693          	srli	a3,a4,0xf
   145e4:	07768693          	addi	a3,a3,119
   145e8:	00169593          	slli	a1,a3,0x1
   145ec:	ea9ff06f          	j	14494 <_free_r+0x144>
   145f0:	55400513          	li	a0,1364
   145f4:	0fc00593          	li	a1,252
   145f8:	07e00693          	li	a3,126
   145fc:	e8f56ce3          	bltu	a0,a5,14494 <_free_r+0x144>
   14600:	01275693          	srli	a3,a4,0x12
   14604:	07c68693          	addi	a3,a3,124
   14608:	00169593          	slli	a1,a3,0x1
   1460c:	e89ff06f          	j	14494 <_free_r+0x144>

00014610 <_fwalk>:
   14610:	fe010113          	addi	sp,sp,-32
   14614:	01312623          	sw	s3,12(sp)
   14618:	2e050993          	addi	s3,a0,736
   1461c:	01412423          	sw	s4,8(sp)
   14620:	01512223          	sw	s5,4(sp)
   14624:	00112e23          	sw	ra,28(sp)
   14628:	00812c23          	sw	s0,24(sp)
   1462c:	00912a23          	sw	s1,20(sp)
   14630:	01212823          	sw	s2,16(sp)
   14634:	00058a93          	mv	s5,a1
   14638:	00000a13          	li	s4,0
   1463c:	be5ff0ef          	jal	14220 <__sfp_lock_acquire>
   14640:	04098463          	beqz	s3,14688 <_fwalk+0x78>
   14644:	fff00913          	li	s2,-1
   14648:	0049a483          	lw	s1,4(s3)
   1464c:	0089a403          	lw	s0,8(s3)
   14650:	fff48493          	addi	s1,s1,-1
   14654:	0204c663          	bltz	s1,14680 <_fwalk+0x70>
   14658:	00c41783          	lh	a5,12(s0)
   1465c:	fff48493          	addi	s1,s1,-1
   14660:	00078c63          	beqz	a5,14678 <_fwalk+0x68>
   14664:	00e41783          	lh	a5,14(s0)
   14668:	00040513          	mv	a0,s0
   1466c:	01278663          	beq	a5,s2,14678 <_fwalk+0x68>
   14670:	000a80e7          	jalr	s5
   14674:	00aa6a33          	or	s4,s4,a0
   14678:	06840413          	addi	s0,s0,104
   1467c:	fd249ee3          	bne	s1,s2,14658 <_fwalk+0x48>
   14680:	0009a983          	lw	s3,0(s3)
   14684:	fc0992e3          	bnez	s3,14648 <_fwalk+0x38>
   14688:	b9dff0ef          	jal	14224 <__sfp_lock_release>
   1468c:	01c12083          	lw	ra,28(sp)
   14690:	000a0513          	mv	a0,s4
   14694:	01812403          	lw	s0,24(sp)
   14698:	01412483          	lw	s1,20(sp)
   1469c:	01012903          	lw	s2,16(sp)
   146a0:	00c12983          	lw	s3,12(sp)
   146a4:	00812a03          	lw	s4,8(sp)
   146a8:	00412a83          	lw	s5,4(sp)
   146ac:	02010113          	addi	sp,sp,32
   146b0:	00008067          	ret

000146b4 <_fwalk_reent>:
   146b4:	fe010113          	addi	sp,sp,-32
   146b8:	01312623          	sw	s3,12(sp)
   146bc:	2e050993          	addi	s3,a0,736
   146c0:	01412423          	sw	s4,8(sp)
   146c4:	01512223          	sw	s5,4(sp)
   146c8:	01612023          	sw	s6,0(sp)
   146cc:	00112e23          	sw	ra,28(sp)
   146d0:	00812c23          	sw	s0,24(sp)
   146d4:	00912a23          	sw	s1,20(sp)
   146d8:	01212823          	sw	s2,16(sp)
   146dc:	00050a93          	mv	s5,a0
   146e0:	00058b13          	mv	s6,a1
   146e4:	00000a13          	li	s4,0
   146e8:	b39ff0ef          	jal	14220 <__sfp_lock_acquire>
   146ec:	04098663          	beqz	s3,14738 <_fwalk_reent+0x84>
   146f0:	fff00913          	li	s2,-1
   146f4:	0049a483          	lw	s1,4(s3)
   146f8:	0089a403          	lw	s0,8(s3)
   146fc:	fff48493          	addi	s1,s1,-1
   14700:	0204c863          	bltz	s1,14730 <_fwalk_reent+0x7c>
   14704:	00c41783          	lh	a5,12(s0)
   14708:	fff48493          	addi	s1,s1,-1
   1470c:	00078e63          	beqz	a5,14728 <_fwalk_reent+0x74>
   14710:	00e41783          	lh	a5,14(s0)
   14714:	00040593          	mv	a1,s0
   14718:	000a8513          	mv	a0,s5
   1471c:	01278663          	beq	a5,s2,14728 <_fwalk_reent+0x74>
   14720:	000b00e7          	jalr	s6
   14724:	00aa6a33          	or	s4,s4,a0
   14728:	06840413          	addi	s0,s0,104
   1472c:	fd249ce3          	bne	s1,s2,14704 <_fwalk_reent+0x50>
   14730:	0009a983          	lw	s3,0(s3)
   14734:	fc0990e3          	bnez	s3,146f4 <_fwalk_reent+0x40>
   14738:	aedff0ef          	jal	14224 <__sfp_lock_release>
   1473c:	01c12083          	lw	ra,28(sp)
   14740:	000a0513          	mv	a0,s4
   14744:	01812403          	lw	s0,24(sp)
   14748:	01412483          	lw	s1,20(sp)
   1474c:	01012903          	lw	s2,16(sp)
   14750:	00c12983          	lw	s3,12(sp)
   14754:	00812a03          	lw	s4,8(sp)
   14758:	00412a83          	lw	s5,4(sp)
   1475c:	00012b03          	lw	s6,0(sp)
   14760:	02010113          	addi	sp,sp,32
   14764:	00008067          	ret

00014768 <_setlocale_r>:
   14768:	ff010113          	addi	sp,sp,-16
   1476c:	00912223          	sw	s1,4(sp)
   14770:	00112623          	sw	ra,12(sp)
   14774:	00812423          	sw	s0,8(sp)
   14778:	0001b4b7          	lui	s1,0x1b
   1477c:	02060063          	beqz	a2,1479c <_setlocale_r+0x34>
   14780:	0001b5b7          	lui	a1,0x1b
   14784:	00060513          	mv	a0,a2
   14788:	2bc58593          	addi	a1,a1,700 # 1b2bc <__clz_tab+0x17c>
   1478c:	00060413          	mv	s0,a2
   14790:	5bd010ef          	jal	1654c <strcmp>
   14794:	0001b4b7          	lui	s1,0x1b
   14798:	00051e63          	bnez	a0,147b4 <_setlocale_r+0x4c>
   1479c:	26448513          	addi	a0,s1,612 # 1b264 <__clz_tab+0x124>
   147a0:	00c12083          	lw	ra,12(sp)
   147a4:	00812403          	lw	s0,8(sp)
   147a8:	00412483          	lw	s1,4(sp)
   147ac:	01010113          	addi	sp,sp,16
   147b0:	00008067          	ret
   147b4:	00040513          	mv	a0,s0
   147b8:	26448593          	addi	a1,s1,612
   147bc:	591010ef          	jal	1654c <strcmp>
   147c0:	fc050ee3          	beqz	a0,1479c <_setlocale_r+0x34>
   147c4:	0001b5b7          	lui	a1,0x1b
   147c8:	00040513          	mv	a0,s0
   147cc:	28858593          	addi	a1,a1,648 # 1b288 <__clz_tab+0x148>
   147d0:	57d010ef          	jal	1654c <strcmp>
   147d4:	fc0504e3          	beqz	a0,1479c <_setlocale_r+0x34>
   147d8:	00000513          	li	a0,0
   147dc:	fc5ff06f          	j	147a0 <_setlocale_r+0x38>

000147e0 <__locale_charset>:
   147e0:	0001d537          	lui	a0,0x1d
   147e4:	93850513          	addi	a0,a0,-1736 # 1c938 <lc_ctype_charset>
   147e8:	00008067          	ret

000147ec <__locale_msgcharset>:
   147ec:	0001d537          	lui	a0,0x1d
   147f0:	95850513          	addi	a0,a0,-1704 # 1c958 <lc_message_charset>
   147f4:	00008067          	ret

000147f8 <__locale_cjk_lang>:
   147f8:	00000513          	li	a0,0
   147fc:	00008067          	ret

00014800 <_localeconv_r>:
   14800:	0001b537          	lui	a0,0x1b
   14804:	e2c50513          	addi	a0,a0,-468 # 1ae2c <lconv>
   14808:	00008067          	ret

0001480c <setlocale>:
   1480c:	00050793          	mv	a5,a0
   14810:	8081a503          	lw	a0,-2040(gp) # 1cd88 <_impure_ptr>
   14814:	00058613          	mv	a2,a1
   14818:	00078593          	mv	a1,a5
   1481c:	f4dff06f          	j	14768 <_setlocale_r>

00014820 <localeconv>:
   14820:	0001b537          	lui	a0,0x1b
   14824:	e2c50513          	addi	a0,a0,-468 # 1ae2c <lconv>
   14828:	00008067          	ret

0001482c <__smakebuf_r>:
   1482c:	00c59783          	lh	a5,12(a1)
   14830:	f6010113          	addi	sp,sp,-160
   14834:	08912a23          	sw	s1,148(sp)
   14838:	01079493          	slli	s1,a5,0x10
   1483c:	0104d493          	srli	s1,s1,0x10
   14840:	0024f713          	andi	a4,s1,2
   14844:	08112e23          	sw	ra,156(sp)
   14848:	08812c23          	sw	s0,152(sp)
   1484c:	09212823          	sw	s2,144(sp)
   14850:	09312623          	sw	s3,140(sp)
   14854:	0e071263          	bnez	a4,14938 <__smakebuf_r+0x10c>
   14858:	00050913          	mv	s2,a0
   1485c:	00e59503          	lh	a0,14(a1)
   14860:	00058413          	mv	s0,a1
   14864:	04054c63          	bltz	a0,148bc <__smakebuf_r+0x90>
   14868:	00010593          	mv	a1,sp
   1486c:	218040ef          	jal	18a84 <fstat>
   14870:	04054063          	bltz	a0,148b0 <__smakebuf_r+0x84>
   14874:	01012703          	lw	a4,16(sp)
   14878:	0000f7b7          	lui	a5,0xf
   1487c:	ffffe9b7          	lui	s3,0xffffe
   14880:	00f777b3          	and	a5,a4,a5
   14884:	013789b3          	add	s3,a5,s3
   14888:	00008737          	lui	a4,0x8
   1488c:	0019b993          	seqz	s3,s3
   14890:	0ce78063          	beq	a5,a4,14950 <__smakebuf_r+0x124>
   14894:	00c45703          	lhu	a4,12(s0)
   14898:	000017b7          	lui	a5,0x1
   1489c:	80078793          	addi	a5,a5,-2048 # 800 <_ftext-0xf800>
   148a0:	00f767b3          	or	a5,a4,a5
   148a4:	00f41623          	sh	a5,12(s0)
   148a8:	40000493          	li	s1,1024
   148ac:	0380006f          	j	148e4 <__smakebuf_r+0xb8>
   148b0:	00c41783          	lh	a5,12(s0)
   148b4:	01079493          	slli	s1,a5,0x10
   148b8:	0104d493          	srli	s1,s1,0x10
   148bc:	0804f493          	andi	s1,s1,128
   148c0:	0014b493          	seqz	s1,s1
   148c4:	00001737          	lui	a4,0x1
   148c8:	409004b3          	neg	s1,s1
   148cc:	80070713          	addi	a4,a4,-2048 # 800 <_ftext-0xf800>
   148d0:	3c04f493          	andi	s1,s1,960
   148d4:	00e7e7b3          	or	a5,a5,a4
   148d8:	04048493          	addi	s1,s1,64
   148dc:	00f41623          	sh	a5,12(s0)
   148e0:	00000993          	li	s3,0
   148e4:	00090513          	mv	a0,s2
   148e8:	00048593          	mv	a1,s1
   148ec:	0d4000ef          	jal	149c0 <_malloc_r>
   148f0:	0a050263          	beqz	a0,14994 <__smakebuf_r+0x168>
   148f4:	00c45783          	lhu	a5,12(s0)
   148f8:	00014737          	lui	a4,0x14
   148fc:	ef070713          	addi	a4,a4,-272 # 13ef0 <_cleanup_r>
   14900:	0807e793          	ori	a5,a5,128
   14904:	02e92e23          	sw	a4,60(s2)
   14908:	00f41623          	sh	a5,12(s0)
   1490c:	00a42023          	sw	a0,0(s0)
   14910:	00a42823          	sw	a0,16(s0)
   14914:	00942a23          	sw	s1,20(s0)
   14918:	06099063          	bnez	s3,14978 <__smakebuf_r+0x14c>
   1491c:	09c12083          	lw	ra,156(sp)
   14920:	09812403          	lw	s0,152(sp)
   14924:	09412483          	lw	s1,148(sp)
   14928:	09012903          	lw	s2,144(sp)
   1492c:	08c12983          	lw	s3,140(sp)
   14930:	0a010113          	addi	sp,sp,160
   14934:	00008067          	ret
   14938:	04358793          	addi	a5,a1,67
   1493c:	00f5a023          	sw	a5,0(a1)
   14940:	00f5a823          	sw	a5,16(a1)
   14944:	00100793          	li	a5,1
   14948:	00f5aa23          	sw	a5,20(a1)
   1494c:	fd1ff06f          	j	1491c <__smakebuf_r+0xf0>
   14950:	02842703          	lw	a4,40(s0)
   14954:	000167b7          	lui	a5,0x16
   14958:	4dc78793          	addi	a5,a5,1244 # 164dc <__sseek>
   1495c:	f2f71ce3          	bne	a4,a5,14894 <__smakebuf_r+0x68>
   14960:	00c45783          	lhu	a5,12(s0)
   14964:	40000493          	li	s1,1024
   14968:	04942623          	sw	s1,76(s0)
   1496c:	0097e7b3          	or	a5,a5,s1
   14970:	00f41623          	sh	a5,12(s0)
   14974:	f71ff06f          	j	148e4 <__smakebuf_r+0xb8>
   14978:	00e41503          	lh	a0,14(s0)
   1497c:	270040ef          	jal	18bec <isatty>
   14980:	f8050ee3          	beqz	a0,1491c <__smakebuf_r+0xf0>
   14984:	00c45783          	lhu	a5,12(s0)
   14988:	0017e793          	ori	a5,a5,1
   1498c:	00f41623          	sh	a5,12(s0)
   14990:	f8dff06f          	j	1491c <__smakebuf_r+0xf0>
   14994:	00c41783          	lh	a5,12(s0)
   14998:	2007f713          	andi	a4,a5,512
   1499c:	f80710e3          	bnez	a4,1491c <__smakebuf_r+0xf0>
   149a0:	0027e793          	ori	a5,a5,2
   149a4:	04340713          	addi	a4,s0,67
   149a8:	00f41623          	sh	a5,12(s0)
   149ac:	00100793          	li	a5,1
   149b0:	00e42023          	sw	a4,0(s0)
   149b4:	00e42823          	sw	a4,16(s0)
   149b8:	00f42a23          	sw	a5,20(s0)
   149bc:	f61ff06f          	j	1491c <__smakebuf_r+0xf0>

000149c0 <_malloc_r>:
   149c0:	fd010113          	addi	sp,sp,-48
   149c4:	02912223          	sw	s1,36(sp)
   149c8:	01600793          	li	a5,22
   149cc:	00b58493          	addi	s1,a1,11
   149d0:	01312e23          	sw	s3,28(sp)
   149d4:	02112623          	sw	ra,44(sp)
   149d8:	02812423          	sw	s0,40(sp)
   149dc:	03212023          	sw	s2,32(sp)
   149e0:	01412c23          	sw	s4,24(sp)
   149e4:	01512a23          	sw	s5,20(sp)
   149e8:	01612823          	sw	s6,16(sp)
   149ec:	01712623          	sw	s7,12(sp)
   149f0:	01812423          	sw	s8,8(sp)
   149f4:	01912223          	sw	s9,4(sp)
   149f8:	00050993          	mv	s3,a0
   149fc:	0a97f063          	bleu	s1,a5,14a9c <_malloc_r+0xdc>
   14a00:	ff84f493          	andi	s1,s1,-8
   14a04:	2204cc63          	bltz	s1,14c3c <_malloc_r+0x27c>
   14a08:	22b4ea63          	bltu	s1,a1,14c3c <_malloc_r+0x27c>
   14a0c:	1d1000ef          	jal	153dc <__malloc_lock>
   14a10:	1f700793          	li	a5,503
   14a14:	0897ec63          	bltu	a5,s1,14aac <_malloc_r+0xec>
   14a18:	0034d693          	srli	a3,s1,0x3
   14a1c:	0001d937          	lui	s2,0x1d
   14a20:	97890913          	addi	s2,s2,-1672 # 1c978 <__malloc_av_>
   14a24:	00369793          	slli	a5,a3,0x3
   14a28:	00f907b3          	add	a5,s2,a5
   14a2c:	00c7a403          	lw	s0,12(a5)
   14a30:	4ef40463          	beq	s0,a5,14f18 <_malloc_r+0x558>
   14a34:	00442783          	lw	a5,4(s0)
   14a38:	00c42683          	lw	a3,12(s0)
   14a3c:	00842603          	lw	a2,8(s0)
   14a40:	ffc7f793          	andi	a5,a5,-4
   14a44:	00f407b3          	add	a5,s0,a5
   14a48:	0047a703          	lw	a4,4(a5)
   14a4c:	00098513          	mv	a0,s3
   14a50:	00d62623          	sw	a3,12(a2)
   14a54:	00176713          	ori	a4,a4,1
   14a58:	00c6a423          	sw	a2,8(a3)
   14a5c:	00e7a223          	sw	a4,4(a5)
   14a60:	181000ef          	jal	153e0 <__malloc_unlock>
   14a64:	00840513          	addi	a0,s0,8
   14a68:	02c12083          	lw	ra,44(sp)
   14a6c:	02812403          	lw	s0,40(sp)
   14a70:	02412483          	lw	s1,36(sp)
   14a74:	02012903          	lw	s2,32(sp)
   14a78:	01c12983          	lw	s3,28(sp)
   14a7c:	01812a03          	lw	s4,24(sp)
   14a80:	01412a83          	lw	s5,20(sp)
   14a84:	01012b03          	lw	s6,16(sp)
   14a88:	00c12b83          	lw	s7,12(sp)
   14a8c:	00812c03          	lw	s8,8(sp)
   14a90:	00412c83          	lw	s9,4(sp)
   14a94:	03010113          	addi	sp,sp,48
   14a98:	00008067          	ret
   14a9c:	01000493          	li	s1,16
   14aa0:	18b4ee63          	bltu	s1,a1,14c3c <_malloc_r+0x27c>
   14aa4:	139000ef          	jal	153dc <__malloc_lock>
   14aa8:	f71ff06f          	j	14a18 <_malloc_r+0x58>
   14aac:	0094d793          	srli	a5,s1,0x9
   14ab0:	07e00693          	li	a3,126
   14ab4:	03f00593          	li	a1,63
   14ab8:	18079a63          	bnez	a5,14c4c <_malloc_r+0x28c>
   14abc:	0001d937          	lui	s2,0x1d
   14ac0:	97890913          	addi	s2,s2,-1672 # 1c978 <__malloc_av_>
   14ac4:	00269693          	slli	a3,a3,0x2
   14ac8:	00d906b3          	add	a3,s2,a3
   14acc:	00c6a403          	lw	s0,12(a3)
   14ad0:	02868c63          	beq	a3,s0,14b08 <_malloc_r+0x148>
   14ad4:	00442783          	lw	a5,4(s0)
   14ad8:	00f00613          	li	a2,15
   14adc:	ffc7f793          	andi	a5,a5,-4
   14ae0:	40978733          	sub	a4,a5,s1
   14ae4:	02e64063          	blt	a2,a4,14b04 <_malloc_r+0x144>
   14ae8:	18075e63          	bgez	a4,14c84 <_malloc_r+0x2c4>
   14aec:	00c42403          	lw	s0,12(s0)
   14af0:	00868c63          	beq	a3,s0,14b08 <_malloc_r+0x148>
   14af4:	00442783          	lw	a5,4(s0)
   14af8:	ffc7f793          	andi	a5,a5,-4
   14afc:	40978733          	sub	a4,a5,s1
   14b00:	fee654e3          	ble	a4,a2,14ae8 <_malloc_r+0x128>
   14b04:	fff58593          	addi	a1,a1,-1
   14b08:	00158693          	addi	a3,a1,1
   14b0c:	01092403          	lw	s0,16(s2)
   14b10:	00890813          	addi	a6,s2,8
   14b14:	3f040463          	beq	s0,a6,14efc <_malloc_r+0x53c>
   14b18:	00442783          	lw	a5,4(s0)
   14b1c:	00f00613          	li	a2,15
   14b20:	ffc7f793          	andi	a5,a5,-4
   14b24:	40978733          	sub	a4,a5,s1
   14b28:	38e64c63          	blt	a2,a4,14ec0 <_malloc_r+0x500>
   14b2c:	01092a23          	sw	a6,20(s2)
   14b30:	01092823          	sw	a6,16(s2)
   14b34:	12075863          	bgez	a4,14c64 <_malloc_r+0x2a4>
   14b38:	1ff00713          	li	a4,511
   14b3c:	32f76463          	bltu	a4,a5,14e64 <_malloc_r+0x4a4>
   14b40:	0037d793          	srli	a5,a5,0x3
   14b44:	00379613          	slli	a2,a5,0x3
   14b48:	00c90633          	add	a2,s2,a2
   14b4c:	00492703          	lw	a4,4(s2)
   14b50:	00862503          	lw	a0,8(a2)
   14b54:	4027d793          	srai	a5,a5,0x2
   14b58:	00100593          	li	a1,1
   14b5c:	00f597b3          	sll	a5,a1,a5
   14b60:	00e7e7b3          	or	a5,a5,a4
   14b64:	00c42623          	sw	a2,12(s0)
   14b68:	00a42423          	sw	a0,8(s0)
   14b6c:	00f92223          	sw	a5,4(s2)
   14b70:	00862423          	sw	s0,8(a2)
   14b74:	00852623          	sw	s0,12(a0)
   14b78:	4026d613          	srai	a2,a3,0x2
   14b7c:	00100713          	li	a4,1
   14b80:	00c71633          	sll	a2,a4,a2
   14b84:	12c7e863          	bltu	a5,a2,14cb4 <_malloc_r+0x2f4>
   14b88:	00c7f733          	and	a4,a5,a2
   14b8c:	02071463          	bnez	a4,14bb4 <_malloc_r+0x1f4>
   14b90:	00161613          	slli	a2,a2,0x1
   14b94:	ffc6f693          	andi	a3,a3,-4
   14b98:	00c7f733          	and	a4,a5,a2
   14b9c:	00468693          	addi	a3,a3,4
   14ba0:	00071a63          	bnez	a4,14bb4 <_malloc_r+0x1f4>
   14ba4:	00161613          	slli	a2,a2,0x1
   14ba8:	00c7f733          	and	a4,a5,a2
   14bac:	00468693          	addi	a3,a3,4
   14bb0:	fe070ae3          	beqz	a4,14ba4 <_malloc_r+0x1e4>
   14bb4:	00f00513          	li	a0,15
   14bb8:	00369893          	slli	a7,a3,0x3
   14bbc:	011908b3          	add	a7,s2,a7
   14bc0:	00088593          	mv	a1,a7
   14bc4:	00068293          	mv	t0,a3
   14bc8:	00c5a403          	lw	s0,12(a1)
   14bcc:	00859a63          	bne	a1,s0,14be0 <_malloc_r+0x220>
   14bd0:	3340006f          	j	14f04 <_malloc_r+0x544>
   14bd4:	34075c63          	bgez	a4,14f2c <_malloc_r+0x56c>
   14bd8:	00c42403          	lw	s0,12(s0)
   14bdc:	32858463          	beq	a1,s0,14f04 <_malloc_r+0x544>
   14be0:	00442783          	lw	a5,4(s0)
   14be4:	ffc7f793          	andi	a5,a5,-4
   14be8:	40978733          	sub	a4,a5,s1
   14bec:	fee554e3          	ble	a4,a0,14bd4 <_malloc_r+0x214>
   14bf0:	00c42683          	lw	a3,12(s0)
   14bf4:	00842603          	lw	a2,8(s0)
   14bf8:	009407b3          	add	a5,s0,s1
   14bfc:	00176893          	ori	a7,a4,1
   14c00:	00e785b3          	add	a1,a5,a4
   14c04:	0014e493          	ori	s1,s1,1
   14c08:	00942223          	sw	s1,4(s0)
   14c0c:	00098513          	mv	a0,s3
   14c10:	00d62623          	sw	a3,12(a2)
   14c14:	00c6a423          	sw	a2,8(a3)
   14c18:	00f92a23          	sw	a5,20(s2)
   14c1c:	00f92823          	sw	a5,16(s2)
   14c20:	0107a623          	sw	a6,12(a5)
   14c24:	0107a423          	sw	a6,8(a5)
   14c28:	0117a223          	sw	a7,4(a5)
   14c2c:	00e5a023          	sw	a4,0(a1)
   14c30:	7b0000ef          	jal	153e0 <__malloc_unlock>
   14c34:	00840513          	addi	a0,s0,8
   14c38:	e31ff06f          	j	14a68 <_malloc_r+0xa8>
   14c3c:	00c00793          	li	a5,12
   14c40:	00f9a023          	sw	a5,0(s3) # ffffe000 <_gp+0xfffe0a80>
   14c44:	00000513          	li	a0,0
   14c48:	e21ff06f          	j	14a68 <_malloc_r+0xa8>
   14c4c:	00400713          	li	a4,4
   14c50:	1ef76a63          	bltu	a4,a5,14e44 <_malloc_r+0x484>
   14c54:	0064d693          	srli	a3,s1,0x6
   14c58:	03868593          	addi	a1,a3,56
   14c5c:	00159693          	slli	a3,a1,0x1
   14c60:	e5dff06f          	j	14abc <_malloc_r+0xfc>
   14c64:	00f407b3          	add	a5,s0,a5
   14c68:	0047a703          	lw	a4,4(a5)
   14c6c:	00098513          	mv	a0,s3
   14c70:	00176713          	ori	a4,a4,1
   14c74:	00e7a223          	sw	a4,4(a5)
   14c78:	768000ef          	jal	153e0 <__malloc_unlock>
   14c7c:	00840513          	addi	a0,s0,8
   14c80:	de9ff06f          	j	14a68 <_malloc_r+0xa8>
   14c84:	00f407b3          	add	a5,s0,a5
   14c88:	0047a703          	lw	a4,4(a5)
   14c8c:	00c42683          	lw	a3,12(s0)
   14c90:	00842603          	lw	a2,8(s0)
   14c94:	00176713          	ori	a4,a4,1
   14c98:	00098513          	mv	a0,s3
   14c9c:	00d62623          	sw	a3,12(a2)
   14ca0:	00c6a423          	sw	a2,8(a3)
   14ca4:	00e7a223          	sw	a4,4(a5)
   14ca8:	738000ef          	jal	153e0 <__malloc_unlock>
   14cac:	00840513          	addi	a0,s0,8
   14cb0:	db9ff06f          	j	14a68 <_malloc_r+0xa8>
   14cb4:	00892403          	lw	s0,8(s2)
   14cb8:	00442a03          	lw	s4,4(s0)
   14cbc:	ffca7a13          	andi	s4,s4,-4
   14cc0:	009a6863          	bltu	s4,s1,14cd0 <_malloc_r+0x310>
   14cc4:	409a07b3          	sub	a5,s4,s1
   14cc8:	00f00713          	li	a4,15
   14ccc:	14f74863          	blt	a4,a5,14e1c <_malloc_r+0x45c>
   14cd0:	88c1aa83          	lw	s5,-1908(gp) # 1ce0c <__malloc_top_pad>
   14cd4:	8101a703          	lw	a4,-2032(gp) # 1cd90 <__malloc_sbrk_base>
   14cd8:	fff00793          	li	a5,-1
   14cdc:	01440b33          	add	s6,s0,s4
   14ce0:	01548ab3          	add	s5,s1,s5
   14ce4:	36f70463          	beq	a4,a5,1504c <_malloc_r+0x68c>
   14ce8:	000017b7          	lui	a5,0x1
   14cec:	00f78793          	addi	a5,a5,15 # 100f <_ftext-0xeff1>
   14cf0:	00fa8ab3          	add	s5,s5,a5
   14cf4:	fffff7b7          	lui	a5,0xfffff
   14cf8:	00fafab3          	and	s5,s5,a5
   14cfc:	000a8513          	mv	a0,s5
   14d00:	038040ef          	jal	18d38 <sbrk>
   14d04:	fff00793          	li	a5,-1
   14d08:	00050b93          	mv	s7,a0
   14d0c:	26f50863          	beq	a0,a5,14f7c <_malloc_r+0x5bc>
   14d10:	27656463          	bltu	a0,s6,14f78 <_malloc_r+0x5b8>
   14d14:	8b418c13          	addi	s8,gp,-1868 # 1ce34 <__malloc_current_mallinfo>
   14d18:	000c2783          	lw	a5,0(s8)
   14d1c:	00fa87b3          	add	a5,s5,a5
   14d20:	00fc2023          	sw	a5,0(s8)
   14d24:	357b0463          	beq	s6,s7,1506c <_malloc_r+0x6ac>
   14d28:	8101a683          	lw	a3,-2032(gp) # 1cd90 <__malloc_sbrk_base>
   14d2c:	fff00713          	li	a4,-1
   14d30:	36e68c63          	beq	a3,a4,150a8 <_malloc_r+0x6e8>
   14d34:	416b8b33          	sub	s6,s7,s6
   14d38:	016787b3          	add	a5,a5,s6
   14d3c:	00fc2023          	sw	a5,0(s8)
   14d40:	007bf713          	andi	a4,s7,7
   14d44:	000017b7          	lui	a5,0x1
   14d48:	00070a63          	beqz	a4,14d5c <_malloc_r+0x39c>
   14d4c:	40eb8bb3          	sub	s7,s7,a4
   14d50:	00878793          	addi	a5,a5,8 # 1008 <_ftext-0xeff8>
   14d54:	008b8b93          	addi	s7,s7,8
   14d58:	40e787b3          	sub	a5,a5,a4
   14d5c:	00001737          	lui	a4,0x1
   14d60:	fff70713          	addi	a4,a4,-1 # fff <_ftext-0xf001>
   14d64:	015b8ab3          	add	s5,s7,s5
   14d68:	00eafab3          	and	s5,s5,a4
   14d6c:	41578ab3          	sub	s5,a5,s5
   14d70:	000a8513          	mv	a0,s5
   14d74:	7c5030ef          	jal	18d38 <sbrk>
   14d78:	fff00793          	li	a5,-1
   14d7c:	32f50063          	beq	a0,a5,1509c <_malloc_r+0x6dc>
   14d80:	41750733          	sub	a4,a0,s7
   14d84:	00ea8733          	add	a4,s5,a4
   14d88:	00176713          	ori	a4,a4,1
   14d8c:	000c2783          	lw	a5,0(s8)
   14d90:	01792423          	sw	s7,8(s2)
   14d94:	00eba223          	sw	a4,4(s7)
   14d98:	00fa87b3          	add	a5,s5,a5
   14d9c:	00fc2023          	sw	a5,0(s8)
   14da0:	03240c63          	beq	s0,s2,14dd8 <_malloc_r+0x418>
   14da4:	00f00693          	li	a3,15
   14da8:	2746f863          	bleu	s4,a3,15018 <_malloc_r+0x658>
   14dac:	ff4a0a13          	addi	s4,s4,-12
   14db0:	ff8a7a13          	andi	s4,s4,-8
   14db4:	01440733          	add	a4,s0,s4
   14db8:	00500613          	li	a2,5
   14dbc:	00c72223          	sw	a2,4(a4)
   14dc0:	00c72423          	sw	a2,8(a4)
   14dc4:	00442703          	lw	a4,4(s0)
   14dc8:	00177713          	andi	a4,a4,1
   14dcc:	00ea6733          	or	a4,s4,a4
   14dd0:	00e42223          	sw	a4,4(s0)
   14dd4:	2b46ea63          	bltu	a3,s4,15088 <_malloc_r+0x6c8>
   14dd8:	8881a683          	lw	a3,-1912(gp) # 1ce08 <__malloc_max_sbrked_mem>
   14ddc:	00f6f463          	bleu	a5,a3,14de4 <_malloc_r+0x424>
   14de0:	88f1a423          	sw	a5,-1912(gp) # 1ce08 <__malloc_max_sbrked_mem>
   14de4:	8841a683          	lw	a3,-1916(gp) # 1ce04 <__malloc_max_total_mem>
   14de8:	00892403          	lw	s0,8(s2)
   14dec:	00f6f463          	bleu	a5,a3,14df4 <_malloc_r+0x434>
   14df0:	88f1a223          	sw	a5,-1916(gp) # 1ce04 <__malloc_max_total_mem>
   14df4:	00442703          	lw	a4,4(s0)
   14df8:	ffc77713          	andi	a4,a4,-4
   14dfc:	409707b3          	sub	a5,a4,s1
   14e00:	00976663          	bltu	a4,s1,14e0c <_malloc_r+0x44c>
   14e04:	00f00713          	li	a4,15
   14e08:	00f74a63          	blt	a4,a5,14e1c <_malloc_r+0x45c>
   14e0c:	00098513          	mv	a0,s3
   14e10:	5d0000ef          	jal	153e0 <__malloc_unlock>
   14e14:	00000513          	li	a0,0
   14e18:	c51ff06f          	j	14a68 <_malloc_r+0xa8>
   14e1c:	00940733          	add	a4,s0,s1
   14e20:	0017e793          	ori	a5,a5,1
   14e24:	0014e493          	ori	s1,s1,1
   14e28:	00942223          	sw	s1,4(s0)
   14e2c:	00098513          	mv	a0,s3
   14e30:	00e92423          	sw	a4,8(s2)
   14e34:	00f72223          	sw	a5,4(a4)
   14e38:	5a8000ef          	jal	153e0 <__malloc_unlock>
   14e3c:	00840513          	addi	a0,s0,8
   14e40:	c29ff06f          	j	14a68 <_malloc_r+0xa8>
   14e44:	01400713          	li	a4,20
   14e48:	10f77a63          	bleu	a5,a4,14f5c <_malloc_r+0x59c>
   14e4c:	05400713          	li	a4,84
   14e50:	18f76863          	bltu	a4,a5,14fe0 <_malloc_r+0x620>
   14e54:	00c4d693          	srli	a3,s1,0xc
   14e58:	06e68593          	addi	a1,a3,110
   14e5c:	00159693          	slli	a3,a1,0x1
   14e60:	c5dff06f          	j	14abc <_malloc_r+0xfc>
   14e64:	0097d713          	srli	a4,a5,0x9
   14e68:	00400613          	li	a2,4
   14e6c:	0ee67e63          	bleu	a4,a2,14f68 <_malloc_r+0x5a8>
   14e70:	01400613          	li	a2,20
   14e74:	1ee66063          	bltu	a2,a4,15054 <_malloc_r+0x694>
   14e78:	05b70513          	addi	a0,a4,91
   14e7c:	00151593          	slli	a1,a0,0x1
   14e80:	00259593          	slli	a1,a1,0x2
   14e84:	00b905b3          	add	a1,s2,a1
   14e88:	0085a703          	lw	a4,8(a1)
   14e8c:	16b70663          	beq	a4,a1,14ff8 <_malloc_r+0x638>
   14e90:	00472603          	lw	a2,4(a4)
   14e94:	ffc67613          	andi	a2,a2,-4
   14e98:	00c7f663          	bleu	a2,a5,14ea4 <_malloc_r+0x4e4>
   14e9c:	00872703          	lw	a4,8(a4)
   14ea0:	fee598e3          	bne	a1,a4,14e90 <_malloc_r+0x4d0>
   14ea4:	00c72603          	lw	a2,12(a4)
   14ea8:	00492783          	lw	a5,4(s2)
   14eac:	00c42623          	sw	a2,12(s0)
   14eb0:	00e42423          	sw	a4,8(s0)
   14eb4:	00862423          	sw	s0,8(a2)
   14eb8:	00872623          	sw	s0,12(a4)
   14ebc:	cbdff06f          	j	14b78 <_malloc_r+0x1b8>
   14ec0:	009407b3          	add	a5,s0,s1
   14ec4:	00176613          	ori	a2,a4,1
   14ec8:	00e786b3          	add	a3,a5,a4
   14ecc:	0014e493          	ori	s1,s1,1
   14ed0:	00942223          	sw	s1,4(s0)
   14ed4:	00098513          	mv	a0,s3
   14ed8:	00f92a23          	sw	a5,20(s2)
   14edc:	00f92823          	sw	a5,16(s2)
   14ee0:	0107a623          	sw	a6,12(a5)
   14ee4:	0107a423          	sw	a6,8(a5)
   14ee8:	00c7a223          	sw	a2,4(a5)
   14eec:	00e6a023          	sw	a4,0(a3)
   14ef0:	4f0000ef          	jal	153e0 <__malloc_unlock>
   14ef4:	00840513          	addi	a0,s0,8
   14ef8:	b71ff06f          	j	14a68 <_malloc_r+0xa8>
   14efc:	00492783          	lw	a5,4(s2)
   14f00:	c79ff06f          	j	14b78 <_malloc_r+0x1b8>
   14f04:	00128293          	addi	t0,t0,1
   14f08:	01e29713          	slli	a4,t0,0x1e
   14f0c:	00858593          	addi	a1,a1,8
   14f10:	ca071ce3          	bnez	a4,14bc8 <_malloc_r+0x208>
   14f14:	0840006f          	j	14f98 <_malloc_r+0x5d8>
   14f18:	00840793          	addi	a5,s0,8
   14f1c:	01442403          	lw	s0,20(s0)
   14f20:	00268693          	addi	a3,a3,2
   14f24:	be8784e3          	beq	a5,s0,14b0c <_malloc_r+0x14c>
   14f28:	b0dff06f          	j	14a34 <_malloc_r+0x74>
   14f2c:	00f407b3          	add	a5,s0,a5
   14f30:	0047a703          	lw	a4,4(a5)
   14f34:	00c42683          	lw	a3,12(s0)
   14f38:	00842603          	lw	a2,8(s0)
   14f3c:	00176713          	ori	a4,a4,1
   14f40:	00e7a223          	sw	a4,4(a5)
   14f44:	00098513          	mv	a0,s3
   14f48:	00d62623          	sw	a3,12(a2)
   14f4c:	00c6a423          	sw	a2,8(a3)
   14f50:	490000ef          	jal	153e0 <__malloc_unlock>
   14f54:	00840513          	addi	a0,s0,8
   14f58:	b11ff06f          	j	14a68 <_malloc_r+0xa8>
   14f5c:	05b78593          	addi	a1,a5,91
   14f60:	00159693          	slli	a3,a1,0x1
   14f64:	b59ff06f          	j	14abc <_malloc_r+0xfc>
   14f68:	0067d513          	srli	a0,a5,0x6
   14f6c:	03850513          	addi	a0,a0,56
   14f70:	00151593          	slli	a1,a0,0x1
   14f74:	f0dff06f          	j	14e80 <_malloc_r+0x4c0>
   14f78:	d9240ee3          	beq	s0,s2,14d14 <_malloc_r+0x354>
   14f7c:	00892403          	lw	s0,8(s2)
   14f80:	00442703          	lw	a4,4(s0)
   14f84:	ffc77713          	andi	a4,a4,-4
   14f88:	e75ff06f          	j	14dfc <_malloc_r+0x43c>
   14f8c:	0008a883          	lw	a7,0(a7)
   14f90:	fff68693          	addi	a3,a3,-1
   14f94:	14f89a63          	bne	a7,a5,150e8 <_malloc_r+0x728>
   14f98:	01e69713          	slli	a4,a3,0x1e
   14f9c:	ff888793          	addi	a5,a7,-8
   14fa0:	fe0716e3          	bnez	a4,14f8c <_malloc_r+0x5cc>
   14fa4:	00492783          	lw	a5,4(s2)
   14fa8:	fff64713          	not	a4,a2
   14fac:	00f777b3          	and	a5,a4,a5
   14fb0:	00f92223          	sw	a5,4(s2)
   14fb4:	00161613          	slli	a2,a2,0x1
   14fb8:	cec7eee3          	bltu	a5,a2,14cb4 <_malloc_r+0x2f4>
   14fbc:	ce060ce3          	beqz	a2,14cb4 <_malloc_r+0x2f4>
   14fc0:	00c7f733          	and	a4,a5,a2
   14fc4:	00028693          	mv	a3,t0
   14fc8:	be0718e3          	bnez	a4,14bb8 <_malloc_r+0x1f8>
   14fcc:	00161613          	slli	a2,a2,0x1
   14fd0:	00c7f733          	and	a4,a5,a2
   14fd4:	00468693          	addi	a3,a3,4
   14fd8:	fe070ae3          	beqz	a4,14fcc <_malloc_r+0x60c>
   14fdc:	bddff06f          	j	14bb8 <_malloc_r+0x1f8>
   14fe0:	15400713          	li	a4,340
   14fe4:	04f76463          	bltu	a4,a5,1502c <_malloc_r+0x66c>
   14fe8:	00f4d693          	srli	a3,s1,0xf
   14fec:	07768593          	addi	a1,a3,119
   14ff0:	00159693          	slli	a3,a1,0x1
   14ff4:	ac9ff06f          	j	14abc <_malloc_r+0xfc>
   14ff8:	00492603          	lw	a2,4(s2)
   14ffc:	40255513          	srai	a0,a0,0x2
   15000:	00100793          	li	a5,1
   15004:	00a797b3          	sll	a5,a5,a0
   15008:	00c7e7b3          	or	a5,a5,a2
   1500c:	00f92223          	sw	a5,4(s2)
   15010:	00070613          	mv	a2,a4
   15014:	e99ff06f          	j	14eac <_malloc_r+0x4ec>
   15018:	00100793          	li	a5,1
   1501c:	00fba223          	sw	a5,4(s7)
   15020:	000b8413          	mv	s0,s7
   15024:	00000713          	li	a4,0
   15028:	dd5ff06f          	j	14dfc <_malloc_r+0x43c>
   1502c:	55400713          	li	a4,1364
   15030:	0fc00693          	li	a3,252
   15034:	07e00593          	li	a1,126
   15038:	a8f762e3          	bltu	a4,a5,14abc <_malloc_r+0xfc>
   1503c:	0124d693          	srli	a3,s1,0x12
   15040:	07c68593          	addi	a1,a3,124
   15044:	00159693          	slli	a3,a1,0x1
   15048:	a75ff06f          	j	14abc <_malloc_r+0xfc>
   1504c:	010a8a93          	addi	s5,s5,16
   15050:	cadff06f          	j	14cfc <_malloc_r+0x33c>
   15054:	05400613          	li	a2,84
   15058:	04e66c63          	bltu	a2,a4,150b0 <_malloc_r+0x6f0>
   1505c:	00c7d513          	srli	a0,a5,0xc
   15060:	06e50513          	addi	a0,a0,110
   15064:	00151593          	slli	a1,a0,0x1
   15068:	e19ff06f          	j	14e80 <_malloc_r+0x4c0>
   1506c:	014b1713          	slli	a4,s6,0x14
   15070:	ca071ce3          	bnez	a4,14d28 <_malloc_r+0x368>
   15074:	00892703          	lw	a4,8(s2)
   15078:	014a8a33          	add	s4,s5,s4
   1507c:	001a6a13          	ori	s4,s4,1
   15080:	01472223          	sw	s4,4(a4)
   15084:	d55ff06f          	j	14dd8 <_malloc_r+0x418>
   15088:	00098513          	mv	a0,s3
   1508c:	00840593          	addi	a1,s0,8
   15090:	ac0ff0ef          	jal	14350 <_free_r>
   15094:	000c2783          	lw	a5,0(s8)
   15098:	d41ff06f          	j	14dd8 <_malloc_r+0x418>
   1509c:	00100713          	li	a4,1
   150a0:	00000a93          	li	s5,0
   150a4:	ce9ff06f          	j	14d8c <_malloc_r+0x3cc>
   150a8:	8171a823          	sw	s7,-2032(gp) # 1cd90 <__malloc_sbrk_base>
   150ac:	c95ff06f          	j	14d40 <_malloc_r+0x380>
   150b0:	15400613          	li	a2,340
   150b4:	00e66a63          	bltu	a2,a4,150c8 <_malloc_r+0x708>
   150b8:	00f7d513          	srli	a0,a5,0xf
   150bc:	07750513          	addi	a0,a0,119
   150c0:	00151593          	slli	a1,a0,0x1
   150c4:	dbdff06f          	j	14e80 <_malloc_r+0x4c0>
   150c8:	55400613          	li	a2,1364
   150cc:	0fc00593          	li	a1,252
   150d0:	07e00513          	li	a0,126
   150d4:	dae666e3          	bltu	a2,a4,14e80 <_malloc_r+0x4c0>
   150d8:	0127d513          	srli	a0,a5,0x12
   150dc:	07c50513          	addi	a0,a0,124
   150e0:	00151593          	slli	a1,a0,0x1
   150e4:	d9dff06f          	j	14e80 <_malloc_r+0x4c0>
   150e8:	00492783          	lw	a5,4(s2)
   150ec:	ec9ff06f          	j	14fb4 <_malloc_r+0x5f4>

000150f0 <memchr>:
   150f0:	01e51713          	slli	a4,a0,0x1e
   150f4:	0ff5f693          	andi	a3,a1,255
   150f8:	0c070263          	beqz	a4,151bc <memchr+0xcc>
   150fc:	fff60793          	addi	a5,a2,-1
   15100:	06060063          	beqz	a2,15160 <memchr+0x70>
   15104:	00054703          	lbu	a4,0(a0)
   15108:	00d71c63          	bne	a4,a3,15120 <memchr+0x30>
   1510c:	0b80006f          	j	151c4 <memchr+0xd4>
   15110:	04078863          	beqz	a5,15160 <memchr+0x70>
   15114:	00054703          	lbu	a4,0(a0)
   15118:	fff78793          	addi	a5,a5,-1
   1511c:	04d70463          	beq	a4,a3,15164 <memchr+0x74>
   15120:	00150513          	addi	a0,a0,1
   15124:	01e51713          	slli	a4,a0,0x1e
   15128:	fe0714e3          	bnez	a4,15110 <memchr+0x20>
   1512c:	00300813          	li	a6,3
   15130:	02f86c63          	bltu	a6,a5,15168 <memchr+0x78>
   15134:	02078663          	beqz	a5,15160 <memchr+0x70>
   15138:	00054703          	lbu	a4,0(a0)
   1513c:	08d70663          	beq	a4,a3,151c8 <memchr+0xd8>
   15140:	00150713          	addi	a4,a0,1
   15144:	00f507b3          	add	a5,a0,a5
   15148:	0100006f          	j	15158 <memchr+0x68>
   1514c:	00170713          	addi	a4,a4,1
   15150:	fff74603          	lbu	a2,-1(a4)
   15154:	06d60263          	beq	a2,a3,151b8 <memchr+0xc8>
   15158:	00070513          	mv	a0,a4
   1515c:	fef718e3          	bne	a4,a5,1514c <memchr+0x5c>
   15160:	00000513          	li	a0,0
   15164:	00008067          	ret
   15168:	0ff5f593          	andi	a1,a1,255
   1516c:	00859613          	slli	a2,a1,0x8
   15170:	00b665b3          	or	a1,a2,a1
   15174:	01059613          	slli	a2,a1,0x10
   15178:	feff02b7          	lui	t0,0xfeff0
   1517c:	808088b7          	lui	a7,0x80808
   15180:	00b66633          	or	a2,a2,a1
   15184:	eff28293          	addi	t0,t0,-257 # fefefeff <_gp+0xfefd297f>
   15188:	08088893          	addi	a7,a7,128 # 80808080 <_gp+0x807eab00>
   1518c:	00052703          	lw	a4,0(a0)
   15190:	00e64733          	xor	a4,a2,a4
   15194:	005705b3          	add	a1,a4,t0
   15198:	fff74713          	not	a4,a4
   1519c:	00e5f733          	and	a4,a1,a4
   151a0:	01177733          	and	a4,a4,a7
   151a4:	f80718e3          	bnez	a4,15134 <memchr+0x44>
   151a8:	ffc78793          	addi	a5,a5,-4
   151ac:	00450513          	addi	a0,a0,4
   151b0:	fcf86ee3          	bltu	a6,a5,1518c <memchr+0x9c>
   151b4:	f81ff06f          	j	15134 <memchr+0x44>
   151b8:	00008067          	ret
   151bc:	00060793          	mv	a5,a2
   151c0:	f6dff06f          	j	1512c <memchr+0x3c>
   151c4:	00008067          	ret
   151c8:	00008067          	ret

000151cc <memcpy>:
   151cc:	00a5c7b3          	xor	a5,a1,a0
   151d0:	01e79713          	slli	a4,a5,0x1e
   151d4:	00c508b3          	add	a7,a0,a2
   151d8:	0e071263          	bnez	a4,152bc <memcpy+0xf0>
   151dc:	00300793          	li	a5,3
   151e0:	0ec7fe63          	bleu	a2,a5,152dc <memcpy+0x110>
   151e4:	01e51793          	slli	a5,a0,0x1e
   151e8:	04079a63          	bnez	a5,1523c <memcpy+0x70>
   151ec:	ffc8f813          	andi	a6,a7,-4
   151f0:	fe080793          	addi	a5,a6,-32
   151f4:	00050713          	mv	a4,a0
   151f8:	06f56663          	bltu	a0,a5,15264 <memcpy+0x98>
   151fc:	00058693          	mv	a3,a1
   15200:	00070793          	mv	a5,a4
   15204:	03077863          	bleu	a6,a4,15234 <memcpy+0x68>
   15208:	0006a603          	lw	a2,0(a3)
   1520c:	00478793          	addi	a5,a5,4
   15210:	00468693          	addi	a3,a3,4
   15214:	fec7ae23          	sw	a2,-4(a5)
   15218:	ff07e8e3          	bltu	a5,a6,15208 <memcpy+0x3c>
   1521c:	fff74793          	not	a5,a4
   15220:	01078833          	add	a6,a5,a6
   15224:	ffc87813          	andi	a6,a6,-4
   15228:	00480813          	addi	a6,a6,4
   1522c:	01070733          	add	a4,a4,a6
   15230:	010585b3          	add	a1,a1,a6
   15234:	09176863          	bltu	a4,a7,152c4 <memcpy+0xf8>
   15238:	00008067          	ret
   1523c:	00050713          	mv	a4,a0
   15240:	0005c783          	lbu	a5,0(a1)
   15244:	00170713          	addi	a4,a4,1
   15248:	00158593          	addi	a1,a1,1
   1524c:	fef70fa3          	sb	a5,-1(a4)
   15250:	01e71793          	slli	a5,a4,0x1e
   15254:	fe0796e3          	bnez	a5,15240 <memcpy+0x74>
   15258:	ffc8f813          	andi	a6,a7,-4
   1525c:	fe080793          	addi	a5,a6,-32
   15260:	f8f77ee3          	bleu	a5,a4,151fc <memcpy+0x30>
   15264:	0005af83          	lw	t6,0(a1)
   15268:	0045af03          	lw	t5,4(a1)
   1526c:	0085ae83          	lw	t4,8(a1)
   15270:	00c5ae03          	lw	t3,12(a1)
   15274:	0105a383          	lw	t2,16(a1)
   15278:	0145a303          	lw	t1,20(a1)
   1527c:	0185a283          	lw	t0,24(a1)
   15280:	01c5a603          	lw	a2,28(a1)
   15284:	02458593          	addi	a1,a1,36
   15288:	02470713          	addi	a4,a4,36
   1528c:	ffc5a683          	lw	a3,-4(a1)
   15290:	fdf72e23          	sw	t6,-36(a4)
   15294:	ffe72023          	sw	t5,-32(a4)
   15298:	ffd72223          	sw	t4,-28(a4)
   1529c:	ffc72423          	sw	t3,-24(a4)
   152a0:	fe772623          	sw	t2,-20(a4)
   152a4:	fe672823          	sw	t1,-16(a4)
   152a8:	fe572a23          	sw	t0,-12(a4)
   152ac:	fec72c23          	sw	a2,-8(a4)
   152b0:	fed72e23          	sw	a3,-4(a4)
   152b4:	faf768e3          	bltu	a4,a5,15264 <memcpy+0x98>
   152b8:	f45ff06f          	j	151fc <memcpy+0x30>
   152bc:	00050713          	mv	a4,a0
   152c0:	03157e63          	bleu	a7,a0,152fc <memcpy+0x130>
   152c4:	0005c783          	lbu	a5,0(a1)
   152c8:	00170713          	addi	a4,a4,1
   152cc:	00158593          	addi	a1,a1,1
   152d0:	fef70fa3          	sb	a5,-1(a4)
   152d4:	ff1768e3          	bltu	a4,a7,152c4 <memcpy+0xf8>
   152d8:	00008067          	ret
   152dc:	00050713          	mv	a4,a0
   152e0:	f5157ce3          	bleu	a7,a0,15238 <memcpy+0x6c>
   152e4:	0005c783          	lbu	a5,0(a1)
   152e8:	00170713          	addi	a4,a4,1
   152ec:	00158593          	addi	a1,a1,1
   152f0:	fef70fa3          	sb	a5,-1(a4)
   152f4:	fd1768e3          	bltu	a4,a7,152c4 <memcpy+0xf8>
   152f8:	fe1ff06f          	j	152d8 <memcpy+0x10c>
   152fc:	00008067          	ret

00015300 <memset>:
   15300:	00f00813          	li	a6,15
   15304:	00050713          	mv	a4,a0
   15308:	02c87e63          	bleu	a2,a6,15344 <memset+0x44>
   1530c:	00f77793          	andi	a5,a4,15
   15310:	0a079063          	bnez	a5,153b0 <memset+0xb0>
   15314:	08059263          	bnez	a1,15398 <memset+0x98>
   15318:	ff067693          	andi	a3,a2,-16
   1531c:	00f67613          	andi	a2,a2,15
   15320:	00e686b3          	add	a3,a3,a4
   15324:	00b72023          	sw	a1,0(a4)
   15328:	00b72223          	sw	a1,4(a4)
   1532c:	00b72423          	sw	a1,8(a4)
   15330:	00b72623          	sw	a1,12(a4)
   15334:	01070713          	addi	a4,a4,16
   15338:	fed766e3          	bltu	a4,a3,15324 <memset+0x24>
   1533c:	00061463          	bnez	a2,15344 <memset+0x44>
   15340:	00008067          	ret
   15344:	40c806b3          	sub	a3,a6,a2
   15348:	00269693          	slli	a3,a3,0x2
   1534c:	00000297          	auipc	t0,0x0
   15350:	005686b3          	add	a3,a3,t0
   15354:	00c68067          	jr	a3,12
   15358:	00b70723          	sb	a1,14(a4)
   1535c:	00b706a3          	sb	a1,13(a4)
   15360:	00b70623          	sb	a1,12(a4)
   15364:	00b705a3          	sb	a1,11(a4)
   15368:	00b70523          	sb	a1,10(a4)
   1536c:	00b704a3          	sb	a1,9(a4)
   15370:	00b70423          	sb	a1,8(a4)
   15374:	00b703a3          	sb	a1,7(a4)
   15378:	00b70323          	sb	a1,6(a4)
   1537c:	00b702a3          	sb	a1,5(a4)
   15380:	00b70223          	sb	a1,4(a4)
   15384:	00b701a3          	sb	a1,3(a4)
   15388:	00b70123          	sb	a1,2(a4)
   1538c:	00b700a3          	sb	a1,1(a4)
   15390:	00b70023          	sb	a1,0(a4)
   15394:	00008067          	ret
   15398:	0ff5f593          	andi	a1,a1,255
   1539c:	00859693          	slli	a3,a1,0x8
   153a0:	00d5e5b3          	or	a1,a1,a3
   153a4:	01059693          	slli	a3,a1,0x10
   153a8:	00d5e5b3          	or	a1,a1,a3
   153ac:	f6dff06f          	j	15318 <memset+0x18>
   153b0:	00279693          	slli	a3,a5,0x2
   153b4:	00000297          	auipc	t0,0x0
   153b8:	005686b3          	add	a3,a3,t0
   153bc:	00008293          	mv	t0,ra
   153c0:	fa0680e7          	jalr	a3,-96
   153c4:	00028093          	mv	ra,t0
   153c8:	ff078793          	addi	a5,a5,-16
   153cc:	40f70733          	sub	a4,a4,a5
   153d0:	00f60633          	add	a2,a2,a5
   153d4:	f6c878e3          	bleu	a2,a6,15344 <memset+0x44>
   153d8:	f3dff06f          	j	15314 <memset+0x14>

000153dc <__malloc_lock>:
   153dc:	00008067          	ret

000153e0 <__malloc_unlock>:
   153e0:	00008067          	ret

000153e4 <_Balloc>:
   153e4:	04c52783          	lw	a5,76(a0)
   153e8:	ff010113          	addi	sp,sp,-16
   153ec:	00812423          	sw	s0,8(sp)
   153f0:	00912223          	sw	s1,4(sp)
   153f4:	00112623          	sw	ra,12(sp)
   153f8:	01212023          	sw	s2,0(sp)
   153fc:	00050413          	mv	s0,a0
   15400:	00058493          	mv	s1,a1
   15404:	02078e63          	beqz	a5,15440 <_Balloc+0x5c>
   15408:	00249713          	slli	a4,s1,0x2
   1540c:	00e78733          	add	a4,a5,a4
   15410:	00072503          	lw	a0,0(a4)
   15414:	04050663          	beqz	a0,15460 <_Balloc+0x7c>
   15418:	00052683          	lw	a3,0(a0)
   1541c:	00d72023          	sw	a3,0(a4)
   15420:	00052823          	sw	zero,16(a0)
   15424:	00052623          	sw	zero,12(a0)
   15428:	00c12083          	lw	ra,12(sp)
   1542c:	00812403          	lw	s0,8(sp)
   15430:	00412483          	lw	s1,4(sp)
   15434:	00012903          	lw	s2,0(sp)
   15438:	01010113          	addi	sp,sp,16
   1543c:	00008067          	ret
   15440:	00400593          	li	a1,4
   15444:	02100613          	li	a2,33
   15448:	360020ef          	jal	177a8 <_calloc_r>
   1544c:	00050793          	mv	a5,a0
   15450:	04a42623          	sw	a0,76(s0)
   15454:	fa051ae3          	bnez	a0,15408 <_Balloc+0x24>
   15458:	00000513          	li	a0,0
   1545c:	fcdff06f          	j	15428 <_Balloc+0x44>
   15460:	00100593          	li	a1,1
   15464:	00959933          	sll	s2,a1,s1
   15468:	00590613          	addi	a2,s2,5
   1546c:	00040513          	mv	a0,s0
   15470:	00261613          	slli	a2,a2,0x2
   15474:	334020ef          	jal	177a8 <_calloc_r>
   15478:	fe0500e3          	beqz	a0,15458 <_Balloc+0x74>
   1547c:	00952223          	sw	s1,4(a0)
   15480:	01252423          	sw	s2,8(a0)
   15484:	f9dff06f          	j	15420 <_Balloc+0x3c>

00015488 <_Bfree>:
