
test1.bin:     file format elf32-littleriscv


Disassembly of section .text:

00010000 <_ftext>:
   10000:	0000d197          	auipc	gp,0xd
   10004:	58018193          	addi	gp,gp,1408 # 1d580 <_gp>
   10008:	0000d297          	auipc	t0,0xd
   1000c:	df028293          	addi	t0,t0,-528 # 1cdf8 <_PathLocale>
   10010:	0000d317          	auipc	t1,0xd
   10014:	ea030313          	addi	t1,t1,-352 # 1ceb0 <_end>
   10018:	0002a023          	sw	zero,0(t0)
   1001c:	00428293          	addi	t0,t0,4
   10020:	fe62ece3          	bltu	t0,t1,10018 <_ftext+0x18>
   10024:	00001517          	auipc	a0,0x1
   10028:	ae450513          	addi	a0,a0,-1308 # 10b08 <__libc_fini_array>
   1002c:	1f9000ef          	jal	10a24 <atexit>
   10030:	239000ef          	jal	10a68 <__libc_init_array>
   10034:	00012503          	lw	a0,0(sp)
   10038:	00410593          	addi	a1,sp,4
   1003c:	00000613          	li	a2,0
   10040:	0b1000ef          	jal	108f0 <main>
   10044:	1f50006f          	j	10a38 <exit>

00010048 <_fini>:
   10048:	00008067          	ret

0001004c <deregister_tm_clones>:
   1004c:	80018713          	addi	a4,gp,-2048 # 1cd80 <_edata>
   10050:	80318793          	addi	a5,gp,-2045 # 1cd83 <_edata+0x3>
   10054:	40e787b3          	sub	a5,a5,a4
   10058:	00600713          	li	a4,6
   1005c:	00f77a63          	bleu	a5,a4,10070 <deregister_tm_clones+0x24>
   10060:	00000293          	li	t0,0
   10064:	00028663          	beqz	t0,10070 <deregister_tm_clones+0x24>
   10068:	80018513          	addi	a0,gp,-2048 # 1cd80 <_edata>
   1006c:	00028067          	jr	t0
   10070:	00008067          	ret

00010074 <register_tm_clones>:
   10074:	80018593          	addi	a1,gp,-2048 # 1cd80 <_edata>
   10078:	80018793          	addi	a5,gp,-2048 # 1cd80 <_edata>
   1007c:	40b787b3          	sub	a5,a5,a1
   10080:	4027d793          	srai	a5,a5,0x2
   10084:	01f7d593          	srli	a1,a5,0x1f
   10088:	00f585b3          	add	a1,a1,a5
   1008c:	4015d593          	srai	a1,a1,0x1
   10090:	00058a63          	beqz	a1,100a4 <register_tm_clones+0x30>
   10094:	00000293          	li	t0,0
   10098:	00028663          	beqz	t0,100a4 <register_tm_clones+0x30>
   1009c:	80018513          	addi	a0,gp,-2048 # 1cd80 <_edata>
   100a0:	00028067          	jr	t0
   100a4:	00008067          	ret

000100a8 <__do_global_dtors_aux>:
   100a8:	ff010113          	addi	sp,sp,-16
   100ac:	00812423          	sw	s0,8(sp)
   100b0:	8981c783          	lbu	a5,-1896(gp) # 1ce18 <completed.2868>
   100b4:	00112623          	sw	ra,12(sp)
   100b8:	02079263          	bnez	a5,100dc <__do_global_dtors_aux+0x34>
   100bc:	f91ff0ef          	jal	1004c <deregister_tm_clones>
   100c0:	00000793          	li	a5,0
   100c4:	00078863          	beqz	a5,100d4 <__do_global_dtors_aux+0x2c>
   100c8:	0001b537          	lui	a0,0x1b
   100cc:	2d050513          	addi	a0,a0,720 # 1b2d0 <__fini_array_end>
   100d0:	f31ef0ef          	jal	0 <_ftext-0x10000>
   100d4:	00100793          	li	a5,1
   100d8:	88f18c23          	sb	a5,-1896(gp) # 1ce18 <completed.2868>
   100dc:	00c12083          	lw	ra,12(sp)
   100e0:	00812403          	lw	s0,8(sp)
   100e4:	01010113          	addi	sp,sp,16
   100e8:	00008067          	ret

000100ec <frame_dummy>:
   100ec:	ff010113          	addi	sp,sp,-16
   100f0:	00000793          	li	a5,0
   100f4:	00112623          	sw	ra,12(sp)
   100f8:	00078a63          	beqz	a5,1010c <frame_dummy+0x20>
   100fc:	0001b537          	lui	a0,0x1b
   10100:	2d050513          	addi	a0,a0,720 # 1b2d0 <__fini_array_end>
   10104:	89c18593          	addi	a1,gp,-1892 # 1ce1c <object.2873>
   10108:	ef9ef0ef          	jal	0 <_ftext-0x10000>
   1010c:	0001c537          	lui	a0,0x1c
   10110:	50c50513          	addi	a0,a0,1292 # 1c50c <__JCR_END__>
   10114:	00052783          	lw	a5,0(a0)
   10118:	00079863          	bnez	a5,10128 <frame_dummy+0x3c>
   1011c:	00c12083          	lw	ra,12(sp)
   10120:	01010113          	addi	sp,sp,16
   10124:	f51ff06f          	j	10074 <register_tm_clones>
   10128:	00000793          	li	a5,0
   1012c:	fe0788e3          	beqz	a5,1011c <frame_dummy+0x30>
   10130:	000780e7          	jalr	a5
   10134:	fe9ff06f          	j	1011c <frame_dummy+0x30>
   10138:	0000                	unimp
   1013a:	0000                	unimp
   1013c:	0000                	unimp
   1013e:	0000                	unimp

00010140 <list_getSize>:
   10140:	ff410113          	addi	sp,sp,-12
   10144:	00812423          	sw	s0,8(sp)
   10148:	00200433          	add	s0,zero,sp
   1014c:	00a42223          	sw	a0,4(s0)
   10150:	00052283          	lw	t0,0(a0)
   10154:	00a42023          	sw	a0,0(s0)
   10158:	00028513          	mv	a0,t0
   1015c:	00800133          	add	sp,zero,s0
   10160:	00812403          	lw	s0,8(sp)
   10164:	00c10113          	addi	sp,sp,12
   10168:	00008067          	ret
   1016c:	00000013          	nop

00010170 <list_init>:
   10170:	ff410113          	addi	sp,sp,-12
   10174:	00812423          	sw	s0,8(sp)
   10178:	00200433          	add	s0,zero,sp
   1017c:	00a42223          	sw	a0,4(s0)
   10180:	00052023          	sw	zero,0(a0)
   10184:	00442283          	lw	t0,4(s0)
   10188:	0002a223          	sw	zero,4(t0)
   1018c:	00a42023          	sw	a0,0(s0)
   10190:	00800133          	add	sp,zero,s0
   10194:	00812403          	lw	s0,8(sp)
   10198:	00c10113          	addi	sp,sp,12
   1019c:	00008067          	ret

000101a0 <list_push>:
   101a0:	fe810113          	addi	sp,sp,-24
   101a4:	00812a23          	sw	s0,20(sp)
   101a8:	00200433          	add	s0,zero,sp
   101ac:	00a42823          	sw	a0,16(s0)
   101b0:	00b42623          	sw	a1,12(s0)
   101b4:	8f018293          	addi	t0,gp,-1808 # 1ce70 <g_nodeFreeList>
   101b8:	0042a303          	lw	t1,4(t0)
   101bc:	00642423          	sw	t1,8(s0)
   101c0:	0042a303          	lw	t1,4(t0)
   101c4:	00432303          	lw	t1,4(t1)
   101c8:	0062a223          	sw	t1,4(t0)
   101cc:	01042283          	lw	t0,16(s0)
   101d0:	0042a283          	lw	t0,4(t0)
   101d4:	00842303          	lw	t1,8(s0)
   101d8:	00532223          	sw	t0,4(t1)
   101dc:	00842283          	lw	t0,8(s0)
   101e0:	01042303          	lw	t1,16(s0)
   101e4:	00532223          	sw	t0,4(t1)
   101e8:	00c42283          	lw	t0,12(s0)
   101ec:	01042303          	lw	t1,16(s0)
   101f0:	00432303          	lw	t1,4(t1)
   101f4:	00532023          	sw	t0,0(t1)
   101f8:	01042283          	lw	t0,16(s0)
   101fc:	0002a303          	lw	t1,0(t0)
   10200:	00130313          	addi	t1,t1,1
   10204:	0062a023          	sw	t1,0(t0)
   10208:	00a42223          	sw	a0,4(s0)
   1020c:	00b42023          	sw	a1,0(s0)
   10210:	00800133          	add	sp,zero,s0
   10214:	01412403          	lw	s0,20(sp)
   10218:	01810113          	addi	sp,sp,24
   1021c:	00008067          	ret

00010220 <list_pop>:
   10220:	fec10113          	addi	sp,sp,-20
   10224:	00812823          	sw	s0,16(sp)
   10228:	00200433          	add	s0,zero,sp
   1022c:	00a42623          	sw	a0,12(s0)
   10230:	00452283          	lw	t0,4(a0)
   10234:	0002a283          	lw	t0,0(t0)
   10238:	00542223          	sw	t0,4(s0)
   1023c:	00c42283          	lw	t0,12(s0)
   10240:	0042a283          	lw	t0,4(t0)
   10244:	00542423          	sw	t0,8(s0)
   10248:	00c42283          	lw	t0,12(s0)
   1024c:	0042a303          	lw	t1,4(t0)
   10250:	00432303          	lw	t1,4(t1)
   10254:	0062a223          	sw	t1,4(t0)
   10258:	8f018293          	addi	t0,gp,-1808 # 1ce70 <g_nodeFreeList>
   1025c:	0042a303          	lw	t1,4(t0)
   10260:	00842383          	lw	t2,8(s0)
   10264:	0063a223          	sw	t1,4(t2)
   10268:	00842303          	lw	t1,8(s0)
   1026c:	0062a223          	sw	t1,4(t0)
   10270:	00c42283          	lw	t0,12(s0)
   10274:	0002a303          	lw	t1,0(t0)
   10278:	fff30313          	addi	t1,t1,-1
   1027c:	0062a023          	sw	t1,0(t0)
   10280:	00442283          	lw	t0,4(s0)
   10284:	00a42023          	sw	a0,0(s0)
   10288:	00028513          	mv	a0,t0
   1028c:	00800133          	add	sp,zero,s0
   10290:	01012403          	lw	s0,16(sp)
   10294:	01410113          	addi	sp,sp,20
   10298:	00008067          	ret
   1029c:	00000013          	nop

000102a0 <list_clear>:
   102a0:	fe010113          	addi	sp,sp,-32
   102a4:	00112e23          	sw	ra,28(sp)
   102a8:	00312c23          	sw	gp,24(sp)
   102ac:	00812a23          	sw	s0,20(sp)
   102b0:	00200433          	add	s0,zero,sp
   102b4:	00a42823          	sw	a0,16(s0)
   102b8:	00a42623          	sw	a0,12(s0)
   102bc:	01042503          	lw	a0,16(s0)
   102c0:	e81ff0ef          	jal	10140 <list_getSize>
   102c4:	00100293          	li	t0,1
   102c8:	00554c63          	blt	a0,t0,102e0 <list_clear+0x40>
   102cc:	0040006f          	j	102d0 <list_clear+0x30>
   102d0:	01042503          	lw	a0,16(s0)
   102d4:	f4dff0ef          	jal	10220 <list_pop>
   102d8:	00a42423          	sw	a0,8(s0)
   102dc:	fe1ff06f          	j	102bc <list_clear+0x1c>
   102e0:	00800133          	add	sp,zero,s0
   102e4:	01412403          	lw	s0,20(sp)
   102e8:	01812183          	lw	gp,24(sp)
   102ec:	01c12083          	lw	ra,28(sp)
   102f0:	02010113          	addi	sp,sp,32
   102f4:	00008067          	ret
   102f8:	00000013          	nop
   102fc:	00000013          	nop

00010300 <towers_init>:
   10300:	fd010113          	addi	sp,sp,-48
   10304:	02112623          	sw	ra,44(sp)
   10308:	02312423          	sw	gp,40(sp)
   1030c:	02812223          	sw	s0,36(sp)
   10310:	00200433          	add	s0,zero,sp
   10314:	02a42023          	sw	a0,32(s0)
   10318:	00b42e23          	sw	a1,28(s0)
   1031c:	02042283          	lw	t0,32(s0)
   10320:	00b2a023          	sw	a1,0(t0)
   10324:	02042283          	lw	t0,32(s0)
   10328:	0002a223          	sw	zero,4(t0)
   1032c:	02042283          	lw	t0,32(s0)
   10330:	00828293          	addi	t0,t0,8
   10334:	00a42a23          	sw	a0,20(s0)
   10338:	00028513          	mv	a0,t0
   1033c:	00b42823          	sw	a1,16(s0)
   10340:	e31ff0ef          	jal	10170 <list_init>
   10344:	02042283          	lw	t0,32(s0)
   10348:	01028513          	addi	a0,t0,16
   1034c:	e25ff0ef          	jal	10170 <list_init>
   10350:	02042283          	lw	t0,32(s0)
   10354:	01828513          	addi	a0,t0,24
   10358:	e19ff0ef          	jal	10170 <list_init>
   1035c:	00042c23          	sw	zero,24(s0)
   10360:	01042283          	lw	t0,16(s0)
   10364:	01442503          	lw	a0,20(s0)
   10368:	00542623          	sw	t0,12(s0)
   1036c:	00a42423          	sw	a0,8(s0)
   10370:	01842283          	lw	t0,24(s0)
   10374:	01c42303          	lw	t1,28(s0)
   10378:	0262d863          	ble	t1,t0,103a8 <towers_init+0xa8>
   1037c:	0040006f          	j	10380 <towers_init+0x80>
   10380:	02042283          	lw	t0,32(s0)
   10384:	00828513          	addi	a0,t0,8
   10388:	01c42283          	lw	t0,28(s0)
   1038c:	01842303          	lw	t1,24(s0)
   10390:	406285b3          	sub	a1,t0,t1
   10394:	e0dff0ef          	jal	101a0 <list_push>
   10398:	01842283          	lw	t0,24(s0)
   1039c:	00128293          	addi	t0,t0,1
   103a0:	00542c23          	sw	t0,24(s0)
   103a4:	fcdff06f          	j	10370 <towers_init+0x70>
   103a8:	00800133          	add	sp,zero,s0
   103ac:	02412403          	lw	s0,36(sp)
   103b0:	02812183          	lw	gp,40(sp)
   103b4:	02c12083          	lw	ra,44(sp)
   103b8:	03010113          	addi	sp,sp,48
   103bc:	00008067          	ret

000103c0 <towers_clear>:
   103c0:	fe010113          	addi	sp,sp,-32
   103c4:	00112e23          	sw	ra,28(sp)
   103c8:	00312c23          	sw	gp,24(sp)
   103cc:	00812a23          	sw	s0,20(sp)
   103d0:	00200433          	add	s0,zero,sp
   103d4:	00a42823          	sw	a0,16(s0)
   103d8:	00850293          	addi	t0,a0,8
   103dc:	00a42623          	sw	a0,12(s0)
   103e0:	00028513          	mv	a0,t0
   103e4:	ebdff0ef          	jal	102a0 <list_clear>
   103e8:	01042283          	lw	t0,16(s0)
   103ec:	01028513          	addi	a0,t0,16
   103f0:	eb1ff0ef          	jal	102a0 <list_clear>
   103f4:	01042283          	lw	t0,16(s0)
   103f8:	01828513          	addi	a0,t0,24
   103fc:	ea5ff0ef          	jal	102a0 <list_clear>
   10400:	01042283          	lw	t0,16(s0)
   10404:	0002a583          	lw	a1,0(t0)
   10408:	00028513          	mv	a0,t0
   1040c:	ef5ff0ef          	jal	10300 <towers_init>
   10410:	00c42283          	lw	t0,12(s0)
   10414:	00542423          	sw	t0,8(s0)
   10418:	00800133          	add	sp,zero,s0
   1041c:	01412403          	lw	s0,20(sp)
   10420:	01812183          	lw	gp,24(sp)
   10424:	01c12083          	lw	ra,28(sp)
   10428:	02010113          	addi	sp,sp,32
   1042c:	00008067          	ret

00010430 <towers_print>:
   10430:	f9010113          	addi	sp,sp,-112
   10434:	06112623          	sw	ra,108(sp)
   10438:	06312423          	sw	gp,104(sp)
   1043c:	06812223          	sw	s0,100(sp)
   10440:	00200433          	add	s0,zero,sp
   10444:	06a42023          	sw	a0,96(s0)
   10448:	0001b2b7          	lui	t0,0x1b
   1044c:	24028293          	addi	t0,t0,576 # 1b240 <__clz_tab+0x100>
   10450:	04a42823          	sw	a0,80(s0)
   10454:	00028513          	mv	a0,t0
   10458:	74c000ef          	jal	10ba4 <printf>
   1045c:	04042c23          	sw	zero,88(s0)
   10460:	05042283          	lw	t0,80(s0)
   10464:	04a42623          	sw	a0,76(s0)
   10468:	04542423          	sw	t0,72(s0)
   1046c:	05842283          	lw	t0,88(s0)
   10470:	06042303          	lw	t1,96(s0)
   10474:	00032383          	lw	t2,0(t1)
   10478:	00830513          	addi	a0,t1,8
   1047c:	04542223          	sw	t0,68(s0)
   10480:	04742023          	sw	t2,64(s0)
   10484:	cbdff0ef          	jal	10140 <list_getSize>
   10488:	04042283          	lw	t0,64(s0)
   1048c:	40a282b3          	sub	t0,t0,a0
   10490:	04442303          	lw	t1,68(s0)
   10494:	02535463          	ble	t0,t1,104bc <towers_print+0x8c>
   10498:	0040006f          	j	1049c <towers_print+0x6c>
   1049c:	0001b2b7          	lui	t0,0x1b
   104a0:	24928513          	addi	a0,t0,585 # 1b249 <__clz_tab+0x109>
   104a4:	700000ef          	jal	10ba4 <printf>
   104a8:	02a42e23          	sw	a0,60(s0)
   104ac:	05842283          	lw	t0,88(s0)
   104b0:	00128293          	addi	t0,t0,1
   104b4:	04542c23          	sw	t0,88(s0)
   104b8:	fb5ff06f          	j	1046c <towers_print+0x3c>
   104bc:	06042283          	lw	t0,96(s0)
   104c0:	00c2a283          	lw	t0,12(t0)
   104c4:	04542e23          	sw	t0,92(s0)
   104c8:	05c42283          	lw	t0,92(s0)
   104cc:	02028863          	beqz	t0,104fc <towers_print+0xcc>
   104d0:	0040006f          	j	104d4 <towers_print+0xa4>
   104d4:	05c42283          	lw	t0,92(s0)
   104d8:	0002a583          	lw	a1,0(t0)
   104dc:	0001b2b7          	lui	t0,0x1b
   104e0:	24c28513          	addi	a0,t0,588 # 1b24c <__clz_tab+0x10c>
   104e4:	6c0000ef          	jal	10ba4 <printf>
   104e8:	02a42c23          	sw	a0,56(s0)
   104ec:	05c42283          	lw	t0,92(s0)
   104f0:	0042a283          	lw	t0,4(t0)
   104f4:	04542e23          	sw	t0,92(s0)
   104f8:	fd1ff06f          	j	104c8 <towers_print+0x98>
   104fc:	0001b2b7          	lui	t0,0x1b
   10500:	25028513          	addi	a0,t0,592 # 1b250 <__clz_tab+0x110>
   10504:	6a0000ef          	jal	10ba4 <printf>
   10508:	04042c23          	sw	zero,88(s0)
   1050c:	02a42a23          	sw	a0,52(s0)
   10510:	05842283          	lw	t0,88(s0)
   10514:	06042303          	lw	t1,96(s0)
   10518:	00032383          	lw	t2,0(t1)
   1051c:	01030513          	addi	a0,t1,16
   10520:	02542823          	sw	t0,48(s0)
   10524:	02742623          	sw	t2,44(s0)
   10528:	c19ff0ef          	jal	10140 <list_getSize>
   1052c:	02c42283          	lw	t0,44(s0)
   10530:	40a282b3          	sub	t0,t0,a0
   10534:	03042303          	lw	t1,48(s0)
   10538:	02535463          	ble	t0,t1,10560 <towers_print+0x130>
   1053c:	0040006f          	j	10540 <towers_print+0x110>
   10540:	0001b2b7          	lui	t0,0x1b
   10544:	24928513          	addi	a0,t0,585 # 1b249 <__clz_tab+0x109>
   10548:	65c000ef          	jal	10ba4 <printf>
   1054c:	02a42423          	sw	a0,40(s0)
   10550:	05842283          	lw	t0,88(s0)
   10554:	00128293          	addi	t0,t0,1
   10558:	04542c23          	sw	t0,88(s0)
   1055c:	fb5ff06f          	j	10510 <towers_print+0xe0>
   10560:	06042283          	lw	t0,96(s0)
   10564:	0142a283          	lw	t0,20(t0)
   10568:	04542e23          	sw	t0,92(s0)
   1056c:	05c42283          	lw	t0,92(s0)
   10570:	02028863          	beqz	t0,105a0 <towers_print+0x170>
   10574:	0040006f          	j	10578 <towers_print+0x148>
   10578:	05c42283          	lw	t0,92(s0)
   1057c:	0002a583          	lw	a1,0(t0)
   10580:	0001b2b7          	lui	t0,0x1b
   10584:	24c28513          	addi	a0,t0,588 # 1b24c <__clz_tab+0x10c>
   10588:	61c000ef          	jal	10ba4 <printf>
   1058c:	02a42223          	sw	a0,36(s0)
   10590:	05c42283          	lw	t0,92(s0)
   10594:	0042a283          	lw	t0,4(t0)
   10598:	04542e23          	sw	t0,92(s0)
   1059c:	fd1ff06f          	j	1056c <towers_print+0x13c>
   105a0:	0001b2b7          	lui	t0,0x1b
   105a4:	25928513          	addi	a0,t0,601 # 1b259 <__clz_tab+0x119>
   105a8:	5fc000ef          	jal	10ba4 <printf>
   105ac:	04042c23          	sw	zero,88(s0)
   105b0:	02a42023          	sw	a0,32(s0)
   105b4:	05842283          	lw	t0,88(s0)
   105b8:	06042303          	lw	t1,96(s0)
   105bc:	00032383          	lw	t2,0(t1)
   105c0:	01830513          	addi	a0,t1,24
   105c4:	00542e23          	sw	t0,28(s0)
   105c8:	00742c23          	sw	t2,24(s0)
   105cc:	b75ff0ef          	jal	10140 <list_getSize>
   105d0:	01842283          	lw	t0,24(s0)
   105d4:	40a282b3          	sub	t0,t0,a0
   105d8:	01c42303          	lw	t1,28(s0)
   105dc:	02535463          	ble	t0,t1,10604 <towers_print+0x1d4>
   105e0:	0040006f          	j	105e4 <towers_print+0x1b4>
   105e4:	0001b2b7          	lui	t0,0x1b
   105e8:	24928513          	addi	a0,t0,585 # 1b249 <__clz_tab+0x109>
   105ec:	5b8000ef          	jal	10ba4 <printf>
   105f0:	00a42a23          	sw	a0,20(s0)
   105f4:	05842283          	lw	t0,88(s0)
   105f8:	00128293          	addi	t0,t0,1
   105fc:	04542c23          	sw	t0,88(s0)
   10600:	fb5ff06f          	j	105b4 <towers_print+0x184>
   10604:	06042283          	lw	t0,96(s0)
   10608:	01c2a283          	lw	t0,28(t0)
   1060c:	04542e23          	sw	t0,92(s0)
   10610:	05c42283          	lw	t0,92(s0)
   10614:	02028863          	beqz	t0,10644 <towers_print+0x214>
   10618:	0040006f          	j	1061c <towers_print+0x1ec>
   1061c:	05c42283          	lw	t0,92(s0)
   10620:	0002a583          	lw	a1,0(t0)
   10624:	0001b2b7          	lui	t0,0x1b
   10628:	24c28513          	addi	a0,t0,588 # 1b24c <__clz_tab+0x10c>
   1062c:	578000ef          	jal	10ba4 <printf>
   10630:	00a42823          	sw	a0,16(s0)
   10634:	05c42283          	lw	t0,92(s0)
   10638:	0042a283          	lw	t0,4(t0)
   1063c:	04542e23          	sw	t0,92(s0)
   10640:	fd1ff06f          	j	10610 <towers_print+0x1e0>
   10644:	0001b2b7          	lui	t0,0x1b
   10648:	26228513          	addi	a0,t0,610 # 1b262 <__clz_tab+0x122>
   1064c:	558000ef          	jal	10ba4 <printf>
   10650:	00a42623          	sw	a0,12(s0)
   10654:	00800133          	add	sp,zero,s0
   10658:	06412403          	lw	s0,100(sp)
   1065c:	06812183          	lw	gp,104(sp)
   10660:	06c12083          	lw	ra,108(sp)
   10664:	07010113          	addi	sp,sp,112
   10668:	00008067          	ret
   1066c:	00000013          	nop

00010670 <towers_solve_h>:
   10670:	fc010113          	addi	sp,sp,-64
   10674:	02112e23          	sw	ra,60(sp)
   10678:	02312c23          	sw	gp,56(sp)
   1067c:	02812a23          	sw	s0,52(sp)
   10680:	00200433          	add	s0,zero,sp
   10684:	02a42823          	sw	a0,48(s0)
   10688:	02b42623          	sw	a1,44(s0)
   1068c:	02c42423          	sw	a2,40(s0)
   10690:	02d42223          	sw	a3,36(s0)
   10694:	02e42023          	sw	a4,32(s0)
   10698:	02c42283          	lw	t0,44(s0)
   1069c:	00100313          	li	t1,1
   106a0:	00a42c23          	sw	a0,24(s0)
   106a4:	00e42a23          	sw	a4,20(s0)
   106a8:	00d42823          	sw	a3,16(s0)
   106ac:	00c42623          	sw	a2,12(s0)
   106b0:	00b42423          	sw	a1,8(s0)
   106b4:	02629e63          	bne	t0,t1,106f0 <towers_solve_h+0x80>
   106b8:	0040006f          	j	106bc <towers_solve_h+0x4c>
   106bc:	02842503          	lw	a0,40(s0)
   106c0:	b61ff0ef          	jal	10220 <list_pop>
   106c4:	00a42e23          	sw	a0,28(s0)
   106c8:	02042283          	lw	t0,32(s0)
   106cc:	00a42223          	sw	a0,4(s0)
   106d0:	00028513          	mv	a0,t0
   106d4:	00442583          	lw	a1,4(s0)
   106d8:	ac9ff0ef          	jal	101a0 <list_push>
   106dc:	03042283          	lw	t0,48(s0)
   106e0:	0042a503          	lw	a0,4(t0)
   106e4:	00150513          	addi	a0,a0,1
   106e8:	00a2a223          	sw	a0,4(t0)
   106ec:	0600006f          	j	1074c <towers_solve_h+0xdc>
   106f0:	03042503          	lw	a0,48(s0)
   106f4:	02c42283          	lw	t0,44(s0)
   106f8:	00100593          	li	a1,1
   106fc:	02842603          	lw	a2,40(s0)
   10700:	02042683          	lw	a3,32(s0)
   10704:	02442703          	lw	a4,36(s0)
   10708:	fff28293          	addi	t0,t0,-1
   1070c:	00b42023          	sw	a1,0(s0)
   10710:	00028593          	mv	a1,t0
   10714:	f5dff0ef          	jal	10670 <towers_solve_h>
   10718:	03042503          	lw	a0,48(s0)
   1071c:	02842603          	lw	a2,40(s0)
   10720:	02442683          	lw	a3,36(s0)
   10724:	02042703          	lw	a4,32(s0)
   10728:	00042583          	lw	a1,0(s0)
   1072c:	f45ff0ef          	jal	10670 <towers_solve_h>
   10730:	03042503          	lw	a0,48(s0)
   10734:	02c42283          	lw	t0,44(s0)
   10738:	02442603          	lw	a2,36(s0)
   1073c:	02842683          	lw	a3,40(s0)
   10740:	02042703          	lw	a4,32(s0)
   10744:	fff28593          	addi	a1,t0,-1
   10748:	f29ff0ef          	jal	10670 <towers_solve_h>
   1074c:	00800133          	add	sp,zero,s0
   10750:	03412403          	lw	s0,52(sp)
   10754:	03812183          	lw	gp,56(sp)
   10758:	03c12083          	lw	ra,60(sp)
   1075c:	04010113          	addi	sp,sp,64
   10760:	00008067          	ret
   10764:	00000013          	nop
   10768:	00000013          	nop
   1076c:	00000013          	nop

00010770 <towers_solve>:
   10770:	fe010113          	addi	sp,sp,-32
   10774:	00112e23          	sw	ra,28(sp)
   10778:	00312c23          	sw	gp,24(sp)
   1077c:	00812a23          	sw	s0,20(sp)
   10780:	00200433          	add	s0,zero,sp
   10784:	00a42823          	sw	a0,16(s0)
   10788:	00052583          	lw	a1,0(a0)
   1078c:	00850613          	addi	a2,a0,8
   10790:	01050693          	addi	a3,a0,16
   10794:	01850713          	addi	a4,a0,24
   10798:	00a42623          	sw	a0,12(s0)
   1079c:	ed5ff0ef          	jal	10670 <towers_solve_h>
   107a0:	00c42503          	lw	a0,12(s0)
   107a4:	00a42423          	sw	a0,8(s0)
   107a8:	00800133          	add	sp,zero,s0
   107ac:	01412403          	lw	s0,20(sp)
   107b0:	01812183          	lw	gp,24(sp)
   107b4:	01c12083          	lw	ra,28(sp)
   107b8:	02010113          	addi	sp,sp,32
   107bc:	00008067          	ret

000107c0 <towers_verify>:
   107c0:	fd010113          	addi	sp,sp,-48
   107c4:	02112623          	sw	ra,44(sp)
   107c8:	02312423          	sw	gp,40(sp)
   107cc:	02812223          	sw	s0,36(sp)
   107d0:	00200433          	add	s0,zero,sp
   107d4:	00a42e23          	sw	a0,28(s0)
   107d8:	00042a23          	sw	zero,20(s0)
   107dc:	01c42283          	lw	t0,28(s0)
   107e0:	00828293          	addi	t0,t0,8
   107e4:	00a42823          	sw	a0,16(s0)
   107e8:	00028513          	mv	a0,t0
   107ec:	955ff0ef          	jal	10140 <list_getSize>
   107f0:	01042283          	lw	t0,16(s0)
   107f4:	00542623          	sw	t0,12(s0)
   107f8:	00050a63          	beqz	a0,1080c <towers_verify+0x4c>
   107fc:	0040006f          	j	10800 <towers_verify+0x40>
   10800:	00200293          	li	t0,2
   10804:	02542023          	sw	t0,32(s0)
   10808:	0cc0006f          	j	108d4 <towers_verify+0x114>
   1080c:	01c42283          	lw	t0,28(s0)
   10810:	01028513          	addi	a0,t0,16
   10814:	92dff0ef          	jal	10140 <list_getSize>
   10818:	00050a63          	beqz	a0,1082c <towers_verify+0x6c>
   1081c:	0040006f          	j	10820 <towers_verify+0x60>
   10820:	00300293          	li	t0,3
   10824:	02542023          	sw	t0,32(s0)
   10828:	0ac0006f          	j	108d4 <towers_verify+0x114>
   1082c:	01c42283          	lw	t0,28(s0)
   10830:	01828513          	addi	a0,t0,24
   10834:	90dff0ef          	jal	10140 <list_getSize>
   10838:	01c42283          	lw	t0,28(s0)
   1083c:	0002a283          	lw	t0,0(t0)
   10840:	00550a63          	beq	a0,t0,10854 <towers_verify+0x94>
   10844:	0040006f          	j	10848 <towers_verify+0x88>
   10848:	00400293          	li	t0,4
   1084c:	02542023          	sw	t0,32(s0)
   10850:	0840006f          	j	108d4 <towers_verify+0x114>
   10854:	01c42283          	lw	t0,28(s0)
   10858:	01c2a283          	lw	t0,28(t0)
   1085c:	00542c23          	sw	t0,24(s0)
   10860:	01842283          	lw	t0,24(s0)
   10864:	04028063          	beqz	t0,108a4 <towers_verify+0xe4>
   10868:	0040006f          	j	1086c <towers_verify+0xac>
   1086c:	01442283          	lw	t0,20(s0)
   10870:	00128293          	addi	t0,t0,1
   10874:	00542a23          	sw	t0,20(s0)
   10878:	01842303          	lw	t1,24(s0)
   1087c:	00032303          	lw	t1,0(t1)
   10880:	00530a63          	beq	t1,t0,10894 <towers_verify+0xd4>
   10884:	0040006f          	j	10888 <towers_verify+0xc8>
   10888:	00500293          	li	t0,5
   1088c:	02542023          	sw	t0,32(s0)
   10890:	0440006f          	j	108d4 <towers_verify+0x114>
   10894:	01842283          	lw	t0,24(s0)
   10898:	0042a283          	lw	t0,4(t0)
   1089c:	00542c23          	sw	t0,24(s0)
   108a0:	fc1ff06f          	j	10860 <towers_verify+0xa0>
   108a4:	01c42283          	lw	t0,28(s0)
   108a8:	0042a303          	lw	t1,4(t0)
   108ac:	0002a283          	lw	t0,0(t0)
   108b0:	00100393          	li	t2,1
   108b4:	005392b3          	sll	t0,t2,t0
   108b8:	fff28293          	addi	t0,t0,-1
   108bc:	00530a63          	beq	t1,t0,108d0 <towers_verify+0x110>
   108c0:	0040006f          	j	108c4 <towers_verify+0x104>
   108c4:	00600293          	li	t0,6
   108c8:	02542023          	sw	t0,32(s0)
   108cc:	0080006f          	j	108d4 <towers_verify+0x114>
   108d0:	02042023          	sw	zero,32(s0)
   108d4:	02042503          	lw	a0,32(s0)
   108d8:	00800133          	add	sp,zero,s0
   108dc:	02412403          	lw	s0,36(sp)
   108e0:	02812183          	lw	gp,40(sp)
   108e4:	02c12083          	lw	ra,44(sp)
   108e8:	03010113          	addi	sp,sp,48
   108ec:	00008067          	ret

000108f0 <main>:
   108f0:	fa010113          	addi	sp,sp,-96
   108f4:	04112e23          	sw	ra,92(sp)
   108f8:	04312c23          	sw	gp,88(sp)
   108fc:	04812a23          	sw	s0,84(sp)
   10900:	00200433          	add	s0,zero,sp
   10904:	04042823          	sw	zero,80(s0)
   10908:	04a42623          	sw	a0,76(s0)
   1090c:	04b42423          	sw	a1,72(s0)
   10910:	8f018293          	addi	t0,gp,-1808 # 1ce70 <g_nodeFreeList>
   10914:	02a42023          	sw	a0,32(s0)
   10918:	00028513          	mv	a0,t0
   1091c:	00b42e23          	sw	a1,28(s0)
   10920:	00542c23          	sw	t0,24(s0)
   10924:	84dff0ef          	jal	10170 <list_init>
   10928:	8f818293          	addi	t0,gp,-1800 # 1ce78 <g_nodePool>
   1092c:	01842503          	lw	a0,24(s0)
   10930:	00552223          	sw	t0,4(a0)
   10934:	00700593          	li	a1,7
   10938:	00b52023          	sw	a1,0(a0)
   1093c:	0202aa23          	sw	zero,52(t0)
   10940:	06300593          	li	a1,99
   10944:	02b2a823          	sw	a1,48(t0)
   10948:	02042223          	sw	zero,36(s0)
   1094c:	01c42283          	lw	t0,28(s0)
   10950:	02042583          	lw	a1,32(s0)
   10954:	00542a23          	sw	t0,20(s0)
   10958:	00b42823          	sw	a1,16(s0)
   1095c:	02442283          	lw	t0,36(s0)
   10960:	00500313          	li	t1,5
   10964:	04534063          	blt	t1,t0,109a4 <main+0xb4>
   10968:	0040006f          	j	1096c <main+0x7c>
   1096c:	02442283          	lw	t0,36(s0)
   10970:	00329293          	slli	t0,t0,0x3
   10974:	8f818313          	addi	t1,gp,-1800 # 1ce78 <g_nodePool>
   10978:	005302b3          	add	t0,t1,t0
   1097c:	00828393          	addi	t2,t0,8
   10980:	0072a223          	sw	t2,4(t0)
   10984:	02442283          	lw	t0,36(s0)
   10988:	00329393          	slli	t2,t0,0x3
   1098c:	00730333          	add	t1,t1,t2
   10990:	00532023          	sw	t0,0(t1)
   10994:	02442283          	lw	t0,36(s0)
   10998:	00128293          	addi	t0,t0,1
   1099c:	02542223          	sw	t0,36(s0)
   109a0:	fbdff06f          	j	1095c <main+0x6c>
   109a4:	02840293          	addi	t0,s0,40
   109a8:	00700593          	li	a1,7
   109ac:	00028513          	mv	a0,t0
   109b0:	00542623          	sw	t0,12(s0)
   109b4:	94dff0ef          	jal	10300 <towers_init>
   109b8:	00c42503          	lw	a0,12(s0)
   109bc:	a05ff0ef          	jal	103c0 <towers_clear>
   109c0:	00100513          	li	a0,1
   109c4:	03c000ef          	jal	10a00 <setStats>
   109c8:	00c42503          	lw	a0,12(s0)
   109cc:	da5ff0ef          	jal	10770 <towers_solve>
   109d0:	00000513          	li	a0,0
   109d4:	02c000ef          	jal	10a00 <setStats>
   109d8:	00c42503          	lw	a0,12(s0)
   109dc:	de5ff0ef          	jal	107c0 <towers_verify>
   109e0:	00800133          	add	sp,zero,s0
   109e4:	05412403          	lw	s0,84(sp)
   109e8:	05812183          	lw	gp,88(sp)
   109ec:	05c12083          	lw	ra,92(sp)
   109f0:	06010113          	addi	sp,sp,96
   109f4:	00008067          	ret
   109f8:	00000013          	nop
   109fc:	00000013          	nop

00010a00 <setStats>:
   10a00:	ff410113          	addi	sp,sp,-12
   10a04:	00812423          	sw	s0,8(sp)
   10a08:	00200433          	add	s0,zero,sp
   10a0c:	00a42223          	sw	a0,4(s0)
   10a10:	00a42023          	sw	a0,0(s0)
   10a14:	00800133          	add	sp,zero,s0
   10a18:	00812403          	lw	s0,8(sp)
   10a1c:	00c10113          	addi	sp,sp,12
   10a20:	00008067          	ret

00010a24 <atexit>:
   10a24:	00050593          	mv	a1,a0
   10a28:	00000613          	li	a2,0
   10a2c:	00000513          	li	a0,0
   10a30:	00000693          	li	a3,0
   10a34:	45d0106f          	j	12690 <__register_exitproc>

00010a38 <exit>:
   10a38:	ff010113          	addi	sp,sp,-16
   10a3c:	00000593          	li	a1,0
   10a40:	00812423          	sw	s0,8(sp)
   10a44:	00112623          	sw	ra,12(sp)
   10a48:	00050413          	mv	s0,a0
   10a4c:	545010ef          	jal	12790 <__call_exitprocs>
   10a50:	8041a503          	lw	a0,-2044(gp) # 1cd84 <_global_impure_ptr>
   10a54:	03c52783          	lw	a5,60(a0)
   10a58:	00078463          	beqz	a5,10a60 <exit+0x28>
   10a5c:	000780e7          	jalr	a5
   10a60:	00040513          	mv	a0,s0
   10a64:	324080ef          	jal	18d88 <_exit>

00010a68 <__libc_init_array>:
   10a68:	ff010113          	addi	sp,sp,-16
   10a6c:	00812423          	sw	s0,8(sp)
   10a70:	0001b7b7          	lui	a5,0x1b
   10a74:	0001b437          	lui	s0,0x1b
   10a78:	01212023          	sw	s2,0(sp)
   10a7c:	2c878793          	addi	a5,a5,712 # 1b2c8 <_etext>
   10a80:	2c840913          	addi	s2,s0,712 # 1b2c8 <_etext>
   10a84:	41278933          	sub	s2,a5,s2
   10a88:	40295913          	srai	s2,s2,0x2
   10a8c:	00912223          	sw	s1,4(sp)
   10a90:	00112623          	sw	ra,12(sp)
   10a94:	2c840413          	addi	s0,s0,712
   10a98:	00000493          	li	s1,0
   10a9c:	00090c63          	beqz	s2,10ab4 <__libc_init_array+0x4c>
   10aa0:	00042783          	lw	a5,0(s0)
   10aa4:	00148493          	addi	s1,s1,1
   10aa8:	00440413          	addi	s0,s0,4
   10aac:	000780e7          	jalr	a5
   10ab0:	fe9918e3          	bne	s2,s1,10aa0 <__libc_init_array+0x38>
   10ab4:	0001b437          	lui	s0,0x1b
   10ab8:	d90ff0ef          	jal	10048 <_fini>
   10abc:	0001b7b7          	lui	a5,0x1b
   10ac0:	2c840913          	addi	s2,s0,712 # 1b2c8 <_etext>
   10ac4:	2cc78793          	addi	a5,a5,716 # 1b2cc <__init_array_end>
   10ac8:	41278933          	sub	s2,a5,s2
   10acc:	40295913          	srai	s2,s2,0x2
   10ad0:	2c840413          	addi	s0,s0,712
   10ad4:	00000493          	li	s1,0
   10ad8:	00090c63          	beqz	s2,10af0 <__libc_init_array+0x88>
   10adc:	00042783          	lw	a5,0(s0)
   10ae0:	00148493          	addi	s1,s1,1
   10ae4:	00440413          	addi	s0,s0,4
   10ae8:	000780e7          	jalr	a5
   10aec:	fe9918e3          	bne	s2,s1,10adc <__libc_init_array+0x74>
   10af0:	00c12083          	lw	ra,12(sp)
   10af4:	00812403          	lw	s0,8(sp)
   10af8:	00412483          	lw	s1,4(sp)
   10afc:	00012903          	lw	s2,0(sp)
   10b00:	01010113          	addi	sp,sp,16
   10b04:	00008067          	ret

00010b08 <__libc_fini_array>:
   10b08:	ff010113          	addi	sp,sp,-16
   10b0c:	00812423          	sw	s0,8(sp)
   10b10:	0001b7b7          	lui	a5,0x1b
   10b14:	0001b437          	lui	s0,0x1b
   10b18:	2cc40413          	addi	s0,s0,716 # 1b2cc <__init_array_end>
   10b1c:	2d078793          	addi	a5,a5,720 # 1b2d0 <__fini_array_end>
   10b20:	408787b3          	sub	a5,a5,s0
   10b24:	00912223          	sw	s1,4(sp)
   10b28:	4027d493          	srai	s1,a5,0x2
   10b2c:	00112623          	sw	ra,12(sp)
   10b30:	00878433          	add	s0,a5,s0
   10b34:	00048c63          	beqz	s1,10b4c <__libc_fini_array+0x44>
   10b38:	ffc42783          	lw	a5,-4(s0)
   10b3c:	fff48493          	addi	s1,s1,-1
   10b40:	ffc40413          	addi	s0,s0,-4
   10b44:	000780e7          	jalr	a5
   10b48:	fe0498e3          	bnez	s1,10b38 <__libc_fini_array+0x30>
   10b4c:	00c12083          	lw	ra,12(sp)
   10b50:	00812403          	lw	s0,8(sp)
   10b54:	00412483          	lw	s1,4(sp)
   10b58:	01010113          	addi	sp,sp,16
   10b5c:	cecff06f          	j	10048 <_fini>

00010b60 <_printf_r>:
   10b60:	fc010113          	addi	sp,sp,-64
   10b64:	02c12423          	sw	a2,40(sp)
   10b68:	02d12623          	sw	a3,44(sp)
   10b6c:	02f12a23          	sw	a5,52(sp)
   10b70:	02e12823          	sw	a4,48(sp)
   10b74:	03012c23          	sw	a6,56(sp)
   10b78:	03112e23          	sw	a7,60(sp)
   10b7c:	00058613          	mv	a2,a1
   10b80:	00852583          	lw	a1,8(a0)
   10b84:	02810793          	addi	a5,sp,40
   10b88:	00078693          	mv	a3,a5
   10b8c:	00112e23          	sw	ra,28(sp)
   10b90:	00f12623          	sw	a5,12(sp)
   10b94:	060000ef          	jal	10bf4 <_vfprintf_r>
   10b98:	01c12083          	lw	ra,28(sp)
   10b9c:	04010113          	addi	sp,sp,64
   10ba0:	00008067          	ret

00010ba4 <printf>:
   10ba4:	8081a283          	lw	t0,-2040(gp) # 1cd88 <_impure_ptr>
   10ba8:	fc010113          	addi	sp,sp,-64
   10bac:	02c12423          	sw	a2,40(sp)
   10bb0:	02d12623          	sw	a3,44(sp)
   10bb4:	02f12a23          	sw	a5,52(sp)
   10bb8:	02b12223          	sw	a1,36(sp)
   10bbc:	02e12823          	sw	a4,48(sp)
   10bc0:	03012c23          	sw	a6,56(sp)
   10bc4:	03112e23          	sw	a7,60(sp)
   10bc8:	0082a583          	lw	a1,8(t0)
   10bcc:	02410793          	addi	a5,sp,36
   10bd0:	00050613          	mv	a2,a0
   10bd4:	00078693          	mv	a3,a5
   10bd8:	00028513          	mv	a0,t0
   10bdc:	00112e23          	sw	ra,28(sp)
   10be0:	00f12623          	sw	a5,12(sp)
   10be4:	010000ef          	jal	10bf4 <_vfprintf_r>
   10be8:	01c12083          	lw	ra,28(sp)
   10bec:	04010113          	addi	sp,sp,64
   10bf0:	00008067          	ret

00010bf4 <_vfprintf_r>:
   10bf4:	ab010113          	addi	sp,sp,-1360
   10bf8:	54112623          	sw	ra,1356(sp)
   10bfc:	55212023          	sw	s2,1344(sp)
   10c00:	53512a23          	sw	s5,1332(sp)
   10c04:	53612823          	sw	s6,1328(sp)
   10c08:	00058913          	mv	s2,a1
   10c0c:	00060b13          	mv	s6,a2
   10c10:	02d12623          	sw	a3,44(sp)
   10c14:	54812423          	sw	s0,1352(sp)
   10c18:	54912223          	sw	s1,1348(sp)
   10c1c:	53312e23          	sw	s3,1340(sp)
   10c20:	53412c23          	sw	s4,1336(sp)
   10c24:	53712623          	sw	s7,1324(sp)
   10c28:	53812423          	sw	s8,1320(sp)
   10c2c:	53912223          	sw	s9,1316(sp)
   10c30:	53a12023          	sw	s10,1312(sp)
   10c34:	51b12e23          	sw	s11,1308(sp)
   10c38:	50813427          	fsd	fs0,1288(sp)
   10c3c:	50913027          	fsd	fs1,1280(sp)
   10c40:	00050a93          	mv	s5,a0
   10c44:	3bd030ef          	jal	14800 <_localeconv_r>
   10c48:	00052503          	lw	a0,0(a0)
   10c4c:	04a12223          	sw	a0,68(sp)
   10c50:	211050ef          	jal	16660 <strlen>
   10c54:	04a12823          	sw	a0,80(sp)
   10c58:	000a8663          	beqz	s5,10c64 <_vfprintf_r+0x70>
   10c5c:	038aa783          	lw	a5,56(s5)
   10c60:	6e078663          	beqz	a5,1134c <_vfprintf_r+0x758>
   10c64:	00c91703          	lh	a4,12(s2)
   10c68:	01071793          	slli	a5,a4,0x10
   10c6c:	0107d793          	srli	a5,a5,0x10
   10c70:	01279293          	slli	t0,a5,0x12
   10c74:	0202c663          	bltz	t0,10ca0 <_vfprintf_r+0xac>
   10c78:	06492683          	lw	a3,100(s2)
   10c7c:	000027b7          	lui	a5,0x2
   10c80:	00f76733          	or	a4,a4,a5
   10c84:	ffffe7b7          	lui	a5,0xffffe
   10c88:	fff78793          	addi	a5,a5,-1 # ffffdfff <_gp+0xfffe0a7f>
   10c8c:	00f6f7b3          	and	a5,a3,a5
   10c90:	06f92223          	sw	a5,100(s2)
   10c94:	01071793          	slli	a5,a4,0x10
   10c98:	00e91623          	sh	a4,12(s2)
   10c9c:	0107d793          	srli	a5,a5,0x10
   10ca0:	0087f693          	andi	a3,a5,8
   10ca4:	54068c63          	beqz	a3,111fc <_vfprintf_r+0x608>
   10ca8:	01092683          	lw	a3,16(s2)
   10cac:	54068863          	beqz	a3,111fc <_vfprintf_r+0x608>
   10cb0:	01a7f793          	andi	a5,a5,26
   10cb4:	00a00693          	li	a3,10
   10cb8:	56d78663          	beq	a5,a3,11224 <_vfprintf_r+0x630>
   10cbc:	0bf10693          	addi	a3,sp,191
   10cc0:	00d12c23          	sw	a3,24(sp)
   10cc4:	01812583          	lw	a1,24(sp)
   10cc8:	0c010293          	addi	t0,sp,192
   10ccc:	10010b93          	addi	s7,sp,256
   10cd0:	00512e23          	sw	t0,28(sp)
   10cd4:	0001b7b7          	lui	a5,0x1b
   10cd8:	40b282b3          	sub	t0,t0,a1
   10cdc:	d2000453          	fcvt.d.w	fs0,zero
   10ce0:	02012c23          	sw	zero,56(sp)
   10ce4:	02012e23          	sw	zero,60(sp)
   10ce8:	09712623          	sw	s7,140(sp)
   10cec:	08012a23          	sw	zero,148(sp)
   10cf0:	08012823          	sw	zero,144(sp)
   10cf4:	04012423          	sw	zero,72(sp)
   10cf8:	04012c23          	sw	zero,88(sp)
   10cfc:	04012a23          	sw	zero,84(sp)
   10d00:	02012823          	sw	zero,48(sp)
   10d04:	000b8693          	mv	a3,s7
   10d08:	e0c78c13          	addi	s8,a5,-500 # 1ae0c <blanks.3944>
   10d0c:	04512e23          	sw	t0,92(sp)
   10d10:	000b4783          	lbu	a5,0(s6)
   10d14:	4a078463          	beqz	a5,111bc <_vfprintf_r+0x5c8>
   10d18:	02500713          	li	a4,37
   10d1c:	000b0413          	mv	s0,s6
   10d20:	00e79663          	bne	a5,a4,10d2c <_vfprintf_r+0x138>
   10d24:	0540006f          	j	10d78 <_vfprintf_r+0x184>
   10d28:	00e78863          	beq	a5,a4,10d38 <_vfprintf_r+0x144>
   10d2c:	00140413          	addi	s0,s0,1
   10d30:	00044783          	lbu	a5,0(s0)
   10d34:	fe079ae3          	bnez	a5,10d28 <_vfprintf_r+0x134>
   10d38:	416404b3          	sub	s1,s0,s6
   10d3c:	02048e63          	beqz	s1,10d78 <_vfprintf_r+0x184>
   10d40:	09412703          	lw	a4,148(sp)
   10d44:	09012783          	lw	a5,144(sp)
   10d48:	0166a023          	sw	s6,0(a3)
   10d4c:	00970733          	add	a4,a4,s1
   10d50:	00178793          	addi	a5,a5,1
   10d54:	08e12a23          	sw	a4,148(sp)
   10d58:	00700713          	li	a4,7
   10d5c:	0096a223          	sw	s1,4(a3)
   10d60:	08f12823          	sw	a5,144(sp)
   10d64:	00868693          	addi	a3,a3,8
   10d68:	58f74e63          	blt	a4,a5,11304 <_vfprintf_r+0x710>
   10d6c:	03012283          	lw	t0,48(sp)
   10d70:	009282b3          	add	t0,t0,s1
   10d74:	02512823          	sw	t0,48(sp)
   10d78:	00044783          	lbu	a5,0(s0)
   10d7c:	5a078263          	beqz	a5,11320 <_vfprintf_r+0x72c>
   10d80:	00140413          	addi	s0,s0,1
   10d84:	060107a3          	sb	zero,111(sp)
   10d88:	00000513          	li	a0,0
   10d8c:	fff00d93          	li	s11,-1
   10d90:	02012023          	sw	zero,32(sp)
   10d94:	00000a13          	li	s4,0
   10d98:	05800613          	li	a2,88
   10d9c:	00900593          	li	a1,9
   10da0:	02a00813          	li	a6,42
   10da4:	00044c83          	lbu	s9,0(s0)
   10da8:	00140b13          	addi	s6,s0,1
   10dac:	fe0c8793          	addi	a5,s9,-32
   10db0:	10f660e3          	bltu	a2,a5,116b0 <_vfprintf_r+0xabc>
   10db4:	0001b737          	lui	a4,0x1b
   10db8:	00279793          	slli	a5,a5,0x2
   10dbc:	ca870713          	addi	a4,a4,-856 # 1aca8 <__errno+0x8>
   10dc0:	00e787b3          	add	a5,a5,a4
   10dc4:	0007a783          	lw	a5,0(a5)
   10dc8:	00078067          	jr	a5
   10dcc:	010a6a13          	ori	s4,s4,16
   10dd0:	000b0413          	mv	s0,s6
   10dd4:	fd1ff06f          	j	10da4 <_vfprintf_r+0x1b0>
   10dd8:	010a6a13          	ori	s4,s4,16
   10ddc:	01ba1593          	slli	a1,s4,0x1b
   10de0:	02c12783          	lw	a5,44(sp)
   10de4:	5805c663          	bltz	a1,11370 <_vfprintf_r+0x77c>
   10de8:	02c12283          	lw	t0,44(sp)
   10dec:	019a1593          	slli	a1,s4,0x19
   10df0:	00428293          	addi	t0,t0,4
   10df4:	02512623          	sw	t0,44(sp)
   10df8:	0005c463          	bltz	a1,10e00 <_vfprintf_r+0x20c>
   10dfc:	06c0106f          	j	11e68 <_vfprintf_r+0x1274>
   10e00:	0007d703          	lhu	a4,0(a5)
   10e04:	00000793          	li	a5,0
   10e08:	0340006f          	j	10e3c <_vfprintf_r+0x248>
   10e0c:	010a6a13          	ori	s4,s4,16
   10e10:	01ba1893          	slli	a7,s4,0x1b
   10e14:	02c12783          	lw	a5,44(sp)
   10e18:	5408c063          	bltz	a7,11358 <_vfprintf_r+0x764>
   10e1c:	02c12283          	lw	t0,44(sp)
   10e20:	019a1593          	slli	a1,s4,0x19
   10e24:	00428293          	addi	t0,t0,4
   10e28:	02512623          	sw	t0,44(sp)
   10e2c:	0005c463          	bltz	a1,10e34 <_vfprintf_r+0x240>
   10e30:	02c0106f          	j	11e5c <_vfprintf_r+0x1268>
   10e34:	0007d703          	lhu	a4,0(a5)
   10e38:	00100793          	li	a5,1
   10e3c:	060107a3          	sb	zero,111(sp)
   10e40:	05b12023          	sw	s11,64(sp)
   10e44:	00000513          	li	a0,0
   10e48:	000dc463          	bltz	s11,10e50 <_vfprintf_r+0x25c>
   10e4c:	f7fa7a13          	andi	s4,s4,-129
   10e50:	1e0714e3          	bnez	a4,11838 <_vfprintf_r+0xc44>
   10e54:	440d86e3          	beqz	s11,11aa0 <_vfprintf_r+0xeac>
   10e58:	00100613          	li	a2,1
   10e5c:	64c786e3          	beq	a5,a2,11ca8 <_vfprintf_r+0x10b4>
   10e60:	00200613          	li	a2,2
   10e64:	48c798e3          	bne	a5,a2,11af4 <_vfprintf_r+0xf00>
   10e68:	05812603          	lw	a2,88(sp)
   10e6c:	0c010413          	addi	s0,sp,192
   10e70:	00f77793          	andi	a5,a4,15
   10e74:	00f607b3          	add	a5,a2,a5
   10e78:	0007c783          	lbu	a5,0(a5)
   10e7c:	fff40413          	addi	s0,s0,-1
   10e80:	00475713          	srli	a4,a4,0x4
   10e84:	00f40023          	sb	a5,0(s0)
   10e88:	fe0714e3          	bnez	a4,10e70 <_vfprintf_r+0x27c>
   10e8c:	01c12703          	lw	a4,28(sp)
   10e90:	40870733          	sub	a4,a4,s0
   10e94:	02e12423          	sw	a4,40(sp)
   10e98:	02812983          	lw	s3,40(sp)
   10e9c:	01b9d463          	ble	s11,s3,10ea4 <_vfprintf_r+0x2b0>
   10ea0:	000d8993          	mv	s3,s11
   10ea4:	03312223          	sw	s3,36(sp)
   10ea8:	00050863          	beqz	a0,10eb8 <_vfprintf_r+0x2c4>
   10eac:	02412783          	lw	a5,36(sp)
   10eb0:	00178793          	addi	a5,a5,1
   10eb4:	02f12223          	sw	a5,36(sp)
   10eb8:	002a7d93          	andi	s11,s4,2
   10ebc:	000d8863          	beqz	s11,10ecc <_vfprintf_r+0x2d8>
   10ec0:	02412883          	lw	a7,36(sp)
   10ec4:	00288893          	addi	a7,a7,2
   10ec8:	03112223          	sw	a7,36(sp)
   10ecc:	084a7293          	andi	t0,s4,132
   10ed0:	02512a23          	sw	t0,52(sp)
   10ed4:	00029ee3          	bnez	t0,116f0 <_vfprintf_r+0xafc>
   10ed8:	02012283          	lw	t0,32(sp)
   10edc:	02412703          	lw	a4,36(sp)
   10ee0:	40e284b3          	sub	s1,t0,a4
   10ee4:	009056e3          	blez	s1,116f0 <_vfprintf_r+0xafc>
   10ee8:	01000893          	li	a7,16
   10eec:	09412703          	lw	a4,148(sp)
   10ef0:	09012783          	lw	a5,144(sp)
   10ef4:	05812623          	sw	s8,76(sp)
   10ef8:	00088d13          	mv	s10,a7
   10efc:	00700993          	li	s3,7
   10f00:	0098c863          	blt	a7,s1,10f10 <_vfprintf_r+0x31c>
   10f04:	0540006f          	j	10f58 <_vfprintf_r+0x364>
   10f08:	ff048493          	addi	s1,s1,-16
   10f0c:	049d5663          	ble	s1,s10,10f58 <_vfprintf_r+0x364>
   10f10:	01070713          	addi	a4,a4,16
   10f14:	00178793          	addi	a5,a5,1
   10f18:	0186a023          	sw	s8,0(a3)
   10f1c:	01a6a223          	sw	s10,4(a3)
   10f20:	08e12a23          	sw	a4,148(sp)
   10f24:	08f12823          	sw	a5,144(sp)
   10f28:	00868693          	addi	a3,a3,8
   10f2c:	fcf9dee3          	ble	a5,s3,10f08 <_vfprintf_r+0x314>
   10f30:	000a8513          	mv	a0,s5
   10f34:	00090593          	mv	a1,s2
   10f38:	08c10613          	addi	a2,sp,140
   10f3c:	09d050ef          	jal	167d8 <__sprint_r>
   10f40:	3e051c63          	bnez	a0,11338 <_vfprintf_r+0x744>
   10f44:	ff048493          	addi	s1,s1,-16
   10f48:	09412703          	lw	a4,148(sp)
   10f4c:	09012783          	lw	a5,144(sp)
   10f50:	000b8693          	mv	a3,s7
   10f54:	fa9d4ee3          	blt	s10,s1,10f10 <_vfprintf_r+0x31c>
   10f58:	04c12883          	lw	a7,76(sp)
   10f5c:	00e48733          	add	a4,s1,a4
   10f60:	00178793          	addi	a5,a5,1
   10f64:	00700613          	li	a2,7
   10f68:	0116a023          	sw	a7,0(a3)
   10f6c:	0096a223          	sw	s1,4(a3)
   10f70:	08e12a23          	sw	a4,148(sp)
   10f74:	08f12823          	sw	a5,144(sp)
   10f78:	00868693          	addi	a3,a3,8
   10f7c:	76f65e63          	ble	a5,a2,116f8 <_vfprintf_r+0xb04>
   10f80:	000a8513          	mv	a0,s5
   10f84:	00090593          	mv	a1,s2
   10f88:	08c10613          	addi	a2,sp,140
   10f8c:	04d050ef          	jal	167d8 <__sprint_r>
   10f90:	3a051463          	bnez	a0,11338 <_vfprintf_r+0x744>
   10f94:	06f14603          	lbu	a2,111(sp)
   10f98:	09412703          	lw	a4,148(sp)
   10f9c:	09012783          	lw	a5,144(sp)
   10fa0:	000b8693          	mv	a3,s7
   10fa4:	74061e63          	bnez	a2,11700 <_vfprintf_r+0xb0c>
   10fa8:	020d8863          	beqz	s11,10fd8 <_vfprintf_r+0x3e4>
   10fac:	07010613          	addi	a2,sp,112
   10fb0:	00c6a023          	sw	a2,0(a3)
   10fb4:	00200613          	li	a2,2
   10fb8:	00c6a223          	sw	a2,4(a3)
   10fbc:	00270713          	addi	a4,a4,2
   10fc0:	00178793          	addi	a5,a5,1
   10fc4:	00700613          	li	a2,7
   10fc8:	08e12a23          	sw	a4,148(sp)
   10fcc:	08f12823          	sw	a5,144(sp)
   10fd0:	00868693          	addi	a3,a3,8
   10fd4:	2ef648e3          	blt	a2,a5,11ac4 <_vfprintf_r+0xed0>
   10fd8:	03412283          	lw	t0,52(sp)
   10fdc:	08000613          	li	a2,128
   10fe0:	1ac282e3          	beq	t0,a2,11984 <_vfprintf_r+0xd90>
   10fe4:	04012283          	lw	t0,64(sp)
   10fe8:	02812883          	lw	a7,40(sp)
   10fec:	41128d33          	sub	s10,t0,a7
   10ff0:	0ba05863          	blez	s10,110a0 <_vfprintf_r+0x4ac>
   10ff4:	0001b8b7          	lui	a7,0x1b
   10ff8:	01000d93          	li	s11,16
   10ffc:	e1c88993          	addi	s3,a7,-484 # 1ae1c <zeroes.3945>
   11000:	00700493          	li	s1,7
   11004:	01adc863          	blt	s11,s10,11014 <_vfprintf_r+0x420>
   11008:	0540006f          	j	1105c <_vfprintf_r+0x468>
   1100c:	ff0d0d13          	addi	s10,s10,-16
   11010:	05add663          	ble	s10,s11,1105c <_vfprintf_r+0x468>
   11014:	01070713          	addi	a4,a4,16
   11018:	00178793          	addi	a5,a5,1
   1101c:	0136a023          	sw	s3,0(a3)
   11020:	01b6a223          	sw	s11,4(a3)
   11024:	08e12a23          	sw	a4,148(sp)
   11028:	08f12823          	sw	a5,144(sp)
   1102c:	00868693          	addi	a3,a3,8
   11030:	fcf4dee3          	ble	a5,s1,1100c <_vfprintf_r+0x418>
   11034:	000a8513          	mv	a0,s5
   11038:	00090593          	mv	a1,s2
   1103c:	08c10613          	addi	a2,sp,140
   11040:	798050ef          	jal	167d8 <__sprint_r>
   11044:	2e051a63          	bnez	a0,11338 <_vfprintf_r+0x744>
   11048:	ff0d0d13          	addi	s10,s10,-16
   1104c:	09412703          	lw	a4,148(sp)
   11050:	09012783          	lw	a5,144(sp)
   11054:	000b8693          	mv	a3,s7
   11058:	fbadcee3          	blt	s11,s10,11014 <_vfprintf_r+0x420>
   1105c:	01a70733          	add	a4,a4,s10
   11060:	00178793          	addi	a5,a5,1
   11064:	00700613          	li	a2,7
   11068:	0136a023          	sw	s3,0(a3)
   1106c:	01a6a223          	sw	s10,4(a3)
   11070:	08e12a23          	sw	a4,148(sp)
   11074:	08f12823          	sw	a5,144(sp)
   11078:	00868693          	addi	a3,a3,8
   1107c:	02f65263          	ble	a5,a2,110a0 <_vfprintf_r+0x4ac>
   11080:	000a8513          	mv	a0,s5
   11084:	00090593          	mv	a1,s2
   11088:	08c10613          	addi	a2,sp,140
   1108c:	74c050ef          	jal	167d8 <__sprint_r>
   11090:	2a051463          	bnez	a0,11338 <_vfprintf_r+0x744>
   11094:	09412703          	lw	a4,148(sp)
   11098:	09012783          	lw	a5,144(sp)
   1109c:	000b8693          	mv	a3,s7
   110a0:	017a1293          	slli	t0,s4,0x17
   110a4:	7e02c063          	bltz	t0,11884 <_vfprintf_r+0xc90>
   110a8:	02812883          	lw	a7,40(sp)
   110ac:	00e88733          	add	a4,a7,a4
   110b0:	00178793          	addi	a5,a5,1
   110b4:	00700613          	li	a2,7
   110b8:	0086a023          	sw	s0,0(a3)
   110bc:	0116a223          	sw	a7,4(a3)
   110c0:	08e12a23          	sw	a4,148(sp)
   110c4:	08f12823          	sw	a5,144(sp)
   110c8:	74f64863          	blt	a2,a5,11818 <_vfprintf_r+0xc24>
   110cc:	00868693          	addi	a3,a3,8
   110d0:	01da1593          	slli	a1,s4,0x1d
   110d4:	0a05dc63          	bgez	a1,1118c <_vfprintf_r+0x598>
   110d8:	02012283          	lw	t0,32(sp)
   110dc:	02412783          	lw	a5,36(sp)
   110e0:	40f28433          	sub	s0,t0,a5
   110e4:	0a805463          	blez	s0,1118c <_vfprintf_r+0x598>
   110e8:	01000a13          	li	s4,16
   110ec:	09012783          	lw	a5,144(sp)
   110f0:	05812623          	sw	s8,76(sp)
   110f4:	00700c93          	li	s9,7
   110f8:	008a4863          	blt	s4,s0,11108 <_vfprintf_r+0x514>
   110fc:	0540006f          	j	11150 <_vfprintf_r+0x55c>
   11100:	ff040413          	addi	s0,s0,-16
   11104:	048a5663          	ble	s0,s4,11150 <_vfprintf_r+0x55c>
   11108:	01070713          	addi	a4,a4,16
   1110c:	00178793          	addi	a5,a5,1
   11110:	0186a023          	sw	s8,0(a3)
   11114:	0146a223          	sw	s4,4(a3)
   11118:	08e12a23          	sw	a4,148(sp)
   1111c:	08f12823          	sw	a5,144(sp)
   11120:	00868693          	addi	a3,a3,8
   11124:	fcfcdee3          	ble	a5,s9,11100 <_vfprintf_r+0x50c>
   11128:	000a8513          	mv	a0,s5
   1112c:	00090593          	mv	a1,s2
   11130:	08c10613          	addi	a2,sp,140
   11134:	6a4050ef          	jal	167d8 <__sprint_r>
   11138:	20051063          	bnez	a0,11338 <_vfprintf_r+0x744>
   1113c:	ff040413          	addi	s0,s0,-16
   11140:	09412703          	lw	a4,148(sp)
   11144:	09012783          	lw	a5,144(sp)
   11148:	000b8693          	mv	a3,s7
   1114c:	fa8a4ee3          	blt	s4,s0,11108 <_vfprintf_r+0x514>
   11150:	04c12883          	lw	a7,76(sp)
   11154:	00870733          	add	a4,a4,s0
   11158:	00178793          	addi	a5,a5,1
   1115c:	0116a023          	sw	a7,0(a3)
   11160:	0086a223          	sw	s0,4(a3)
   11164:	00700693          	li	a3,7
   11168:	08e12a23          	sw	a4,148(sp)
   1116c:	08f12823          	sw	a5,144(sp)
   11170:	00f6de63          	ble	a5,a3,1118c <_vfprintf_r+0x598>
   11174:	000a8513          	mv	a0,s5
   11178:	00090593          	mv	a1,s2
   1117c:	08c10613          	addi	a2,sp,140
   11180:	658050ef          	jal	167d8 <__sprint_r>
   11184:	1a051a63          	bnez	a0,11338 <_vfprintf_r+0x744>
   11188:	09412703          	lw	a4,148(sp)
   1118c:	02412983          	lw	s3,36(sp)
   11190:	02012283          	lw	t0,32(sp)
   11194:	0059d463          	ble	t0,s3,1119c <_vfprintf_r+0x5a8>
   11198:	00028993          	mv	s3,t0
   1119c:	03012683          	lw	a3,48(sp)
   111a0:	013686b3          	add	a3,a3,s3
   111a4:	02d12823          	sw	a3,48(sp)
   111a8:	08071ee3          	bnez	a4,11a44 <_vfprintf_r+0xe50>
   111ac:	000b4783          	lbu	a5,0(s6)
   111b0:	08012823          	sw	zero,144(sp)
   111b4:	000b8693          	mv	a3,s7
   111b8:	b60790e3          	bnez	a5,10d18 <_vfprintf_r+0x124>
   111bc:	000b0413          	mv	s0,s6
   111c0:	bb9ff06f          	j	10d78 <_vfprintf_r+0x184>
   111c4:	02c12283          	lw	t0,44(sp)
   111c8:	000b0413          	mv	s0,s6
   111cc:	0002a283          	lw	t0,0(t0)
   111d0:	02512023          	sw	t0,32(sp)
   111d4:	02c12283          	lw	t0,44(sp)
   111d8:	00428293          	addi	t0,t0,4
   111dc:	02512623          	sw	t0,44(sp)
   111e0:	02012283          	lw	t0,32(sp)
   111e4:	bc02d0e3          	bgez	t0,10da4 <_vfprintf_r+0x1b0>
   111e8:	405002b3          	neg	t0,t0
   111ec:	02512023          	sw	t0,32(sp)
   111f0:	004a6a13          	ori	s4,s4,4
   111f4:	000b0413          	mv	s0,s6
   111f8:	badff06f          	j	10da4 <_vfprintf_r+0x1b0>
   111fc:	000a8513          	mv	a0,s5
   11200:	00090593          	mv	a1,s2
   11204:	350010ef          	jal	12554 <__swsetup_r>
   11208:	0a051a63          	bnez	a0,112bc <_vfprintf_r+0x6c8>
   1120c:	00c91703          	lh	a4,12(s2)
   11210:	00a00693          	li	a3,10
   11214:	01071793          	slli	a5,a4,0x10
   11218:	0107d793          	srli	a5,a5,0x10
   1121c:	01a7f793          	andi	a5,a5,26
   11220:	a8d79ee3          	bne	a5,a3,10cbc <_vfprintf_r+0xc8>
   11224:	00e91783          	lh	a5,14(s2)
   11228:	a807cae3          	bltz	a5,10cbc <_vfprintf_r+0xc8>
   1122c:	06492303          	lw	t1,100(s2)
   11230:	01c92283          	lw	t0,28(s2)
   11234:	02492883          	lw	a7,36(s2)
   11238:	02c12683          	lw	a3,44(sp)
   1123c:	ffd77713          	andi	a4,a4,-3
   11240:	40000813          	li	a6,1024
   11244:	0ae11223          	sh	a4,164(sp)
   11248:	000a8513          	mv	a0,s5
   1124c:	10010713          	addi	a4,sp,256
   11250:	09810593          	addi	a1,sp,152
   11254:	000b0613          	mv	a2,s6
   11258:	0e612e23          	sw	t1,252(sp)
   1125c:	0af11323          	sh	a5,166(sp)
   11260:	0a512a23          	sw	t0,180(sp)
   11264:	0b112e23          	sw	a7,188(sp)
   11268:	08e12c23          	sw	a4,152(sp)
   1126c:	0ae12423          	sw	a4,168(sp)
   11270:	0b012023          	sw	a6,160(sp)
   11274:	0b012623          	sw	a6,172(sp)
   11278:	0a012823          	sw	zero,176(sp)
   1127c:	979ff0ef          	jal	10bf4 <_vfprintf_r>
   11280:	00050413          	mv	s0,a0
   11284:	00054c63          	bltz	a0,1129c <_vfprintf_r+0x6a8>
   11288:	000a8513          	mv	a0,s5
   1128c:	09810593          	addi	a1,sp,152
   11290:	18d020ef          	jal	13c1c <_fflush_r>
   11294:	00050463          	beqz	a0,1129c <_vfprintf_r+0x6a8>
   11298:	2500106f          	j	124e8 <_vfprintf_r+0x18f4>
   1129c:	0a415783          	lhu	a5,164(sp)
   112a0:	0407f793          	andi	a5,a5,64
   112a4:	00078863          	beqz	a5,112b4 <_vfprintf_r+0x6c0>
   112a8:	00c95783          	lhu	a5,12(s2)
   112ac:	0407e793          	ori	a5,a5,64
   112b0:	00f91623          	sh	a5,12(s2)
   112b4:	00040513          	mv	a0,s0
   112b8:	0080006f          	j	112c0 <_vfprintf_r+0x6cc>
   112bc:	fff00513          	li	a0,-1
   112c0:	54c12083          	lw	ra,1356(sp)
   112c4:	54812403          	lw	s0,1352(sp)
   112c8:	54412483          	lw	s1,1348(sp)
   112cc:	54012903          	lw	s2,1344(sp)
   112d0:	53c12983          	lw	s3,1340(sp)
   112d4:	53812a03          	lw	s4,1336(sp)
   112d8:	53412a83          	lw	s5,1332(sp)
   112dc:	53012b03          	lw	s6,1328(sp)
   112e0:	52c12b83          	lw	s7,1324(sp)
   112e4:	52812c03          	lw	s8,1320(sp)
   112e8:	52412c83          	lw	s9,1316(sp)
   112ec:	52012d03          	lw	s10,1312(sp)
   112f0:	51c12d83          	lw	s11,1308(sp)
   112f4:	50813407          	fld	fs0,1288(sp)
   112f8:	50013487          	fld	fs1,1280(sp)
   112fc:	55010113          	addi	sp,sp,1360
   11300:	00008067          	ret
   11304:	000a8513          	mv	a0,s5
   11308:	00090593          	mv	a1,s2
   1130c:	08c10613          	addi	a2,sp,140
   11310:	4c8050ef          	jal	167d8 <__sprint_r>
   11314:	02051263          	bnez	a0,11338 <_vfprintf_r+0x744>
   11318:	000b8693          	mv	a3,s7
   1131c:	a51ff06f          	j	10d6c <_vfprintf_r+0x178>
   11320:	09412783          	lw	a5,148(sp)
   11324:	00078a63          	beqz	a5,11338 <_vfprintf_r+0x744>
   11328:	000a8513          	mv	a0,s5
   1132c:	00090593          	mv	a1,s2
   11330:	08c10613          	addi	a2,sp,140
   11334:	4a4050ef          	jal	167d8 <__sprint_r>
   11338:	00c95783          	lhu	a5,12(s2)
   1133c:	0407f793          	andi	a5,a5,64
   11340:	f6079ee3          	bnez	a5,112bc <_vfprintf_r+0x6c8>
   11344:	03012503          	lw	a0,48(sp)
   11348:	f79ff06f          	j	112c0 <_vfprintf_r+0x6cc>
   1134c:	000a8513          	mv	a0,s5
   11350:	6c1020ef          	jal	14210 <__sinit>
   11354:	911ff06f          	j	10c64 <_vfprintf_r+0x70>
   11358:	02c12283          	lw	t0,44(sp)
   1135c:	00428293          	addi	t0,t0,4
   11360:	02512623          	sw	t0,44(sp)
   11364:	0007a703          	lw	a4,0(a5)
   11368:	00100793          	li	a5,1
   1136c:	ad1ff06f          	j	10e3c <_vfprintf_r+0x248>
   11370:	02c12283          	lw	t0,44(sp)
   11374:	00428293          	addi	t0,t0,4
   11378:	02512623          	sw	t0,44(sp)
   1137c:	0007a703          	lw	a4,0(a5)
   11380:	00000793          	li	a5,0
   11384:	ab9ff06f          	j	10e3c <_vfprintf_r+0x248>
   11388:	000b0413          	mv	s0,s6
   1138c:	02b00513          	li	a0,43
   11390:	a15ff06f          	j	10da4 <_vfprintf_r+0x1b0>
   11394:	080a6a13          	ori	s4,s4,128
   11398:	000b0413          	mv	s0,s6
   1139c:	a09ff06f          	j	10da4 <_vfprintf_r+0x1b0>
   113a0:	02c12283          	lw	t0,44(sp)
   113a4:	00100713          	li	a4,1
   113a8:	02e12223          	sw	a4,36(sp)
   113ac:	0002a783          	lw	a5,0(t0)
   113b0:	00428293          	addi	t0,t0,4
   113b4:	060107a3          	sb	zero,111(sp)
   113b8:	08f10c23          	sb	a5,152(sp)
   113bc:	02512623          	sw	t0,44(sp)
   113c0:	02e12423          	sw	a4,40(sp)
   113c4:	09810413          	addi	s0,sp,152
   113c8:	04012023          	sw	zero,64(sp)
   113cc:	aedff06f          	j	10eb8 <_vfprintf_r+0x2c4>
   113d0:	000b4c83          	lbu	s9,0(s6)
   113d4:	001b0413          	addi	s0,s6,1
   113d8:	010c9463          	bne	s9,a6,113e0 <_vfprintf_r+0x7ec>
   113dc:	1140106f          	j	124f0 <_vfprintf_r+0x18fc>
   113e0:	fd0c8793          	addi	a5,s9,-48
   113e4:	00040b13          	mv	s6,s0
   113e8:	00000d93          	li	s11,0
   113ec:	9cf5e0e3          	bltu	a1,a5,10dac <_vfprintf_r+0x1b8>
   113f0:	001b0b13          	addi	s6,s6,1
   113f4:	fffb4c83          	lbu	s9,-1(s6)
   113f8:	001d9713          	slli	a4,s11,0x1
   113fc:	003d9d93          	slli	s11,s11,0x3
   11400:	01b70db3          	add	s11,a4,s11
   11404:	01b78db3          	add	s11,a5,s11
   11408:	fd0c8793          	addi	a5,s9,-48
   1140c:	fef5f2e3          	bleu	a5,a1,113f0 <_vfprintf_r+0x7fc>
   11410:	980ddee3          	bgez	s11,10dac <_vfprintf_r+0x1b8>
   11414:	fff00d93          	li	s11,-1
   11418:	995ff06f          	j	10dac <_vfprintf_r+0x1b8>
   1141c:	008a6a13          	ori	s4,s4,8
   11420:	000b0413          	mv	s0,s6
   11424:	981ff06f          	j	10da4 <_vfprintf_r+0x1b0>
   11428:	0001b737          	lui	a4,0x1b
   1142c:	27870713          	addi	a4,a4,632 # 1b278 <__clz_tab+0x138>
   11430:	01ba1593          	slli	a1,s4,0x1b
   11434:	06a107a3          	sb	a0,111(sp)
   11438:	02c12783          	lw	a5,44(sp)
   1143c:	04e12c23          	sw	a4,88(sp)
   11440:	0e05dc63          	bgez	a1,11538 <_vfprintf_r+0x944>
   11444:	02c12283          	lw	t0,44(sp)
   11448:	0007a703          	lw	a4,0(a5)
   1144c:	00428293          	addi	t0,t0,4
   11450:	02512623          	sw	t0,44(sp)
   11454:	01fa1593          	slli	a1,s4,0x1f
   11458:	00200793          	li	a5,2
   1145c:	9e05d0e3          	bgez	a1,10e3c <_vfprintf_r+0x248>
   11460:	9c070ee3          	beqz	a4,10e3c <_vfprintf_r+0x248>
   11464:	03000613          	li	a2,48
   11468:	06c10823          	sb	a2,112(sp)
   1146c:	079108a3          	sb	s9,113(sp)
   11470:	00fa6a33          	or	s4,s4,a5
   11474:	9c9ff06f          	j	10e3c <_vfprintf_r+0x248>
   11478:	01ba1893          	slli	a7,s4,0x1b
   1147c:	06a107a3          	sb	a0,111(sp)
   11480:	02c12783          	lw	a5,44(sp)
   11484:	0e08d263          	bgez	a7,11568 <_vfprintf_r+0x974>
   11488:	02c12283          	lw	t0,44(sp)
   1148c:	0007a703          	lw	a4,0(a5)
   11490:	00428293          	addi	t0,t0,4
   11494:	02512623          	sw	t0,44(sp)
   11498:	00074ce3          	bltz	a4,11cb0 <_vfprintf_r+0x10bc>
   1149c:	06f14503          	lbu	a0,111(sp)
   114a0:	05b12023          	sw	s11,64(sp)
   114a4:	00100793          	li	a5,1
   114a8:	9a1ff06f          	j	10e48 <_vfprintf_r+0x254>
   114ac:	040a6a13          	ori	s4,s4,64
   114b0:	000b0413          	mv	s0,s6
   114b4:	8f1ff06f          	j	10da4 <_vfprintf_r+0x1b0>
   114b8:	01ba1593          	slli	a1,s4,0x1b
   114bc:	06a107a3          	sb	a0,111(sp)
   114c0:	2005ca63          	bltz	a1,116d4 <_vfprintf_r+0xae0>
   114c4:	019a1593          	slli	a1,s4,0x19
   114c8:	2005d663          	bgez	a1,116d4 <_vfprintf_r+0xae0>
   114cc:	02c12283          	lw	t0,44(sp)
   114d0:	0002a783          	lw	a5,0(t0)
   114d4:	00428293          	addi	t0,t0,4
   114d8:	02512623          	sw	t0,44(sp)
   114dc:	03012283          	lw	t0,48(sp)
   114e0:	00579023          	sh	t0,0(a5)
   114e4:	82dff06f          	j	10d10 <_vfprintf_r+0x11c>
   114e8:	02012023          	sw	zero,32(sp)
   114ec:	fd0c8793          	addi	a5,s9,-48
   114f0:	02012283          	lw	t0,32(sp)
   114f4:	001b0b13          	addi	s6,s6,1
   114f8:	fffb4c83          	lbu	s9,-1(s6)
   114fc:	00129713          	slli	a4,t0,0x1
   11500:	00329893          	slli	a7,t0,0x3
   11504:	01170733          	add	a4,a4,a7
   11508:	00f707b3          	add	a5,a4,a5
   1150c:	02f12023          	sw	a5,32(sp)
   11510:	fd0c8793          	addi	a5,s9,-48
   11514:	fcf5fee3          	bleu	a5,a1,114f0 <_vfprintf_r+0x8fc>
   11518:	895ff06f          	j	10dac <_vfprintf_r+0x1b8>
   1151c:	0001b737          	lui	a4,0x1b
   11520:	28c70713          	addi	a4,a4,652 # 1b28c <__clz_tab+0x14c>
   11524:	01ba1593          	slli	a1,s4,0x1b
   11528:	06a107a3          	sb	a0,111(sp)
   1152c:	02c12783          	lw	a5,44(sp)
   11530:	04e12c23          	sw	a4,88(sp)
   11534:	f005c8e3          	bltz	a1,11444 <_vfprintf_r+0x850>
   11538:	019a1593          	slli	a1,s4,0x19
   1153c:	0c05dae3          	bgez	a1,11e10 <_vfprintf_r+0x121c>
   11540:	02c12283          	lw	t0,44(sp)
   11544:	0007d703          	lhu	a4,0(a5)
   11548:	00428293          	addi	t0,t0,4
   1154c:	02512623          	sw	t0,44(sp)
   11550:	f05ff06f          	j	11454 <_vfprintf_r+0x860>
   11554:	010a6a13          	ori	s4,s4,16
   11558:	01ba1893          	slli	a7,s4,0x1b
   1155c:	06a107a3          	sb	a0,111(sp)
   11560:	02c12783          	lw	a5,44(sp)
   11564:	f208c2e3          	bltz	a7,11488 <_vfprintf_r+0x894>
   11568:	019a1593          	slli	a1,s4,0x19
   1156c:	0a05dce3          	bgez	a1,11e24 <_vfprintf_r+0x1230>
   11570:	02c12283          	lw	t0,44(sp)
   11574:	00079703          	lh	a4,0(a5)
   11578:	00428293          	addi	t0,t0,4
   1157c:	02512623          	sw	t0,44(sp)
   11580:	f19ff06f          	j	11498 <_vfprintf_r+0x8a4>
   11584:	02c12283          	lw	t0,44(sp)
   11588:	06a107a3          	sb	a0,111(sp)
   1158c:	00100413          	li	s0,1
   11590:	00728793          	addi	a5,t0,7
   11594:	ff87f793          	andi	a5,a5,-8
   11598:	0007b007          	fld	ft0,0(a5)
   1159c:	00878793          	addi	a5,a5,8
   115a0:	00d12a23          	sw	a3,20(sp)
   115a4:	22000553          	fmv.d	fa0,ft0
   115a8:	02013c27          	fsd	ft0,56(sp)
   115ac:	02f12623          	sw	a5,44(sp)
   115b0:	5c9040ef          	jal	16378 <__fpclassifyd>
   115b4:	01412683          	lw	a3,20(sp)
   115b8:	70851a63          	bne	a0,s0,11ccc <_vfprintf_r+0x10d8>
   115bc:	03813007          	fld	ft0,56(sp)
   115c0:	a28017d3          	flt.d	a5,ft0,fs0
   115c4:	50079ce3          	bnez	a5,122dc <_vfprintf_r+0x16e8>
   115c8:	06f14503          	lbu	a0,111(sp)
   115cc:	04700793          	li	a5,71
   115d0:	2b97dce3          	ble	s9,a5,12088 <_vfprintf_r+0x1494>
   115d4:	0001b437          	lui	s0,0x1b
   115d8:	26c40413          	addi	s0,s0,620 # 1b26c <__clz_tab+0x12c>
   115dc:	00300293          	li	t0,3
   115e0:	02512223          	sw	t0,36(sp)
   115e4:	f7fa7a13          	andi	s4,s4,-129
   115e8:	02512423          	sw	t0,40(sp)
   115ec:	04012023          	sw	zero,64(sp)
   115f0:	8b9ff06f          	j	10ea8 <_vfprintf_r+0x2b4>
   115f4:	02c12283          	lw	t0,44(sp)
   115f8:	060107a3          	sb	zero,111(sp)
   115fc:	0002a403          	lw	s0,0(t0)
   11600:	00428d13          	addi	s10,t0,4
   11604:	3c040ce3          	beqz	s0,121dc <_vfprintf_r+0x15e8>
   11608:	00040513          	mv	a0,s0
   1160c:	340dc2e3          	bltz	s11,12150 <_vfprintf_r+0x155c>
   11610:	00000593          	li	a1,0
   11614:	000d8613          	mv	a2,s11
   11618:	00d12a23          	sw	a3,20(sp)
   1161c:	2d5030ef          	jal	150f0 <memchr>
   11620:	01412683          	lw	a3,20(sp)
   11624:	580500e3          	beqz	a0,123a4 <_vfprintf_r+0x17b0>
   11628:	40850533          	sub	a0,a0,s0
   1162c:	02a12423          	sw	a0,40(sp)
   11630:	24adc8e3          	blt	s11,a0,12080 <_vfprintf_r+0x148c>
   11634:	02812703          	lw	a4,40(sp)
   11638:	06f14503          	lbu	a0,111(sp)
   1163c:	03a12623          	sw	s10,44(sp)
   11640:	fff74993          	not	s3,a4
   11644:	41f9d993          	srai	s3,s3,0x1f
   11648:	013779b3          	and	s3,a4,s3
   1164c:	03312223          	sw	s3,36(sp)
   11650:	04012023          	sw	zero,64(sp)
   11654:	855ff06f          	j	10ea8 <_vfprintf_r+0x2b4>
   11658:	000b0413          	mv	s0,s6
   1165c:	f4051463          	bnez	a0,10da4 <_vfprintf_r+0x1b0>
   11660:	02000513          	li	a0,32
   11664:	f40ff06f          	j	10da4 <_vfprintf_r+0x1b0>
   11668:	02c12283          	lw	t0,44(sp)
   1166c:	03000793          	li	a5,48
   11670:	06f10823          	sb	a5,112(sp)
   11674:	07800793          	li	a5,120
   11678:	06f108a3          	sb	a5,113(sp)
   1167c:	0001b7b7          	lui	a5,0x1b
   11680:	0002a703          	lw	a4,0(t0)
   11684:	28c78793          	addi	a5,a5,652 # 1b28c <__clz_tab+0x14c>
   11688:	00428293          	addi	t0,t0,4
   1168c:	04f12c23          	sw	a5,88(sp)
   11690:	002a6a13          	ori	s4,s4,2
   11694:	02512623          	sw	t0,44(sp)
   11698:	00200793          	li	a5,2
   1169c:	07800c93          	li	s9,120
   116a0:	f9cff06f          	j	10e3c <_vfprintf_r+0x248>
   116a4:	001a6a13          	ori	s4,s4,1
   116a8:	000b0413          	mv	s0,s6
   116ac:	ef8ff06f          	j	10da4 <_vfprintf_r+0x1b0>
   116b0:	06a107a3          	sb	a0,111(sp)
   116b4:	c60c86e3          	beqz	s9,11320 <_vfprintf_r+0x72c>
   116b8:	00100713          	li	a4,1
   116bc:	02e12223          	sw	a4,36(sp)
   116c0:	09910c23          	sb	s9,152(sp)
   116c4:	060107a3          	sb	zero,111(sp)
   116c8:	02e12423          	sw	a4,40(sp)
   116cc:	09810413          	addi	s0,sp,152
   116d0:	cf9ff06f          	j	113c8 <_vfprintf_r+0x7d4>
   116d4:	02c12283          	lw	t0,44(sp)
   116d8:	0002a783          	lw	a5,0(t0)
   116dc:	00428293          	addi	t0,t0,4
   116e0:	02512623          	sw	t0,44(sp)
   116e4:	03012283          	lw	t0,48(sp)
   116e8:	0057a023          	sw	t0,0(a5)
   116ec:	e24ff06f          	j	10d10 <_vfprintf_r+0x11c>
   116f0:	09412703          	lw	a4,148(sp)
   116f4:	09012783          	lw	a5,144(sp)
   116f8:	06f14603          	lbu	a2,111(sp)
   116fc:	8a0606e3          	beqz	a2,10fa8 <_vfprintf_r+0x3b4>
   11700:	06f10613          	addi	a2,sp,111
   11704:	00c6a023          	sw	a2,0(a3)
   11708:	00100613          	li	a2,1
   1170c:	00c6a223          	sw	a2,4(a3)
   11710:	00170713          	addi	a4,a4,1
   11714:	00178793          	addi	a5,a5,1
   11718:	00700613          	li	a2,7
   1171c:	08e12a23          	sw	a4,148(sp)
   11720:	08f12823          	sw	a5,144(sp)
   11724:	00868693          	addi	a3,a3,8
   11728:	88f650e3          	ble	a5,a2,10fa8 <_vfprintf_r+0x3b4>
   1172c:	000a8513          	mv	a0,s5
   11730:	00090593          	mv	a1,s2
   11734:	08c10613          	addi	a2,sp,140
   11738:	0a0050ef          	jal	167d8 <__sprint_r>
   1173c:	be051ee3          	bnez	a0,11338 <_vfprintf_r+0x744>
   11740:	09412703          	lw	a4,148(sp)
   11744:	09012783          	lw	a5,144(sp)
   11748:	000b8693          	mv	a3,s7
   1174c:	85dff06f          	j	10fa8 <_vfprintf_r+0x3b4>
   11750:	04812283          	lw	t0,72(sp)
   11754:	00100613          	li	a2,1
   11758:	00170713          	addi	a4,a4,1
   1175c:	00178793          	addi	a5,a5,1
   11760:	0086a023          	sw	s0,0(a3)
   11764:	4e565863          	ble	t0,a2,11c54 <_vfprintf_r+0x1060>
   11768:	00100613          	li	a2,1
   1176c:	00c6a223          	sw	a2,4(a3)
   11770:	00700613          	li	a2,7
   11774:	08e12a23          	sw	a4,148(sp)
   11778:	08f12823          	sw	a5,144(sp)
   1177c:	00868693          	addi	a3,a3,8
   11780:	4ef64063          	blt	a2,a5,11c60 <_vfprintf_r+0x106c>
   11784:	05012283          	lw	t0,80(sp)
   11788:	00178793          	addi	a5,a5,1
   1178c:	00700613          	li	a2,7
   11790:	00570733          	add	a4,a4,t0
   11794:	04412283          	lw	t0,68(sp)
   11798:	08e12a23          	sw	a4,148(sp)
   1179c:	08f12823          	sw	a5,144(sp)
   117a0:	0056a023          	sw	t0,0(a3)
   117a4:	05012283          	lw	t0,80(sp)
   117a8:	00868693          	addi	a3,a3,8
   117ac:	fe56ae23          	sw	t0,-4(a3)
   117b0:	4cf64a63          	blt	a2,a5,11c84 <_vfprintf_r+0x1090>
   117b4:	03813007          	fld	ft0,56(sp)
   117b8:	a2802653          	feq.d	a2,ft0,fs0
   117bc:	42061463          	bnez	a2,11be4 <_vfprintf_r+0xff0>
   117c0:	04812283          	lw	t0,72(sp)
   117c4:	00140413          	addi	s0,s0,1
   117c8:	00178793          	addi	a5,a5,1
   117cc:	fff28613          	addi	a2,t0,-1
   117d0:	00c70733          	add	a4,a4,a2
   117d4:	0086a023          	sw	s0,0(a3)
   117d8:	00c6a223          	sw	a2,4(a3)
   117dc:	00700613          	li	a2,7
   117e0:	08e12a23          	sw	a4,148(sp)
   117e4:	08f12823          	sw	a5,144(sp)
   117e8:	28f64a63          	blt	a2,a5,11a7c <_vfprintf_r+0xe88>
   117ec:	00868693          	addi	a3,a3,8
   117f0:	05412283          	lw	t0,84(sp)
   117f4:	07c10613          	addi	a2,sp,124
   117f8:	00178793          	addi	a5,a5,1
   117fc:	00e28733          	add	a4,t0,a4
   11800:	00c6a023          	sw	a2,0(a3)
   11804:	00700613          	li	a2,7
   11808:	0056a223          	sw	t0,4(a3)
   1180c:	08e12a23          	sw	a4,148(sp)
   11810:	08f12823          	sw	a5,144(sp)
   11814:	8af65ce3          	ble	a5,a2,110cc <_vfprintf_r+0x4d8>
   11818:	000a8513          	mv	a0,s5
   1181c:	00090593          	mv	a1,s2
   11820:	08c10613          	addi	a2,sp,140
   11824:	7b5040ef          	jal	167d8 <__sprint_r>
   11828:	b00518e3          	bnez	a0,11338 <_vfprintf_r+0x744>
   1182c:	09412703          	lw	a4,148(sp)
   11830:	000b8693          	mv	a3,s7
   11834:	89dff06f          	j	110d0 <_vfprintf_r+0x4dc>
   11838:	00100613          	li	a2,1
   1183c:	e2c79263          	bne	a5,a2,10e60 <_vfprintf_r+0x26c>
   11840:	00900813          	li	a6,9
   11844:	0c010613          	addi	a2,sp,192
   11848:	00a00593          	li	a1,10
   1184c:	00e87e63          	bleu	a4,a6,11868 <_vfprintf_r+0xc74>
   11850:	02b777b3          	remu	a5,a4,a1
   11854:	fff60613          	addi	a2,a2,-1
   11858:	02b75733          	divu	a4,a4,a1
   1185c:	03078793          	addi	a5,a5,48
   11860:	00f60023          	sb	a5,0(a2)
   11864:	fee866e3          	bltu	a6,a4,11850 <_vfprintf_r+0xc5c>
   11868:	01c12283          	lw	t0,28(sp)
   1186c:	fff60413          	addi	s0,a2,-1
   11870:	03070713          	addi	a4,a4,48
   11874:	408282b3          	sub	t0,t0,s0
   11878:	fee60fa3          	sb	a4,-1(a2)
   1187c:	02512423          	sw	t0,40(sp)
   11880:	e18ff06f          	j	10e98 <_vfprintf_r+0x2a4>
   11884:	06500613          	li	a2,101
   11888:	ed9654e3          	ble	s9,a2,11750 <_vfprintf_r+0xb5c>
   1188c:	03813007          	fld	ft0,56(sp)
   11890:	a2802653          	feq.d	a2,ft0,fs0
   11894:	2a060463          	beqz	a2,11b3c <_vfprintf_r+0xf48>
   11898:	0001b637          	lui	a2,0x1b
   1189c:	2a860613          	addi	a2,a2,680 # 1b2a8 <__clz_tab+0x168>
   118a0:	00c6a023          	sw	a2,0(a3)
   118a4:	00100613          	li	a2,1
   118a8:	00c6a223          	sw	a2,4(a3)
   118ac:	00170713          	addi	a4,a4,1
   118b0:	00178793          	addi	a5,a5,1
   118b4:	00700613          	li	a2,7
   118b8:	08e12a23          	sw	a4,148(sp)
   118bc:	08f12823          	sw	a5,144(sp)
   118c0:	00868693          	addi	a3,a3,8
   118c4:	68f64e63          	blt	a2,a5,11f60 <_vfprintf_r+0x136c>
   118c8:	07412783          	lw	a5,116(sp)
   118cc:	04812283          	lw	t0,72(sp)
   118d0:	0057c663          	blt	a5,t0,118dc <_vfprintf_r+0xce8>
   118d4:	01fa1593          	slli	a1,s4,0x1f
   118d8:	fe05dc63          	bgez	a1,110d0 <_vfprintf_r+0x4dc>
   118dc:	05012283          	lw	t0,80(sp)
   118e0:	09012783          	lw	a5,144(sp)
   118e4:	00700613          	li	a2,7
   118e8:	00570733          	add	a4,a4,t0
   118ec:	04412283          	lw	t0,68(sp)
   118f0:	00178793          	addi	a5,a5,1
   118f4:	08e12a23          	sw	a4,148(sp)
   118f8:	0056a023          	sw	t0,0(a3)
   118fc:	05012283          	lw	t0,80(sp)
   11900:	08f12823          	sw	a5,144(sp)
   11904:	00868693          	addi	a3,a3,8
   11908:	fe56ae23          	sw	t0,-4(a3)
   1190c:	7cf64463          	blt	a2,a5,120d4 <_vfprintf_r+0x14e0>
   11910:	04812783          	lw	a5,72(sp)
   11914:	fff78413          	addi	s0,a5,-1
   11918:	fa805c63          	blez	s0,110d0 <_vfprintf_r+0x4dc>
   1191c:	0001b8b7          	lui	a7,0x1b
   11920:	01000c93          	li	s9,16
   11924:	09012783          	lw	a5,144(sp)
   11928:	e1c88993          	addi	s3,a7,-484 # 1ae1c <zeroes.3945>
   1192c:	00700d13          	li	s10,7
   11930:	008cc863          	blt	s9,s0,11940 <_vfprintf_r+0xd4c>
   11934:	5040006f          	j	11e38 <_vfprintf_r+0x1244>
   11938:	ff040413          	addi	s0,s0,-16
   1193c:	4e8cde63          	ble	s0,s9,11e38 <_vfprintf_r+0x1244>
   11940:	01070713          	addi	a4,a4,16
   11944:	00178793          	addi	a5,a5,1
   11948:	0136a023          	sw	s3,0(a3)
   1194c:	0196a223          	sw	s9,4(a3)
   11950:	08e12a23          	sw	a4,148(sp)
   11954:	08f12823          	sw	a5,144(sp)
   11958:	00868693          	addi	a3,a3,8
   1195c:	fcfd5ee3          	ble	a5,s10,11938 <_vfprintf_r+0xd44>
   11960:	000a8513          	mv	a0,s5
   11964:	00090593          	mv	a1,s2
   11968:	08c10613          	addi	a2,sp,140
   1196c:	66d040ef          	jal	167d8 <__sprint_r>
   11970:	9c0514e3          	bnez	a0,11338 <_vfprintf_r+0x744>
   11974:	09412703          	lw	a4,148(sp)
   11978:	09012783          	lw	a5,144(sp)
   1197c:	000b8693          	mv	a3,s7
   11980:	fb9ff06f          	j	11938 <_vfprintf_r+0xd44>
   11984:	02012283          	lw	t0,32(sp)
   11988:	02412883          	lw	a7,36(sp)
   1198c:	41128d33          	sub	s10,t0,a7
   11990:	e5a05a63          	blez	s10,10fe4 <_vfprintf_r+0x3f0>
   11994:	0001b8b7          	lui	a7,0x1b
   11998:	01000d93          	li	s11,16
   1199c:	e1c88993          	addi	s3,a7,-484 # 1ae1c <zeroes.3945>
   119a0:	00700493          	li	s1,7
   119a4:	01adc863          	blt	s11,s10,119b4 <_vfprintf_r+0xdc0>
   119a8:	0540006f          	j	119fc <_vfprintf_r+0xe08>
   119ac:	ff0d0d13          	addi	s10,s10,-16
   119b0:	05add663          	ble	s10,s11,119fc <_vfprintf_r+0xe08>
   119b4:	01070713          	addi	a4,a4,16
   119b8:	00178793          	addi	a5,a5,1
   119bc:	0136a023          	sw	s3,0(a3)
   119c0:	01b6a223          	sw	s11,4(a3)
   119c4:	08e12a23          	sw	a4,148(sp)
   119c8:	08f12823          	sw	a5,144(sp)
   119cc:	00868693          	addi	a3,a3,8
   119d0:	fcf4dee3          	ble	a5,s1,119ac <_vfprintf_r+0xdb8>
   119d4:	000a8513          	mv	a0,s5
   119d8:	00090593          	mv	a1,s2
   119dc:	08c10613          	addi	a2,sp,140
   119e0:	5f9040ef          	jal	167d8 <__sprint_r>
   119e4:	94051ae3          	bnez	a0,11338 <_vfprintf_r+0x744>
   119e8:	ff0d0d13          	addi	s10,s10,-16
   119ec:	09412703          	lw	a4,148(sp)
   119f0:	09012783          	lw	a5,144(sp)
   119f4:	000b8693          	mv	a3,s7
   119f8:	fbadcee3          	blt	s11,s10,119b4 <_vfprintf_r+0xdc0>
   119fc:	01a70733          	add	a4,a4,s10
   11a00:	00178793          	addi	a5,a5,1
   11a04:	00700613          	li	a2,7
   11a08:	0136a023          	sw	s3,0(a3)
   11a0c:	01a6a223          	sw	s10,4(a3)
   11a10:	08e12a23          	sw	a4,148(sp)
   11a14:	08f12823          	sw	a5,144(sp)
   11a18:	00868693          	addi	a3,a3,8
   11a1c:	dcf65463          	ble	a5,a2,10fe4 <_vfprintf_r+0x3f0>
   11a20:	000a8513          	mv	a0,s5
   11a24:	00090593          	mv	a1,s2
   11a28:	08c10613          	addi	a2,sp,140
   11a2c:	5ad040ef          	jal	167d8 <__sprint_r>
   11a30:	900514e3          	bnez	a0,11338 <_vfprintf_r+0x744>
   11a34:	09412703          	lw	a4,148(sp)
   11a38:	09012783          	lw	a5,144(sp)
   11a3c:	000b8693          	mv	a3,s7
   11a40:	da4ff06f          	j	10fe4 <_vfprintf_r+0x3f0>
   11a44:	000a8513          	mv	a0,s5
   11a48:	00090593          	mv	a1,s2
   11a4c:	08c10613          	addi	a2,sp,140
   11a50:	589040ef          	jal	167d8 <__sprint_r>
   11a54:	f4050c63          	beqz	a0,111ac <_vfprintf_r+0x5b8>
   11a58:	8e1ff06f          	j	11338 <_vfprintf_r+0x744>
   11a5c:	00870733          	add	a4,a4,s0
   11a60:	00178793          	addi	a5,a5,1
   11a64:	00700613          	li	a2,7
   11a68:	0136a023          	sw	s3,0(a3)
   11a6c:	0086a223          	sw	s0,4(a3)
   11a70:	08e12a23          	sw	a4,148(sp)
   11a74:	08f12823          	sw	a5,144(sp)
   11a78:	d6f65ae3          	ble	a5,a2,117ec <_vfprintf_r+0xbf8>
   11a7c:	000a8513          	mv	a0,s5
   11a80:	00090593          	mv	a1,s2
   11a84:	08c10613          	addi	a2,sp,140
   11a88:	551040ef          	jal	167d8 <__sprint_r>
   11a8c:	8a0516e3          	bnez	a0,11338 <_vfprintf_r+0x744>
   11a90:	09412703          	lw	a4,148(sp)
   11a94:	09012783          	lw	a5,144(sp)
   11a98:	000b8693          	mv	a3,s7
   11a9c:	d55ff06f          	j	117f0 <_vfprintf_r+0xbfc>
   11aa0:	04079463          	bnez	a5,11ae8 <_vfprintf_r+0xef4>
   11aa4:	01fa1793          	slli	a5,s4,0x1f
   11aa8:	0407d063          	bgez	a5,11ae8 <_vfprintf_r+0xef4>
   11aac:	05c12283          	lw	t0,92(sp)
   11ab0:	03000793          	li	a5,48
   11ab4:	0af10fa3          	sb	a5,191(sp)
   11ab8:	02512423          	sw	t0,40(sp)
   11abc:	0bf10413          	addi	s0,sp,191
   11ac0:	bd8ff06f          	j	10e98 <_vfprintf_r+0x2a4>
   11ac4:	000a8513          	mv	a0,s5
   11ac8:	00090593          	mv	a1,s2
   11acc:	08c10613          	addi	a2,sp,140
   11ad0:	509040ef          	jal	167d8 <__sprint_r>
   11ad4:	860512e3          	bnez	a0,11338 <_vfprintf_r+0x744>
   11ad8:	09412703          	lw	a4,148(sp)
   11adc:	09012783          	lw	a5,144(sp)
   11ae0:	000b8693          	mv	a3,s7
   11ae4:	cf4ff06f          	j	10fd8 <_vfprintf_r+0x3e4>
   11ae8:	02012423          	sw	zero,40(sp)
   11aec:	0c010413          	addi	s0,sp,192
   11af0:	ba8ff06f          	j	10e98 <_vfprintf_r+0x2a4>
   11af4:	0c010413          	addi	s0,sp,192
   11af8:	00777793          	andi	a5,a4,7
   11afc:	fff40413          	addi	s0,s0,-1
   11b00:	03078793          	addi	a5,a5,48
   11b04:	00375713          	srli	a4,a4,0x3
   11b08:	00f40023          	sb	a5,0(s0)
   11b0c:	fe0716e3          	bnez	a4,11af8 <_vfprintf_r+0xf04>
   11b10:	01fa1613          	slli	a2,s4,0x1f
   11b14:	00040713          	mv	a4,s0
   11b18:	b6065a63          	bgez	a2,10e8c <_vfprintf_r+0x298>
   11b1c:	03000613          	li	a2,48
   11b20:	5cc78a63          	beq	a5,a2,120f4 <_vfprintf_r+0x1500>
   11b24:	01c12883          	lw	a7,28(sp)
   11b28:	fff40413          	addi	s0,s0,-1
   11b2c:	fec70fa3          	sb	a2,-1(a4)
   11b30:	408888b3          	sub	a7,a7,s0
   11b34:	03112423          	sw	a7,40(sp)
   11b38:	b60ff06f          	j	10e98 <_vfprintf_r+0x2a4>
   11b3c:	07412c83          	lw	s9,116(sp)
   11b40:	45905063          	blez	s9,11f80 <_vfprintf_r+0x138c>
   11b44:	04812283          	lw	t0,72(sp)
   11b48:	325cc663          	blt	s9,t0,11e74 <_vfprintf_r+0x1280>
   11b4c:	00570733          	add	a4,a4,t0
   11b50:	00178793          	addi	a5,a5,1
   11b54:	00700613          	li	a2,7
   11b58:	0086a023          	sw	s0,0(a3)
   11b5c:	0056a223          	sw	t0,4(a3)
   11b60:	08e12a23          	sw	a4,148(sp)
   11b64:	08f12823          	sw	a5,144(sp)
   11b68:	00868693          	addi	a3,a3,8
   11b6c:	7af64c63          	blt	a2,a5,12324 <_vfprintf_r+0x1730>
   11b70:	04812783          	lw	a5,72(sp)
   11b74:	40fc8433          	sub	s0,s9,a5
   11b78:	3c805063          	blez	s0,11f38 <_vfprintf_r+0x1344>
   11b7c:	0001b8b7          	lui	a7,0x1b
   11b80:	01000c93          	li	s9,16
   11b84:	09012783          	lw	a5,144(sp)
   11b88:	e1c88993          	addi	s3,a7,-484 # 1ae1c <zeroes.3945>
   11b8c:	00700d13          	li	s10,7
   11b90:	008cc863          	blt	s9,s0,11ba0 <_vfprintf_r+0xfac>
   11b94:	3640006f          	j	11ef8 <_vfprintf_r+0x1304>
   11b98:	ff040413          	addi	s0,s0,-16
   11b9c:	348cde63          	ble	s0,s9,11ef8 <_vfprintf_r+0x1304>
   11ba0:	01070713          	addi	a4,a4,16
   11ba4:	00178793          	addi	a5,a5,1
   11ba8:	0136a023          	sw	s3,0(a3)
   11bac:	0196a223          	sw	s9,4(a3)
   11bb0:	08e12a23          	sw	a4,148(sp)
   11bb4:	08f12823          	sw	a5,144(sp)
   11bb8:	00868693          	addi	a3,a3,8
   11bbc:	fcfd5ee3          	ble	a5,s10,11b98 <_vfprintf_r+0xfa4>
   11bc0:	000a8513          	mv	a0,s5
   11bc4:	00090593          	mv	a1,s2
   11bc8:	08c10613          	addi	a2,sp,140
   11bcc:	40d040ef          	jal	167d8 <__sprint_r>
   11bd0:	f6051463          	bnez	a0,11338 <_vfprintf_r+0x744>
   11bd4:	09412703          	lw	a4,148(sp)
   11bd8:	09012783          	lw	a5,144(sp)
   11bdc:	000b8693          	mv	a3,s7
   11be0:	fb9ff06f          	j	11b98 <_vfprintf_r+0xfa4>
   11be4:	04812883          	lw	a7,72(sp)
   11be8:	fff88413          	addi	s0,a7,-1
   11bec:	c08052e3          	blez	s0,117f0 <_vfprintf_r+0xbfc>
   11bf0:	0001b8b7          	lui	a7,0x1b
   11bf4:	01000c93          	li	s9,16
   11bf8:	e1c88993          	addi	s3,a7,-484 # 1ae1c <zeroes.3945>
   11bfc:	00700d13          	li	s10,7
   11c00:	008cc863          	blt	s9,s0,11c10 <_vfprintf_r+0x101c>
   11c04:	e59ff06f          	j	11a5c <_vfprintf_r+0xe68>
   11c08:	ff040413          	addi	s0,s0,-16
   11c0c:	e48cd8e3          	ble	s0,s9,11a5c <_vfprintf_r+0xe68>
   11c10:	01070713          	addi	a4,a4,16
   11c14:	00178793          	addi	a5,a5,1
   11c18:	0136a023          	sw	s3,0(a3)
   11c1c:	0196a223          	sw	s9,4(a3)
   11c20:	08e12a23          	sw	a4,148(sp)
   11c24:	08f12823          	sw	a5,144(sp)
   11c28:	00868693          	addi	a3,a3,8
   11c2c:	fcfd5ee3          	ble	a5,s10,11c08 <_vfprintf_r+0x1014>
   11c30:	000a8513          	mv	a0,s5
   11c34:	00090593          	mv	a1,s2
   11c38:	08c10613          	addi	a2,sp,140
   11c3c:	39d040ef          	jal	167d8 <__sprint_r>
   11c40:	ee051c63          	bnez	a0,11338 <_vfprintf_r+0x744>
   11c44:	09412703          	lw	a4,148(sp)
   11c48:	09012783          	lw	a5,144(sp)
   11c4c:	000b8693          	mv	a3,s7
   11c50:	fb9ff06f          	j	11c08 <_vfprintf_r+0x1014>
   11c54:	01fa1593          	slli	a1,s4,0x1f
   11c58:	b805d0e3          	bgez	a1,117d8 <_vfprintf_r+0xbe4>
   11c5c:	b0dff06f          	j	11768 <_vfprintf_r+0xb74>
   11c60:	000a8513          	mv	a0,s5
   11c64:	00090593          	mv	a1,s2
   11c68:	08c10613          	addi	a2,sp,140
   11c6c:	36d040ef          	jal	167d8 <__sprint_r>
   11c70:	ec051463          	bnez	a0,11338 <_vfprintf_r+0x744>
   11c74:	09412703          	lw	a4,148(sp)
   11c78:	09012783          	lw	a5,144(sp)
   11c7c:	000b8693          	mv	a3,s7
   11c80:	b05ff06f          	j	11784 <_vfprintf_r+0xb90>
   11c84:	000a8513          	mv	a0,s5
   11c88:	00090593          	mv	a1,s2
   11c8c:	08c10613          	addi	a2,sp,140
   11c90:	349040ef          	jal	167d8 <__sprint_r>
   11c94:	ea051263          	bnez	a0,11338 <_vfprintf_r+0x744>
   11c98:	09412703          	lw	a4,148(sp)
   11c9c:	09012783          	lw	a5,144(sp)
   11ca0:	000b8693          	mv	a3,s7
   11ca4:	b11ff06f          	j	117b4 <_vfprintf_r+0xbc0>
   11ca8:	0c010613          	addi	a2,sp,192
   11cac:	bbdff06f          	j	11868 <_vfprintf_r+0xc74>
   11cb0:	02d00793          	li	a5,45
   11cb4:	06f107a3          	sb	a5,111(sp)
   11cb8:	40e00733          	neg	a4,a4
   11cbc:	05b12023          	sw	s11,64(sp)
   11cc0:	02d00513          	li	a0,45
   11cc4:	00100793          	li	a5,1
   11cc8:	980ff06f          	j	10e48 <_vfprintf_r+0x254>
   11ccc:	03813507          	fld	fa0,56(sp)
   11cd0:	00d12a23          	sw	a3,20(sp)
   11cd4:	6a4040ef          	jal	16378 <__fpclassifyd>
   11cd8:	01412683          	lw	a3,20(sp)
   11cdc:	36050c63          	beqz	a0,12054 <_vfprintf_r+0x1460>
   11ce0:	fff00793          	li	a5,-1
   11ce4:	fdfcfd13          	andi	s10,s9,-33
   11ce8:	70fd8663          	beq	s11,a5,123f4 <_vfprintf_r+0x1800>
   11cec:	04700793          	li	a5,71
   11cf0:	6efd0c63          	beq	s10,a5,123e8 <_vfprintf_r+0x17f4>
   11cf4:	03c12783          	lw	a5,60(sp)
   11cf8:	100a6493          	ori	s1,s4,256
   11cfc:	03813487          	fld	fs1,56(sp)
   11d00:	02012a23          	sw	zero,52(sp)
   11d04:	6e07cc63          	bltz	a5,123fc <_vfprintf_r+0x1808>
   11d08:	06600793          	li	a5,102
   11d0c:	46fc8c63          	beq	s9,a5,12184 <_vfprintf_r+0x1590>
   11d10:	04600793          	li	a5,70
   11d14:	46fc8863          	beq	s9,a5,12184 <_vfprintf_r+0x1590>
   11d18:	fbbd0993          	addi	s3,s10,-69
   11d1c:	0019b993          	seqz	s3,s3
   11d20:	08410793          	addi	a5,sp,132
   11d24:	013d89b3          	add	s3,s11,s3
   11d28:	22948653          	fmv.d	fa2,fs1
   11d2c:	00f12023          	sw	a5,0(sp)
   11d30:	000a8513          	mv	a0,s5
   11d34:	00098793          	mv	a5,s3
   11d38:	00200713          	li	a4,2
   11d3c:	07410813          	addi	a6,sp,116
   11d40:	07810893          	addi	a7,sp,120
   11d44:	00d12a23          	sw	a3,20(sp)
   11d48:	5b1000ef          	jal	12af8 <_dtoa_r>
   11d4c:	06700793          	li	a5,103
   11d50:	00050413          	mv	s0,a0
   11d54:	01412683          	lw	a3,20(sp)
   11d58:	00fc8663          	beq	s9,a5,11d64 <_vfprintf_r+0x1170>
   11d5c:	04700793          	li	a5,71
   11d60:	44fc9c63          	bne	s9,a5,121b8 <_vfprintf_r+0x15c4>
   11d64:	01fa1713          	slli	a4,s4,0x1f
   11d68:	01340633          	add	a2,s0,s3
   11d6c:	6e075663          	bgez	a4,12458 <_vfprintf_r+0x1864>
   11d70:	a284a753          	feq.d	a4,fs1,fs0
   11d74:	00060793          	mv	a5,a2
   11d78:	02071263          	bnez	a4,11d9c <_vfprintf_r+0x11a8>
   11d7c:	08412783          	lw	a5,132(sp)
   11d80:	00c7fe63          	bleu	a2,a5,11d9c <_vfprintf_r+0x11a8>
   11d84:	03000593          	li	a1,48
   11d88:	00178713          	addi	a4,a5,1
   11d8c:	08e12223          	sw	a4,132(sp)
   11d90:	00b78023          	sb	a1,0(a5)
   11d94:	08412783          	lw	a5,132(sp)
   11d98:	fec7e8e3          	bltu	a5,a2,11d88 <_vfprintf_r+0x1194>
   11d9c:	408787b3          	sub	a5,a5,s0
   11da0:	04f12423          	sw	a5,72(sp)
   11da4:	04700793          	li	a5,71
   11da8:	56fd0063          	beq	s10,a5,12308 <_vfprintf_r+0x1714>
   11dac:	06500793          	li	a5,101
   11db0:	7797dc63          	ble	s9,a5,12528 <_vfprintf_r+0x1934>
   11db4:	06600793          	li	a5,102
   11db8:	68fc8063          	beq	s9,a5,12438 <_vfprintf_r+0x1844>
   11dbc:	07412783          	lw	a5,116(sp)
   11dc0:	02f12423          	sw	a5,40(sp)
   11dc4:	04812283          	lw	t0,72(sp)
   11dc8:	02812703          	lw	a4,40(sp)
   11dcc:	64574063          	blt	a4,t0,1240c <_vfprintf_r+0x1818>
   11dd0:	01fa1793          	slli	a5,s4,0x1f
   11dd4:	4e07da63          	bgez	a5,122c8 <_vfprintf_r+0x16d4>
   11dd8:	02812883          	lw	a7,40(sp)
   11ddc:	00188893          	addi	a7,a7,1
   11de0:	fff8c993          	not	s3,a7
   11de4:	41f9d993          	srai	s3,s3,0x1f
   11de8:	0138f9b3          	and	s3,a7,s3
   11dec:	03112423          	sw	a7,40(sp)
   11df0:	03312223          	sw	s3,36(sp)
   11df4:	03412283          	lw	t0,52(sp)
   11df8:	4e028a63          	beqz	t0,122ec <_vfprintf_r+0x16f8>
   11dfc:	02d00793          	li	a5,45
   11e00:	06f107a3          	sb	a5,111(sp)
   11e04:	00048a13          	mv	s4,s1
   11e08:	04012023          	sw	zero,64(sp)
   11e0c:	8a0ff06f          	j	10eac <_vfprintf_r+0x2b8>
   11e10:	02c12283          	lw	t0,44(sp)
   11e14:	0007a703          	lw	a4,0(a5)
   11e18:	00428293          	addi	t0,t0,4
   11e1c:	02512623          	sw	t0,44(sp)
   11e20:	e34ff06f          	j	11454 <_vfprintf_r+0x860>
   11e24:	02c12283          	lw	t0,44(sp)
   11e28:	0007a703          	lw	a4,0(a5)
   11e2c:	00428293          	addi	t0,t0,4
   11e30:	02512623          	sw	t0,44(sp)
   11e34:	e64ff06f          	j	11498 <_vfprintf_r+0x8a4>
   11e38:	00870733          	add	a4,a4,s0
   11e3c:	00178793          	addi	a5,a5,1
   11e40:	00700613          	li	a2,7
   11e44:	0136a023          	sw	s3,0(a3)
   11e48:	0086a223          	sw	s0,4(a3)
   11e4c:	08e12a23          	sw	a4,148(sp)
   11e50:	08f12823          	sw	a5,144(sp)
   11e54:	a6f65c63          	ble	a5,a2,110cc <_vfprintf_r+0x4d8>
   11e58:	9c1ff06f          	j	11818 <_vfprintf_r+0xc24>
   11e5c:	0007a703          	lw	a4,0(a5)
   11e60:	00100793          	li	a5,1
   11e64:	fd9fe06f          	j	10e3c <_vfprintf_r+0x248>
   11e68:	0007a703          	lw	a4,0(a5)
   11e6c:	00000793          	li	a5,0
   11e70:	fcdfe06f          	j	10e3c <_vfprintf_r+0x248>
   11e74:	00ec8733          	add	a4,s9,a4
   11e78:	00178793          	addi	a5,a5,1
   11e7c:	00700613          	li	a2,7
   11e80:	0086a023          	sw	s0,0(a3)
   11e84:	0196a223          	sw	s9,4(a3)
   11e88:	08e12a23          	sw	a4,148(sp)
   11e8c:	08f12823          	sw	a5,144(sp)
   11e90:	00868693          	addi	a3,a3,8
   11e94:	4ef64263          	blt	a2,a5,12378 <_vfprintf_r+0x1784>
   11e98:	05012283          	lw	t0,80(sp)
   11e9c:	00178793          	addi	a5,a5,1
   11ea0:	00700613          	li	a2,7
   11ea4:	00570733          	add	a4,a4,t0
   11ea8:	04412283          	lw	t0,68(sp)
   11eac:	01940433          	add	s0,s0,s9
   11eb0:	08e12a23          	sw	a4,148(sp)
   11eb4:	0056a023          	sw	t0,0(a3)
   11eb8:	05012283          	lw	t0,80(sp)
   11ebc:	08f12823          	sw	a5,144(sp)
   11ec0:	00868693          	addi	a3,a3,8
   11ec4:	fe56ae23          	sw	t0,-4(a3)
   11ec8:	48f64263          	blt	a2,a5,1234c <_vfprintf_r+0x1758>
   11ecc:	04812883          	lw	a7,72(sp)
   11ed0:	00178793          	addi	a5,a5,1
   11ed4:	00700613          	li	a2,7
   11ed8:	41988cb3          	sub	s9,a7,s9
   11edc:	00ec8733          	add	a4,s9,a4
   11ee0:	0086a023          	sw	s0,0(a3)
   11ee4:	0196a223          	sw	s9,4(a3)
   11ee8:	08e12a23          	sw	a4,148(sp)
   11eec:	08f12823          	sw	a5,144(sp)
   11ef0:	9cf65e63          	ble	a5,a2,110cc <_vfprintf_r+0x4d8>
   11ef4:	925ff06f          	j	11818 <_vfprintf_r+0xc24>
   11ef8:	00870733          	add	a4,a4,s0
   11efc:	00178793          	addi	a5,a5,1
   11f00:	00700613          	li	a2,7
   11f04:	0136a023          	sw	s3,0(a3)
   11f08:	0086a223          	sw	s0,4(a3)
   11f0c:	08e12a23          	sw	a4,148(sp)
   11f10:	08f12823          	sw	a5,144(sp)
   11f14:	00868693          	addi	a3,a3,8
   11f18:	02f65063          	ble	a5,a2,11f38 <_vfprintf_r+0x1344>
   11f1c:	000a8513          	mv	a0,s5
   11f20:	00090593          	mv	a1,s2
   11f24:	08c10613          	addi	a2,sp,140
   11f28:	0b1040ef          	jal	167d8 <__sprint_r>
   11f2c:	c0051663          	bnez	a0,11338 <_vfprintf_r+0x744>
   11f30:	09412703          	lw	a4,148(sp)
   11f34:	000b8693          	mv	a3,s7
   11f38:	01fa1893          	slli	a7,s4,0x1f
   11f3c:	9808da63          	bgez	a7,110d0 <_vfprintf_r+0x4dc>
   11f40:	05012283          	lw	t0,80(sp)
   11f44:	09012783          	lw	a5,144(sp)
   11f48:	00570733          	add	a4,a4,t0
   11f4c:	04412283          	lw	t0,68(sp)
   11f50:	00178793          	addi	a5,a5,1
   11f54:	0056a023          	sw	t0,0(a3)
   11f58:	05012283          	lw	t0,80(sp)
   11f5c:	8a9ff06f          	j	11804 <_vfprintf_r+0xc10>
   11f60:	000a8513          	mv	a0,s5
   11f64:	00090593          	mv	a1,s2
   11f68:	08c10613          	addi	a2,sp,140
   11f6c:	06d040ef          	jal	167d8 <__sprint_r>
   11f70:	bc051463          	bnez	a0,11338 <_vfprintf_r+0x744>
   11f74:	09412703          	lw	a4,148(sp)
   11f78:	000b8693          	mv	a3,s7
   11f7c:	94dff06f          	j	118c8 <_vfprintf_r+0xcd4>
   11f80:	0001b637          	lui	a2,0x1b
   11f84:	2a860613          	addi	a2,a2,680 # 1b2a8 <__clz_tab+0x168>
   11f88:	00c6a023          	sw	a2,0(a3)
   11f8c:	00100613          	li	a2,1
   11f90:	00c6a223          	sw	a2,4(a3)
   11f94:	00170713          	addi	a4,a4,1
   11f98:	00178793          	addi	a5,a5,1
   11f9c:	00700613          	li	a2,7
   11fa0:	08e12a23          	sw	a4,148(sp)
   11fa4:	08f12823          	sw	a5,144(sp)
   11fa8:	00868693          	addi	a3,a3,8
   11fac:	10f64063          	blt	a2,a5,120ac <_vfprintf_r+0x14b8>
   11fb0:	0e0c8263          	beqz	s9,12094 <_vfprintf_r+0x14a0>
   11fb4:	05012283          	lw	t0,80(sp)
   11fb8:	09012783          	lw	a5,144(sp)
   11fbc:	00700613          	li	a2,7
   11fc0:	00570733          	add	a4,a4,t0
   11fc4:	04412283          	lw	t0,68(sp)
   11fc8:	00178793          	addi	a5,a5,1
   11fcc:	08e12a23          	sw	a4,148(sp)
   11fd0:	0056a023          	sw	t0,0(a3)
   11fd4:	05012283          	lw	t0,80(sp)
   11fd8:	08f12823          	sw	a5,144(sp)
   11fdc:	00868693          	addi	a3,a3,8
   11fe0:	fe56ae23          	sw	t0,-4(a3)
   11fe4:	3cf64c63          	blt	a2,a5,123bc <_vfprintf_r+0x17c8>
   11fe8:	41900cb3          	neg	s9,s9
   11fec:	15905e63          	blez	s9,12148 <_vfprintf_r+0x1554>
   11ff0:	0001b8b7          	lui	a7,0x1b
   11ff4:	01000d13          	li	s10,16
   11ff8:	e1c88993          	addi	s3,a7,-484 # 1ae1c <zeroes.3945>
   11ffc:	00700d93          	li	s11,7
   12000:	019d4863          	blt	s10,s9,12010 <_vfprintf_r+0x141c>
   12004:	1000006f          	j	12104 <_vfprintf_r+0x1510>
   12008:	ff0c8c93          	addi	s9,s9,-16
   1200c:	0f9d5c63          	ble	s9,s10,12104 <_vfprintf_r+0x1510>
   12010:	01070713          	addi	a4,a4,16
   12014:	00178793          	addi	a5,a5,1
   12018:	0136a023          	sw	s3,0(a3)
   1201c:	01a6a223          	sw	s10,4(a3)
   12020:	08e12a23          	sw	a4,148(sp)
   12024:	08f12823          	sw	a5,144(sp)
   12028:	00868693          	addi	a3,a3,8
   1202c:	fcfddee3          	ble	a5,s11,12008 <_vfprintf_r+0x1414>
   12030:	000a8513          	mv	a0,s5
   12034:	00090593          	mv	a1,s2
   12038:	08c10613          	addi	a2,sp,140
   1203c:	79c040ef          	jal	167d8 <__sprint_r>
   12040:	ae051c63          	bnez	a0,11338 <_vfprintf_r+0x744>
   12044:	09412703          	lw	a4,148(sp)
   12048:	09012783          	lw	a5,144(sp)
   1204c:	000b8693          	mv	a3,s7
   12050:	fb9ff06f          	j	12008 <_vfprintf_r+0x1414>
   12054:	04700793          	li	a5,71
   12058:	2b97c263          	blt	a5,s9,122fc <_vfprintf_r+0x1708>
   1205c:	0001b437          	lui	s0,0x1b
   12060:	27040413          	addi	s0,s0,624 # 1b270 <__clz_tab+0x130>
   12064:	00300713          	li	a4,3
   12068:	02e12223          	sw	a4,36(sp)
   1206c:	f7fa7a13          	andi	s4,s4,-129
   12070:	06f14503          	lbu	a0,111(sp)
   12074:	02e12423          	sw	a4,40(sp)
   12078:	04012023          	sw	zero,64(sp)
   1207c:	e2dfe06f          	j	10ea8 <_vfprintf_r+0x2b4>
   12080:	03b12423          	sw	s11,40(sp)
   12084:	db0ff06f          	j	11634 <_vfprintf_r+0xa40>
   12088:	0001b437          	lui	s0,0x1b
   1208c:	26840413          	addi	s0,s0,616 # 1b268 <__clz_tab+0x128>
   12090:	d4cff06f          	j	115dc <_vfprintf_r+0x9e8>
   12094:	04812883          	lw	a7,72(sp)
   12098:	f0089ee3          	bnez	a7,11fb4 <_vfprintf_r+0x13c0>
   1209c:	01fa1293          	slli	t0,s4,0x1f
   120a0:	0002c463          	bltz	t0,120a8 <_vfprintf_r+0x14b4>
   120a4:	82cff06f          	j	110d0 <_vfprintf_r+0x4dc>
   120a8:	f0dff06f          	j	11fb4 <_vfprintf_r+0x13c0>
   120ac:	000a8513          	mv	a0,s5
   120b0:	00090593          	mv	a1,s2
   120b4:	08c10613          	addi	a2,sp,140
   120b8:	720040ef          	jal	167d8 <__sprint_r>
   120bc:	a6051e63          	bnez	a0,11338 <_vfprintf_r+0x744>
   120c0:	07412c83          	lw	s9,116(sp)
   120c4:	09412703          	lw	a4,148(sp)
   120c8:	000b8693          	mv	a3,s7
   120cc:	ee0c94e3          	bnez	s9,11fb4 <_vfprintf_r+0x13c0>
   120d0:	fc5ff06f          	j	12094 <_vfprintf_r+0x14a0>
   120d4:	000a8513          	mv	a0,s5
   120d8:	00090593          	mv	a1,s2
   120dc:	08c10613          	addi	a2,sp,140
   120e0:	6f8040ef          	jal	167d8 <__sprint_r>
   120e4:	a4051a63          	bnez	a0,11338 <_vfprintf_r+0x744>
   120e8:	09412703          	lw	a4,148(sp)
   120ec:	000b8693          	mv	a3,s7
   120f0:	821ff06f          	j	11910 <_vfprintf_r+0xd1c>
   120f4:	01c12783          	lw	a5,28(sp)
   120f8:	408787b3          	sub	a5,a5,s0
   120fc:	02f12423          	sw	a5,40(sp)
   12100:	d99fe06f          	j	10e98 <_vfprintf_r+0x2a4>
   12104:	01970733          	add	a4,a4,s9
   12108:	00178793          	addi	a5,a5,1
   1210c:	00700613          	li	a2,7
   12110:	0136a023          	sw	s3,0(a3)
   12114:	0196a223          	sw	s9,4(a3)
   12118:	08e12a23          	sw	a4,148(sp)
   1211c:	08f12823          	sw	a5,144(sp)
   12120:	00868693          	addi	a3,a3,8
   12124:	02f65263          	ble	a5,a2,12148 <_vfprintf_r+0x1554>
   12128:	000a8513          	mv	a0,s5
   1212c:	00090593          	mv	a1,s2
   12130:	08c10613          	addi	a2,sp,140
   12134:	6a4040ef          	jal	167d8 <__sprint_r>
   12138:	a0051063          	bnez	a0,11338 <_vfprintf_r+0x744>
   1213c:	09412703          	lw	a4,148(sp)
   12140:	09012783          	lw	a5,144(sp)
   12144:	000b8693          	mv	a3,s7
   12148:	04812883          	lw	a7,72(sp)
   1214c:	f61fe06f          	j	110ac <_vfprintf_r+0x4b8>
   12150:	00d12a23          	sw	a3,20(sp)
   12154:	50c040ef          	jal	16660 <strlen>
   12158:	02a12423          	sw	a0,40(sp)
   1215c:	02812783          	lw	a5,40(sp)
   12160:	fff54993          	not	s3,a0
   12164:	41f9d993          	srai	s3,s3,0x1f
   12168:	0137f9b3          	and	s3,a5,s3
   1216c:	06f14503          	lbu	a0,111(sp)
   12170:	03312223          	sw	s3,36(sp)
   12174:	03a12623          	sw	s10,44(sp)
   12178:	04012023          	sw	zero,64(sp)
   1217c:	01412683          	lw	a3,20(sp)
   12180:	d29fe06f          	j	10ea8 <_vfprintf_r+0x2b4>
   12184:	08410793          	addi	a5,sp,132
   12188:	22948653          	fmv.d	fa2,fs1
   1218c:	00f12023          	sw	a5,0(sp)
   12190:	000a8513          	mv	a0,s5
   12194:	00300713          	li	a4,3
   12198:	000d8793          	mv	a5,s11
   1219c:	07410813          	addi	a6,sp,116
   121a0:	07810893          	addi	a7,sp,120
   121a4:	00d12a23          	sw	a3,20(sp)
   121a8:	151000ef          	jal	12af8 <_dtoa_r>
   121ac:	01412683          	lw	a3,20(sp)
   121b0:	00050413          	mv	s0,a0
   121b4:	000d8993          	mv	s3,s11
   121b8:	04600793          	li	a5,70
   121bc:	01340633          	add	a2,s0,s3
   121c0:	bafd18e3          	bne	s10,a5,11d70 <_vfprintf_r+0x117c>
   121c4:	00044703          	lbu	a4,0(s0)
   121c8:	03000793          	li	a5,48
   121cc:	28f70a63          	beq	a4,a5,12460 <_vfprintf_r+0x186c>
   121d0:	07412983          	lw	s3,116(sp)
   121d4:	01360633          	add	a2,a2,s3
   121d8:	b99ff06f          	j	11d70 <_vfprintf_r+0x117c>
   121dc:	00600713          	li	a4,6
   121e0:	000d8793          	mv	a5,s11
   121e4:	01b77463          	bleu	s11,a4,121ec <_vfprintf_r+0x15f8>
   121e8:	00070793          	mv	a5,a4
   121ec:	fff7c993          	not	s3,a5
   121f0:	41f9d993          	srai	s3,s3,0x1f
   121f4:	0137f9b3          	and	s3,a5,s3
   121f8:	0001b437          	lui	s0,0x1b
   121fc:	02f12423          	sw	a5,40(sp)
   12200:	03312223          	sw	s3,36(sp)
   12204:	03a12623          	sw	s10,44(sp)
   12208:	2a040413          	addi	s0,s0,672 # 1b2a0 <__clz_tab+0x160>
   1220c:	9bcff06f          	j	113c8 <_vfprintf_r+0x7d4>
   12210:	ffec8c93          	addi	s9,s9,-2
   12214:	fff78793          	addi	a5,a5,-1
   12218:	06f12a23          	sw	a5,116(sp)
   1221c:	07910e23          	sb	s9,124(sp)
   12220:	2807c263          	bltz	a5,124a4 <_vfprintf_r+0x18b0>
   12224:	02b00713          	li	a4,43
   12228:	06e10ea3          	sb	a4,125(sp)
   1222c:	00900593          	li	a1,9
   12230:	24f5d663          	ble	a5,a1,1247c <_vfprintf_r+0x1888>
   12234:	08b10513          	addi	a0,sp,139
   12238:	00050713          	mv	a4,a0
   1223c:	00a00813          	li	a6,10
   12240:	0307e633          	rem	a2,a5,a6
   12244:	fff70713          	addi	a4,a4,-1
   12248:	0307c7b3          	div	a5,a5,a6
   1224c:	03060613          	addi	a2,a2,48
   12250:	00c70023          	sb	a2,0(a4)
   12254:	fef5c6e3          	blt	a1,a5,12240 <_vfprintf_r+0x164c>
   12258:	03078793          	addi	a5,a5,48
   1225c:	0ff7f793          	andi	a5,a5,255
   12260:	fff70613          	addi	a2,a4,-1
   12264:	fef70fa3          	sb	a5,-1(a4)
   12268:	2ca67463          	bleu	a0,a2,12530 <_vfprintf_r+0x193c>
   1226c:	07e10593          	addi	a1,sp,126
   12270:	0080006f          	j	12278 <_vfprintf_r+0x1684>
   12274:	00064783          	lbu	a5,0(a2)
   12278:	00158593          	addi	a1,a1,1
   1227c:	00160613          	addi	a2,a2,1
   12280:	fef58fa3          	sb	a5,-1(a1)
   12284:	fea618e3          	bne	a2,a0,12274 <_vfprintf_r+0x1680>
   12288:	08c10793          	addi	a5,sp,140
   1228c:	40e78733          	sub	a4,a5,a4
   12290:	07e10593          	addi	a1,sp,126
   12294:	00e58733          	add	a4,a1,a4
   12298:	07c10793          	addi	a5,sp,124
   1229c:	40f707b3          	sub	a5,a4,a5
   122a0:	04812703          	lw	a4,72(sp)
   122a4:	04812883          	lw	a7,72(sp)
   122a8:	04f12a23          	sw	a5,84(sp)
   122ac:	00f70733          	add	a4,a4,a5
   122b0:	00100793          	li	a5,1
   122b4:	02e12423          	sw	a4,40(sp)
   122b8:	2517dc63          	ble	a7,a5,12510 <_vfprintf_r+0x191c>
   122bc:	02812703          	lw	a4,40(sp)
   122c0:	00170713          	addi	a4,a4,1
   122c4:	02e12423          	sw	a4,40(sp)
   122c8:	fff74993          	not	s3,a4
   122cc:	41f9d993          	srai	s3,s3,0x1f
   122d0:	013779b3          	and	s3,a4,s3
   122d4:	03312223          	sw	s3,36(sp)
   122d8:	b1dff06f          	j	11df4 <_vfprintf_r+0x1200>
   122dc:	02d00793          	li	a5,45
   122e0:	06f107a3          	sb	a5,111(sp)
   122e4:	02d00513          	li	a0,45
   122e8:	ae4ff06f          	j	115cc <_vfprintf_r+0x9d8>
   122ec:	06f14503          	lbu	a0,111(sp)
   122f0:	00048a13          	mv	s4,s1
   122f4:	04012023          	sw	zero,64(sp)
   122f8:	bb1fe06f          	j	10ea8 <_vfprintf_r+0x2b4>
   122fc:	0001b437          	lui	s0,0x1b
   12300:	27440413          	addi	s0,s0,628 # 1b274 <__clz_tab+0x134>
   12304:	d61ff06f          	j	12064 <_vfprintf_r+0x1470>
   12308:	07412783          	lw	a5,116(sp)
   1230c:	ffd00713          	li	a4,-3
   12310:	f0e7c0e3          	blt	a5,a4,12210 <_vfprintf_r+0x161c>
   12314:	eefdcee3          	blt	s11,a5,12210 <_vfprintf_r+0x161c>
   12318:	02f12423          	sw	a5,40(sp)
   1231c:	06700c93          	li	s9,103
   12320:	aa5ff06f          	j	11dc4 <_vfprintf_r+0x11d0>
   12324:	000a8513          	mv	a0,s5
   12328:	00090593          	mv	a1,s2
   1232c:	08c10613          	addi	a2,sp,140
   12330:	4a8040ef          	jal	167d8 <__sprint_r>
   12334:	00050463          	beqz	a0,1233c <_vfprintf_r+0x1748>
   12338:	800ff06f          	j	11338 <_vfprintf_r+0x744>
   1233c:	07412c83          	lw	s9,116(sp)
   12340:	09412703          	lw	a4,148(sp)
   12344:	000b8693          	mv	a3,s7
   12348:	829ff06f          	j	11b70 <_vfprintf_r+0xf7c>
   1234c:	000a8513          	mv	a0,s5
   12350:	00090593          	mv	a1,s2
   12354:	08c10613          	addi	a2,sp,140
   12358:	480040ef          	jal	167d8 <__sprint_r>
   1235c:	00050463          	beqz	a0,12364 <_vfprintf_r+0x1770>
   12360:	fd9fe06f          	j	11338 <_vfprintf_r+0x744>
   12364:	07412c83          	lw	s9,116(sp)
   12368:	09412703          	lw	a4,148(sp)
   1236c:	09012783          	lw	a5,144(sp)
   12370:	000b8693          	mv	a3,s7
   12374:	b59ff06f          	j	11ecc <_vfprintf_r+0x12d8>
   12378:	000a8513          	mv	a0,s5
   1237c:	00090593          	mv	a1,s2
   12380:	08c10613          	addi	a2,sp,140
   12384:	454040ef          	jal	167d8 <__sprint_r>
   12388:	00050463          	beqz	a0,12390 <_vfprintf_r+0x179c>
   1238c:	fadfe06f          	j	11338 <_vfprintf_r+0x744>
   12390:	07412c83          	lw	s9,116(sp)
   12394:	09412703          	lw	a4,148(sp)
   12398:	09012783          	lw	a5,144(sp)
   1239c:	000b8693          	mv	a3,s7
   123a0:	af9ff06f          	j	11e98 <_vfprintf_r+0x12a4>
   123a4:	03b12223          	sw	s11,36(sp)
   123a8:	06f14503          	lbu	a0,111(sp)
   123ac:	03b12423          	sw	s11,40(sp)
   123b0:	03a12623          	sw	s10,44(sp)
   123b4:	04012023          	sw	zero,64(sp)
   123b8:	af1fe06f          	j	10ea8 <_vfprintf_r+0x2b4>
   123bc:	000a8513          	mv	a0,s5
   123c0:	00090593          	mv	a1,s2
   123c4:	08c10613          	addi	a2,sp,140
   123c8:	410040ef          	jal	167d8 <__sprint_r>
   123cc:	00050463          	beqz	a0,123d4 <_vfprintf_r+0x17e0>
   123d0:	f69fe06f          	j	11338 <_vfprintf_r+0x744>
   123d4:	07412c83          	lw	s9,116(sp)
   123d8:	09412703          	lw	a4,148(sp)
   123dc:	09012783          	lw	a5,144(sp)
   123e0:	000b8693          	mv	a3,s7
   123e4:	c05ff06f          	j	11fe8 <_vfprintf_r+0x13f4>
   123e8:	900d96e3          	bnez	s11,11cf4 <_vfprintf_r+0x1100>
   123ec:	00040d93          	mv	s11,s0
   123f0:	905ff06f          	j	11cf4 <_vfprintf_r+0x1100>
   123f4:	00600d93          	li	s11,6
   123f8:	8fdff06f          	j	11cf4 <_vfprintf_r+0x1100>
   123fc:	02d00293          	li	t0,45
   12400:	229494d3          	fneg.d	fs1,fs1
   12404:	02512a23          	sw	t0,52(sp)
   12408:	901ff06f          	j	11d08 <_vfprintf_r+0x1114>
   1240c:	02812283          	lw	t0,40(sp)
   12410:	00100793          	li	a5,1
   12414:	10505463          	blez	t0,1251c <_vfprintf_r+0x1928>
   12418:	04812703          	lw	a4,72(sp)
   1241c:	00e787b3          	add	a5,a5,a4
   12420:	fff7c993          	not	s3,a5
   12424:	41f9d993          	srai	s3,s3,0x1f
   12428:	0137f9b3          	and	s3,a5,s3
   1242c:	02f12423          	sw	a5,40(sp)
   12430:	03312223          	sw	s3,36(sp)
   12434:	9c1ff06f          	j	11df4 <_vfprintf_r+0x1200>
   12438:	07412883          	lw	a7,116(sp)
   1243c:	03112423          	sw	a7,40(sp)
   12440:	07105a63          	blez	a7,124b4 <_vfprintf_r+0x18c0>
   12444:	040d9863          	bnez	s11,12494 <_vfprintf_r+0x18a0>
   12448:	01fa1293          	slli	t0,s4,0x1f
   1244c:	0402c463          	bltz	t0,12494 <_vfprintf_r+0x18a0>
   12450:	03112223          	sw	a7,36(sp)
   12454:	9a1ff06f          	j	11df4 <_vfprintf_r+0x1200>
   12458:	08412783          	lw	a5,132(sp)
   1245c:	941ff06f          	j	11d9c <_vfprintf_r+0x11a8>
   12460:	a284a7d3          	feq.d	a5,fs1,fs0
   12464:	d60796e3          	bnez	a5,121d0 <_vfprintf_r+0x15dc>
   12468:	00100793          	li	a5,1
   1246c:	413789b3          	sub	s3,a5,s3
   12470:	07312a23          	sw	s3,116(sp)
   12474:	01360633          	add	a2,a2,s3
   12478:	8f9ff06f          	j	11d70 <_vfprintf_r+0x117c>
   1247c:	03000713          	li	a4,48
   12480:	03078793          	addi	a5,a5,48
   12484:	06e10f23          	sb	a4,126(sp)
   12488:	06f10fa3          	sb	a5,127(sp)
   1248c:	08010713          	addi	a4,sp,128
   12490:	e09ff06f          	j	12298 <_vfprintf_r+0x16a4>
   12494:	02812703          	lw	a4,40(sp)
   12498:	001d8793          	addi	a5,s11,1
   1249c:	00f70733          	add	a4,a4,a5
   124a0:	e25ff06f          	j	122c4 <_vfprintf_r+0x16d0>
   124a4:	02d00713          	li	a4,45
   124a8:	40f007b3          	neg	a5,a5
   124ac:	06e10ea3          	sb	a4,125(sp)
   124b0:	d7dff06f          	j	1222c <_vfprintf_r+0x1638>
   124b4:	000d9c63          	bnez	s11,124cc <_vfprintf_r+0x18d8>
   124b8:	00100793          	li	a5,1
   124bc:	01fa1893          	slli	a7,s4,0x1f
   124c0:	02f12223          	sw	a5,36(sp)
   124c4:	02f12423          	sw	a5,40(sp)
   124c8:	9208d6e3          	bgez	a7,11df4 <_vfprintf_r+0x1200>
   124cc:	002d8d93          	addi	s11,s11,2
   124d0:	fffdc993          	not	s3,s11
   124d4:	41f9d993          	srai	s3,s3,0x1f
   124d8:	013df9b3          	and	s3,s11,s3
   124dc:	03b12423          	sw	s11,40(sp)
   124e0:	03312223          	sw	s3,36(sp)
   124e4:	911ff06f          	j	11df4 <_vfprintf_r+0x1200>
   124e8:	fff00413          	li	s0,-1
   124ec:	db1fe06f          	j	1129c <_vfprintf_r+0x6a8>
   124f0:	02c12283          	lw	t0,44(sp)
   124f4:	0002ad83          	lw	s11,0(t0)
   124f8:	00428293          	addi	t0,t0,4
   124fc:	02512623          	sw	t0,44(sp)
   12500:	000dc463          	bltz	s11,12508 <_vfprintf_r+0x1914>
   12504:	8a1fe06f          	j	10da4 <_vfprintf_r+0x1b0>
   12508:	fff00d93          	li	s11,-1
   1250c:	899fe06f          	j	10da4 <_vfprintf_r+0x1b0>
   12510:	01fa1293          	slli	t0,s4,0x1f
   12514:	da02dae3          	bgez	t0,122c8 <_vfprintf_r+0x16d4>
   12518:	da5ff06f          	j	122bc <_vfprintf_r+0x16c8>
   1251c:	00200793          	li	a5,2
   12520:	405787b3          	sub	a5,a5,t0
   12524:	ef5ff06f          	j	12418 <_vfprintf_r+0x1824>
   12528:	07412783          	lw	a5,116(sp)
   1252c:	ce9ff06f          	j	12214 <_vfprintf_r+0x1620>
   12530:	07e10713          	addi	a4,sp,126
   12534:	d65ff06f          	j	12298 <_vfprintf_r+0x16a4>

00012538 <vfprintf>:
   12538:	00050713          	mv	a4,a0
   1253c:	8081a503          	lw	a0,-2040(gp) # 1cd88 <_impure_ptr>
   12540:	00058793          	mv	a5,a1
   12544:	00060693          	mv	a3,a2
   12548:	00070593          	mv	a1,a4
   1254c:	00078613          	mv	a2,a5
   12550:	ea4fe06f          	j	10bf4 <_vfprintf_r>

00012554 <__swsetup_r>:
   12554:	8081a783          	lw	a5,-2040(gp) # 1cd88 <_impure_ptr>
   12558:	ff010113          	addi	sp,sp,-16
   1255c:	00812423          	sw	s0,8(sp)
   12560:	00912223          	sw	s1,4(sp)
   12564:	00112623          	sw	ra,12(sp)
   12568:	00050493          	mv	s1,a0
   1256c:	00058413          	mv	s0,a1
   12570:	00078663          	beqz	a5,1257c <__swsetup_r+0x28>
   12574:	0387a703          	lw	a4,56(a5)
   12578:	0c070863          	beqz	a4,12648 <__swsetup_r+0xf4>
   1257c:	00c41703          	lh	a4,12(s0)
   12580:	01071793          	slli	a5,a4,0x10
   12584:	0107d793          	srli	a5,a5,0x10
   12588:	0087f693          	andi	a3,a5,8
   1258c:	04068263          	beqz	a3,125d0 <__swsetup_r+0x7c>
   12590:	01042683          	lw	a3,16(s0)
   12594:	06068263          	beqz	a3,125f8 <__swsetup_r+0xa4>
   12598:	01f79713          	slli	a4,a5,0x1f
   1259c:	08074063          	bltz	a4,1261c <__swsetup_r+0xc8>
   125a0:	0027f793          	andi	a5,a5,2
   125a4:	00000713          	li	a4,0
   125a8:	00079463          	bnez	a5,125b0 <__swsetup_r+0x5c>
   125ac:	01442703          	lw	a4,20(s0)
   125b0:	00e42423          	sw	a4,8(s0)
   125b4:	00000513          	li	a0,0
   125b8:	06068e63          	beqz	a3,12634 <__swsetup_r+0xe0>
   125bc:	00c12083          	lw	ra,12(sp)
   125c0:	00812403          	lw	s0,8(sp)
   125c4:	00412483          	lw	s1,4(sp)
   125c8:	01010113          	addi	sp,sp,16
   125cc:	00008067          	ret
   125d0:	0107f693          	andi	a3,a5,16
   125d4:	0a068a63          	beqz	a3,12688 <__swsetup_r+0x134>
   125d8:	0047f793          	andi	a5,a5,4
   125dc:	06079c63          	bnez	a5,12654 <__swsetup_r+0x100>
   125e0:	01042683          	lw	a3,16(s0)
   125e4:	00876793          	ori	a5,a4,8
   125e8:	00f41623          	sh	a5,12(s0)
   125ec:	01079793          	slli	a5,a5,0x10
   125f0:	0107d793          	srli	a5,a5,0x10
   125f4:	fa0692e3          	bnez	a3,12598 <__swsetup_r+0x44>
   125f8:	2807f613          	andi	a2,a5,640
   125fc:	20000713          	li	a4,512
   12600:	f8e60ce3          	beq	a2,a4,12598 <__swsetup_r+0x44>
   12604:	00048513          	mv	a0,s1
   12608:	00040593          	mv	a1,s0
   1260c:	220020ef          	jal	1482c <__smakebuf_r>
   12610:	00c45783          	lhu	a5,12(s0)
   12614:	01042683          	lw	a3,16(s0)
   12618:	f81ff06f          	j	12598 <__swsetup_r+0x44>
   1261c:	01442783          	lw	a5,20(s0)
   12620:	00042423          	sw	zero,8(s0)
   12624:	00000513          	li	a0,0
   12628:	40f007b3          	neg	a5,a5
   1262c:	00f42c23          	sw	a5,24(s0)
   12630:	f80696e3          	bnez	a3,125bc <__swsetup_r+0x68>
   12634:	00c45783          	lhu	a5,12(s0)
   12638:	0807f793          	andi	a5,a5,128
   1263c:	04079663          	bnez	a5,12688 <__swsetup_r+0x134>
   12640:	00068513          	mv	a0,a3
   12644:	f79ff06f          	j	125bc <__swsetup_r+0x68>
   12648:	00078513          	mv	a0,a5
   1264c:	3c5010ef          	jal	14210 <__sinit>
   12650:	f2dff06f          	j	1257c <__swsetup_r+0x28>
   12654:	03042583          	lw	a1,48(s0)
   12658:	00058e63          	beqz	a1,12674 <__swsetup_r+0x120>
   1265c:	04040793          	addi	a5,s0,64
   12660:	00f58863          	beq	a1,a5,12670 <__swsetup_r+0x11c>
   12664:	00048513          	mv	a0,s1
   12668:	4e9010ef          	jal	14350 <_free_r>
   1266c:	00c41703          	lh	a4,12(s0)
   12670:	02042823          	sw	zero,48(s0)
   12674:	01042683          	lw	a3,16(s0)
   12678:	fdb77713          	andi	a4,a4,-37
   1267c:	00042223          	sw	zero,4(s0)
   12680:	00d42023          	sw	a3,0(s0)
   12684:	f61ff06f          	j	125e4 <__swsetup_r+0x90>
   12688:	fff00513          	li	a0,-1
   1268c:	f31ff06f          	j	125bc <__swsetup_r+0x68>

00012690 <__register_exitproc>:
   12690:	fe010113          	addi	sp,sp,-32
   12694:	00812c23          	sw	s0,24(sp)
   12698:	8041a403          	lw	s0,-2044(gp) # 1cd84 <_global_impure_ptr>
   1269c:	00912a23          	sw	s1,20(sp)
   126a0:	00112e23          	sw	ra,28(sp)
   126a4:	14842783          	lw	a5,328(s0)
   126a8:	00050493          	mv	s1,a0
   126ac:	0c078863          	beqz	a5,1277c <__register_exitproc+0xec>
   126b0:	0047a703          	lw	a4,4(a5)
   126b4:	01f00513          	li	a0,31
   126b8:	02e54a63          	blt	a0,a4,126ec <__register_exitproc+0x5c>
   126bc:	00170513          	addi	a0,a4,1
   126c0:	00271813          	slli	a6,a4,0x2
   126c4:	08049063          	bnez	s1,12744 <__register_exitproc+0xb4>
   126c8:	01078833          	add	a6,a5,a6
   126cc:	00a7a223          	sw	a0,4(a5)
   126d0:	00000513          	li	a0,0
   126d4:	00b82423          	sw	a1,8(a6)
   126d8:	01c12083          	lw	ra,28(sp)
   126dc:	01812403          	lw	s0,24(sp)
   126e0:	01412483          	lw	s1,20(sp)
   126e4:	02010113          	addi	sp,sp,32
   126e8:	00008067          	ret
   126ec:	00000793          	li	a5,0
   126f0:	08078c63          	beqz	a5,12788 <__register_exitproc+0xf8>
   126f4:	19000513          	li	a0,400
   126f8:	00b12623          	sw	a1,12(sp)
   126fc:	00c12423          	sw	a2,8(sp)
   12700:	00d12223          	sw	a3,4(sp)
   12704:	8fded0ef          	jal	0 <_ftext-0x10000>
   12708:	00050793          	mv	a5,a0
   1270c:	00c12583          	lw	a1,12(sp)
   12710:	00812603          	lw	a2,8(sp)
   12714:	00412683          	lw	a3,4(sp)
   12718:	06050863          	beqz	a0,12788 <__register_exitproc+0xf8>
   1271c:	14842703          	lw	a4,328(s0)
   12720:	00052223          	sw	zero,4(a0)
   12724:	00100513          	li	a0,1
   12728:	00e7a023          	sw	a4,0(a5)
   1272c:	00000713          	li	a4,0
   12730:	14f42423          	sw	a5,328(s0)
   12734:	00271813          	slli	a6,a4,0x2
   12738:	1807a423          	sw	zero,392(a5)
   1273c:	1807a623          	sw	zero,396(a5)
   12740:	f80484e3          	beqz	s1,126c8 <__register_exitproc+0x38>
   12744:	010782b3          	add	t0,a5,a6
   12748:	08c2a423          	sw	a2,136(t0)
   1274c:	1887a883          	lw	a7,392(a5)
   12750:	00100613          	li	a2,1
   12754:	00e61733          	sll	a4,a2,a4
   12758:	00e8e633          	or	a2,a7,a4
   1275c:	18c7a423          	sw	a2,392(a5)
   12760:	10d2a423          	sw	a3,264(t0)
   12764:	00200693          	li	a3,2
   12768:	f6d490e3          	bne	s1,a3,126c8 <__register_exitproc+0x38>
   1276c:	18c7a683          	lw	a3,396(a5)
   12770:	00e6e733          	or	a4,a3,a4
   12774:	18e7a623          	sw	a4,396(a5)
   12778:	f51ff06f          	j	126c8 <__register_exitproc+0x38>
   1277c:	14c40793          	addi	a5,s0,332
   12780:	14f42423          	sw	a5,328(s0)
   12784:	f2dff06f          	j	126b0 <__register_exitproc+0x20>
   12788:	fff00513          	li	a0,-1
   1278c:	f4dff06f          	j	126d8 <__register_exitproc+0x48>

00012790 <__call_exitprocs>:
   12790:	fc010113          	addi	sp,sp,-64
   12794:	03612023          	sw	s6,32(sp)
   12798:	8041ab03          	lw	s6,-2044(gp) # 1cd84 <_global_impure_ptr>
   1279c:	03512223          	sw	s5,36(sp)
   127a0:	03212823          	sw	s2,48(sp)
   127a4:	03412423          	sw	s4,40(sp)
   127a8:	01712e23          	sw	s7,28(sp)
   127ac:	01812c23          	sw	s8,24(sp)
   127b0:	01912a23          	sw	s9,20(sp)
   127b4:	02112e23          	sw	ra,60(sp)
   127b8:	02812c23          	sw	s0,56(sp)
   127bc:	02912a23          	sw	s1,52(sp)
   127c0:	03312623          	sw	s3,44(sp)
   127c4:	01a12823          	sw	s10,16(sp)
   127c8:	01b12623          	sw	s11,12(sp)
   127cc:	00050a13          	mv	s4,a0
   127d0:	00058913          	mv	s2,a1
   127d4:	148b0b93          	addi	s7,s6,328
   127d8:	00100c13          	li	s8,1
   127dc:	fff00c93          	li	s9,-1
   127e0:	00000a93          	li	s5,0
   127e4:	148b2983          	lw	s3,328(s6)
   127e8:	04098e63          	beqz	s3,12844 <__call_exitprocs+0xb4>
   127ec:	000b8d93          	mv	s11,s7
   127f0:	0049a403          	lw	s0,4(s3)
   127f4:	00241493          	slli	s1,s0,0x2
   127f8:	fff40413          	addi	s0,s0,-1
   127fc:	009984b3          	add	s1,s3,s1
   12800:	00044e63          	bltz	s0,1281c <__call_exitprocs+0x8c>
   12804:	06090e63          	beqz	s2,12880 <__call_exitprocs+0xf0>
   12808:	1044a783          	lw	a5,260(s1)
   1280c:	07278a63          	beq	a5,s2,12880 <__call_exitprocs+0xf0>
   12810:	fff40413          	addi	s0,s0,-1
   12814:	ffc48493          	addi	s1,s1,-4
   12818:	ff9416e3          	bne	s0,s9,12804 <__call_exitprocs+0x74>
   1281c:	020a8463          	beqz	s5,12844 <__call_exitprocs+0xb4>
   12820:	0049a783          	lw	a5,4(s3)
   12824:	0c079863          	bnez	a5,128f4 <__call_exitprocs+0x164>
   12828:	0009a783          	lw	a5,0(s3)
   1282c:	0c078e63          	beqz	a5,12908 <__call_exitprocs+0x178>
   12830:	00098513          	mv	a0,s3
   12834:	00fda023          	sw	a5,0(s11)
   12838:	fc8ed0ef          	jal	0 <_ftext-0x10000>
   1283c:	000da983          	lw	s3,0(s11)
   12840:	fa0998e3          	bnez	s3,127f0 <__call_exitprocs+0x60>
   12844:	03c12083          	lw	ra,60(sp)
   12848:	03812403          	lw	s0,56(sp)
   1284c:	03412483          	lw	s1,52(sp)
   12850:	03012903          	lw	s2,48(sp)
   12854:	02c12983          	lw	s3,44(sp)
   12858:	02812a03          	lw	s4,40(sp)
   1285c:	02412a83          	lw	s5,36(sp)
   12860:	02012b03          	lw	s6,32(sp)
   12864:	01c12b83          	lw	s7,28(sp)
   12868:	01812c03          	lw	s8,24(sp)
   1286c:	01412c83          	lw	s9,20(sp)
   12870:	01012d03          	lw	s10,16(sp)
   12874:	00c12d83          	lw	s11,12(sp)
   12878:	04010113          	addi	sp,sp,64
   1287c:	00008067          	ret
   12880:	0049a783          	lw	a5,4(s3)
   12884:	0044a703          	lw	a4,4(s1)
   12888:	fff78793          	addi	a5,a5,-1
   1288c:	04878a63          	beq	a5,s0,128e0 <__call_exitprocs+0x150>
   12890:	0004a223          	sw	zero,4(s1)
   12894:	f6070ee3          	beqz	a4,12810 <__call_exitprocs+0x80>
   12898:	1889a783          	lw	a5,392(s3)
   1289c:	008c16b3          	sll	a3,s8,s0
   128a0:	0049ad03          	lw	s10,4(s3)
   128a4:	00f6f7b3          	and	a5,a3,a5
   128a8:	00079e63          	bnez	a5,128c4 <__call_exitprocs+0x134>
   128ac:	000700e7          	jalr	a4
   128b0:	0049a783          	lw	a5,4(s3)
   128b4:	f3a798e3          	bne	a5,s10,127e4 <__call_exitprocs+0x54>
   128b8:	000da783          	lw	a5,0(s11)
   128bc:	f5378ae3          	beq	a5,s3,12810 <__call_exitprocs+0x80>
   128c0:	f25ff06f          	j	127e4 <__call_exitprocs+0x54>
   128c4:	18c9a783          	lw	a5,396(s3)
   128c8:	00f6f7b3          	and	a5,a3,a5
   128cc:	00079e63          	bnez	a5,128e8 <__call_exitprocs+0x158>
   128d0:	0844a583          	lw	a1,132(s1)
   128d4:	000a0513          	mv	a0,s4
   128d8:	000700e7          	jalr	a4
   128dc:	fd5ff06f          	j	128b0 <__call_exitprocs+0x120>
   128e0:	0089a223          	sw	s0,4(s3)
   128e4:	fb1ff06f          	j	12894 <__call_exitprocs+0x104>
   128e8:	0844a503          	lw	a0,132(s1)
   128ec:	000700e7          	jalr	a4
   128f0:	fc1ff06f          	j	128b0 <__call_exitprocs+0x120>
   128f4:	0009a783          	lw	a5,0(s3)
   128f8:	00098d93          	mv	s11,s3
   128fc:	00078993          	mv	s3,a5
   12900:	ee0998e3          	bnez	s3,127f0 <__call_exitprocs+0x60>
   12904:	f41ff06f          	j	12844 <__call_exitprocs+0xb4>
   12908:	00000793          	li	a5,0
   1290c:	fedff06f          	j	128f8 <__call_exitprocs+0x168>

00012910 <quorem>:
   12910:	fe010113          	addi	sp,sp,-32
   12914:	01212823          	sw	s2,16(sp)
   12918:	01052783          	lw	a5,16(a0)
   1291c:	0105a903          	lw	s2,16(a1)
   12920:	00112e23          	sw	ra,28(sp)
   12924:	00812c23          	sw	s0,24(sp)
   12928:	00912a23          	sw	s1,20(sp)
   1292c:	01312623          	sw	s3,12(sp)
   12930:	01412423          	sw	s4,8(sp)
   12934:	01512223          	sw	s5,4(sp)
   12938:	1b27cc63          	blt	a5,s2,12af0 <quorem+0x1e0>
   1293c:	fff90913          	addi	s2,s2,-1
   12940:	00291e13          	slli	t3,s2,0x2
   12944:	01458413          	addi	s0,a1,20
   12948:	01c409b3          	add	s3,s0,t3
   1294c:	01450a13          	addi	s4,a0,20
   12950:	01ca0e33          	add	t3,s4,t3
   12954:	0009a783          	lw	a5,0(s3)
   12958:	000e2483          	lw	s1,0(t3)
   1295c:	00178793          	addi	a5,a5,1
   12960:	02f4d4b3          	divu	s1,s1,a5
   12964:	0a048e63          	beqz	s1,12a20 <quorem+0x110>
   12968:	000102b7          	lui	t0,0x10
   1296c:	00040393          	mv	t2,s0
   12970:	000a0313          	mv	t1,s4
   12974:	00000813          	li	a6,0
   12978:	00000793          	li	a5,0
   1297c:	fff28293          	addi	t0,t0,-1 # ffff <_ftext-0x1>
   12980:	00438393          	addi	t2,t2,4
   12984:	ffc3a883          	lw	a7,-4(t2)
   12988:	00032703          	lw	a4,0(t1)
   1298c:	00430313          	addi	t1,t1,4
   12990:	0058f633          	and	a2,a7,t0
   12994:	02c48633          	mul	a2,s1,a2
   12998:	0108d893          	srli	a7,a7,0x10
   1299c:	00577eb3          	and	t4,a4,t0
   129a0:	01075713          	srli	a4,a4,0x10
   129a4:	031488b3          	mul	a7,s1,a7
   129a8:	00c80633          	add	a2,a6,a2
   129ac:	005676b3          	and	a3,a2,t0
   129b0:	01065813          	srli	a6,a2,0x10
   129b4:	40d787b3          	sub	a5,a5,a3
   129b8:	01d786b3          	add	a3,a5,t4
   129bc:	4106de93          	srai	t4,a3,0x10
   129c0:	0056f6b3          	and	a3,a3,t0
   129c4:	01180633          	add	a2,a6,a7
   129c8:	005677b3          	and	a5,a2,t0
   129cc:	40f70733          	sub	a4,a4,a5
   129d0:	01d707b3          	add	a5,a4,t4
   129d4:	01079713          	slli	a4,a5,0x10
   129d8:	00d766b3          	or	a3,a4,a3
   129dc:	01065813          	srli	a6,a2,0x10
   129e0:	4107d793          	srai	a5,a5,0x10
   129e4:	fed32e23          	sw	a3,-4(t1)
   129e8:	f879fce3          	bleu	t2,s3,12980 <quorem+0x70>
   129ec:	000e2783          	lw	a5,0(t3)
   129f0:	02079863          	bnez	a5,12a20 <quorem+0x110>
   129f4:	ffce0793          	addi	a5,t3,-4
   129f8:	02fa7263          	bleu	a5,s4,12a1c <quorem+0x10c>
   129fc:	ffce2703          	lw	a4,-4(t3)
   12a00:	00070863          	beqz	a4,12a10 <quorem+0x100>
   12a04:	0180006f          	j	12a1c <quorem+0x10c>
   12a08:	0007a703          	lw	a4,0(a5)
   12a0c:	00071863          	bnez	a4,12a1c <quorem+0x10c>
   12a10:	ffc78793          	addi	a5,a5,-4
   12a14:	fff90913          	addi	s2,s2,-1
   12a18:	fefa68e3          	bltu	s4,a5,12a08 <quorem+0xf8>
   12a1c:	01252823          	sw	s2,16(a0)
   12a20:	00050a93          	mv	s5,a0
   12a24:	280030ef          	jal	15ca4 <__mcmp>
   12a28:	0a054063          	bltz	a0,12ac8 <quorem+0x1b8>
   12a2c:	00010837          	lui	a6,0x10
   12a30:	00148493          	addi	s1,s1,1
   12a34:	000a0593          	mv	a1,s4
   12a38:	00000793          	li	a5,0
   12a3c:	fff80813          	addi	a6,a6,-1 # ffff <_ftext-0x1>
   12a40:	00440413          	addi	s0,s0,4
   12a44:	ffc42603          	lw	a2,-4(s0)
   12a48:	0005a703          	lw	a4,0(a1)
   12a4c:	00458593          	addi	a1,a1,4
   12a50:	010676b3          	and	a3,a2,a6
   12a54:	40d787b3          	sub	a5,a5,a3
   12a58:	010776b3          	and	a3,a4,a6
   12a5c:	00d786b3          	add	a3,a5,a3
   12a60:	01075713          	srli	a4,a4,0x10
   12a64:	01065793          	srli	a5,a2,0x10
   12a68:	40f70733          	sub	a4,a4,a5
   12a6c:	4106d793          	srai	a5,a3,0x10
   12a70:	00f707b3          	add	a5,a4,a5
   12a74:	01079713          	slli	a4,a5,0x10
   12a78:	0106f6b3          	and	a3,a3,a6
   12a7c:	00d766b3          	or	a3,a4,a3
   12a80:	4107d793          	srai	a5,a5,0x10
   12a84:	fed5ae23          	sw	a3,-4(a1)
   12a88:	fa89fce3          	bleu	s0,s3,12a40 <quorem+0x130>
   12a8c:	00291713          	slli	a4,s2,0x2
   12a90:	00ea0733          	add	a4,s4,a4
   12a94:	00072783          	lw	a5,0(a4)
   12a98:	02079863          	bnez	a5,12ac8 <quorem+0x1b8>
   12a9c:	ffc70793          	addi	a5,a4,-4
   12aa0:	02fa7263          	bleu	a5,s4,12ac4 <quorem+0x1b4>
   12aa4:	ffc72703          	lw	a4,-4(a4)
   12aa8:	00070863          	beqz	a4,12ab8 <quorem+0x1a8>
   12aac:	0180006f          	j	12ac4 <quorem+0x1b4>
   12ab0:	0007a703          	lw	a4,0(a5)
   12ab4:	00071863          	bnez	a4,12ac4 <quorem+0x1b4>
   12ab8:	ffc78793          	addi	a5,a5,-4
   12abc:	fff90913          	addi	s2,s2,-1
   12ac0:	fefa68e3          	bltu	s4,a5,12ab0 <quorem+0x1a0>
   12ac4:	012aa823          	sw	s2,16(s5)
   12ac8:	00048513          	mv	a0,s1
   12acc:	01c12083          	lw	ra,28(sp)
   12ad0:	01812403          	lw	s0,24(sp)
   12ad4:	01412483          	lw	s1,20(sp)
   12ad8:	01012903          	lw	s2,16(sp)
   12adc:	00c12983          	lw	s3,12(sp)
   12ae0:	00812a03          	lw	s4,8(sp)
   12ae4:	00412a83          	lw	s5,4(sp)
   12ae8:	02010113          	addi	sp,sp,32
   12aec:	00008067          	ret
   12af0:	00000513          	li	a0,0
   12af4:	fd9ff06f          	j	12acc <quorem+0x1bc>

00012af8 <_dtoa_r>:
   12af8:	04052683          	lw	a3,64(a0)
   12afc:	f5010113          	addi	sp,sp,-176
   12b00:	00c13827          	fsd	fa2,16(sp)
   12b04:	0a812423          	sw	s0,168(sp)
   12b08:	0b212023          	sw	s2,160(sp)
   12b0c:	09312e23          	sw	s3,156(sp)
   12b10:	09512a23          	sw	s5,148(sp)
   12b14:	09912223          	sw	s9,132(sp)
   12b18:	0a112623          	sw	ra,172(sp)
   12b1c:	0a912223          	sw	s1,164(sp)
   12b20:	09412c23          	sw	s4,152(sp)
   12b24:	09612823          	sw	s6,144(sp)
   12b28:	09712623          	sw	s7,140(sp)
   12b2c:	09812423          	sw	s8,136(sp)
   12b30:	09a12023          	sw	s10,128(sp)
   12b34:	07b12e23          	sw	s11,124(sp)
   12b38:	06813427          	fsd	fs0,104(sp)
   12b3c:	07213027          	fsd	fs2,96(sp)
   12b40:	05413c27          	fsd	fs4,88(sp)
   12b44:	05613827          	fsd	fs6,80(sp)
   12b48:	00050413          	mv	s0,a0
   12b4c:	00070a93          	mv	s5,a4
   12b50:	00078c93          	mv	s9,a5
   12b54:	01012e23          	sw	a6,28(sp)
   12b58:	01012903          	lw	s2,16(sp)
   12b5c:	01412983          	lw	s3,20(sp)
   12b60:	02068663          	beqz	a3,12b8c <_dtoa_r+0x94>
   12b64:	04452703          	lw	a4,68(a0)
   12b68:	00100793          	li	a5,1
   12b6c:	00068593          	mv	a1,a3
   12b70:	00e797b3          	sll	a5,a5,a4
   12b74:	00e6a223          	sw	a4,4(a3)
   12b78:	00f6a423          	sw	a5,8(a3)
   12b7c:	01112623          	sw	a7,12(sp)
   12b80:	109020ef          	jal	15488 <_Bfree>
   12b84:	00c12883          	lw	a7,12(sp)
   12b88:	04042023          	sw	zero,64(s0)
   12b8c:	00098493          	mv	s1,s3
   12b90:	0e09c263          	bltz	s3,12c74 <_dtoa_r+0x17c>
   12b94:	0008a023          	sw	zero,0(a7)
   12b98:	7ff007b7          	lui	a5,0x7ff00
   12b9c:	00f4f733          	and	a4,s1,a5
   12ba0:	08f70863          	beq	a4,a5,12c30 <_dtoa_r+0x138>
   12ba4:	01212823          	sw	s2,16(sp)
   12ba8:	01312a23          	sw	s3,20(sp)
   12bac:	01013087          	fld	ft1,16(sp)
   12bb0:	d2000053          	fcvt.d.w	ft0,zero
   12bb4:	a200a7d3          	feq.d	a5,ft1,ft0
   12bb8:	0c078c63          	beqz	a5,12c90 <_dtoa_r+0x198>
   12bbc:	01c12683          	lw	a3,28(sp)
   12bc0:	0b012703          	lw	a4,176(sp)
   12bc4:	00100793          	li	a5,1
   12bc8:	00f6a023          	sw	a5,0(a3)
   12bcc:	48070663          	beqz	a4,13058 <_dtoa_r+0x560>
   12bd0:	0001b7b7          	lui	a5,0x1b
   12bd4:	2a978793          	addi	a5,a5,681 # 1b2a9 <__clz_tab+0x169>
   12bd8:	0001b4b7          	lui	s1,0x1b
   12bdc:	00f72023          	sw	a5,0(a4)
   12be0:	2a848513          	addi	a0,s1,680 # 1b2a8 <__clz_tab+0x168>
   12be4:	0ac12083          	lw	ra,172(sp)
   12be8:	0a812403          	lw	s0,168(sp)
   12bec:	0a412483          	lw	s1,164(sp)
   12bf0:	0a012903          	lw	s2,160(sp)
   12bf4:	09c12983          	lw	s3,156(sp)
   12bf8:	09812a03          	lw	s4,152(sp)
   12bfc:	09412a83          	lw	s5,148(sp)
   12c00:	09012b03          	lw	s6,144(sp)
   12c04:	08c12b83          	lw	s7,140(sp)
   12c08:	08812c03          	lw	s8,136(sp)
   12c0c:	08412c83          	lw	s9,132(sp)
   12c10:	08012d03          	lw	s10,128(sp)
   12c14:	07c12d83          	lw	s11,124(sp)
   12c18:	06813407          	fld	fs0,104(sp)
   12c1c:	06013907          	fld	fs2,96(sp)
   12c20:	05813a07          	fld	fs4,88(sp)
   12c24:	05013b07          	fld	fs6,80(sp)
   12c28:	0b010113          	addi	sp,sp,176
   12c2c:	00008067          	ret
   12c30:	01c12683          	lw	a3,28(sp)
   12c34:	000027b7          	lui	a5,0x2
   12c38:	70f78793          	addi	a5,a5,1807 # 270f <_ftext-0xd8f1>
   12c3c:	00f6a023          	sw	a5,0(a3)
   12c40:	3c090c63          	beqz	s2,13018 <_dtoa_r+0x520>
   12c44:	0001b537          	lui	a0,0x1b
   12c48:	2b850493          	addi	s1,a0,696 # 1b2b8 <__clz_tab+0x178>
   12c4c:	0b012783          	lw	a5,176(sp)
   12c50:	5c078c63          	beqz	a5,13228 <_dtoa_r+0x730>
   12c54:	0034c703          	lbu	a4,3(s1)
   12c58:	00348793          	addi	a5,s1,3
   12c5c:	00070463          	beqz	a4,12c64 <_dtoa_r+0x16c>
   12c60:	00848793          	addi	a5,s1,8
   12c64:	0b012683          	lw	a3,176(sp)
   12c68:	00048513          	mv	a0,s1
   12c6c:	00f6a023          	sw	a5,0(a3)
   12c70:	f75ff06f          	j	12be4 <_dtoa_r+0xec>
   12c74:	800004b7          	lui	s1,0x80000
   12c78:	fff4c493          	not	s1,s1
   12c7c:	0134f4b3          	and	s1,s1,s3
   12c80:	00100793          	li	a5,1
   12c84:	00f8a023          	sw	a5,0(a7)
   12c88:	00048993          	mv	s3,s1
   12c8c:	f0dff06f          	j	12b98 <_dtoa_r+0xa0>
   12c90:	01013607          	fld	fa2,16(sp)
   12c94:	00040513          	mv	a0,s0
   12c98:	04c10713          	addi	a4,sp,76
   12c9c:	04810793          	addi	a5,sp,72
   12ca0:	3c4030ef          	jal	16064 <__d2b>
   12ca4:	0144d693          	srli	a3,s1,0x14
   12ca8:	00050a13          	mv	s4,a0
   12cac:	38069063          	bnez	a3,1302c <_dtoa_r+0x534>
   12cb0:	04812803          	lw	a6,72(sp)
   12cb4:	04c12603          	lw	a2,76(sp)
   12cb8:	bef00793          	li	a5,-1041
   12cbc:	00c80633          	add	a2,a6,a2
   12cc0:	0af644e3          	blt	a2,a5,13568 <_dtoa_r+0xa70>
   12cc4:	c0e00793          	li	a5,-1010
   12cc8:	40c787b3          	sub	a5,a5,a2
   12ccc:	41260713          	addi	a4,a2,1042
   12cd0:	00f494b3          	sll	s1,s1,a5
   12cd4:	00e95733          	srl	a4,s2,a4
   12cd8:	00e4e4b3          	or	s1,s1,a4
   12cdc:	d2148053          	fcvt.d.wu	ft0,s1
   12ce0:	00013027          	fsd	ft0,0(sp)
   12ce4:	00412783          	lw	a5,4(sp)
   12ce8:	00012703          	lw	a4,0(sp)
   12cec:	fe1006b7          	lui	a3,0xfe100
   12cf0:	00f687b3          	add	a5,a3,a5
   12cf4:	00100b13          	li	s6,1
   12cf8:	fff60693          	addi	a3,a2,-1
   12cfc:	00f12223          	sw	a5,4(sp)
   12d00:	00e12023          	sw	a4,0(sp)
   12d04:	8201b007          	fld	ft0,-2016(gp) # 1cda0 <__wctomb+0x8>
   12d08:	00013107          	fld	ft2,0(sp)
   12d0c:	0a0170d3          	fsub.d	ft1,ft2,ft0
   12d10:	8301b007          	fld	ft0,-2000(gp) # 1cdb0 <__wctomb+0x18>
   12d14:	8281b107          	fld	ft2,-2008(gp) # 1cda8 <__wctomb+0x10>
   12d18:	0220f043          	fmadd.d	ft0,ft1,ft2,ft0
   12d1c:	8381b107          	fld	ft2,-1992(gp) # 1cdb8 <__wctomb+0x20>
   12d20:	d20680d3          	fcvt.d.w	ft1,a3
   12d24:	0220f043          	fmadd.d	ft0,ft1,ft2,ft0
   12d28:	d20000d3          	fcvt.d.w	ft1,zero
   12d2c:	a21017d3          	flt.d	a5,ft0,ft1
   12d30:	c2001bd3          	fcvt.w.d	s7,ft0,rtz
   12d34:	4e079e63          	bnez	a5,13230 <_dtoa_r+0x738>
   12d38:	00100713          	li	a4,1
   12d3c:	01600793          	li	a5,22
   12d40:	02e12a23          	sw	a4,52(sp)
   12d44:	0377ea63          	bltu	a5,s7,12d78 <_dtoa_r+0x280>
   12d48:	0001b737          	lui	a4,0x1b
   12d4c:	003b9793          	slli	a5,s7,0x3
   12d50:	e7870713          	addi	a4,a4,-392 # 1ae78 <__mprec_tens>
   12d54:	00e787b3          	add	a5,a5,a4
   12d58:	01212023          	sw	s2,0(sp)
   12d5c:	01312223          	sw	s3,4(sp)
   12d60:	0007b007          	fld	ft0,0(a5)
   12d64:	00013087          	fld	ft1,0(sp)
   12d68:	a20097d3          	flt.d	a5,ft1,ft0
   12d6c:	7e078a63          	beqz	a5,13560 <_dtoa_r+0xa68>
   12d70:	fffb8b93          	addi	s7,s7,-1
   12d74:	02012a23          	sw	zero,52(sp)
   12d78:	40d806b3          	sub	a3,a6,a3
   12d7c:	fff68d13          	addi	s10,a3,-1 # fe0fffff <_gp+0xfe0e2a7f>
   12d80:	02012423          	sw	zero,40(sp)
   12d84:	2e0d4063          	bltz	s10,13064 <_dtoa_r+0x56c>
   12d88:	4a0bce63          	bltz	s7,13244 <_dtoa_r+0x74c>
   12d8c:	017d0d33          	add	s10,s10,s7
   12d90:	03712823          	sw	s7,48(sp)
   12d94:	00000c13          	li	s8,0
   12d98:	00900793          	li	a5,9
   12d9c:	2d57ec63          	bltu	a5,s5,13074 <_dtoa_r+0x57c>
   12da0:	00500793          	li	a5,5
   12da4:	00100893          	li	a7,1
   12da8:	0157d663          	ble	s5,a5,12db4 <_dtoa_r+0x2bc>
   12dac:	ffca8a93          	addi	s5,s5,-4
   12db0:	00000893          	li	a7,0
   12db4:	00300793          	li	a5,3
   12db8:	36fa84e3          	beq	s5,a5,13920 <_dtoa_r+0xe28>
   12dbc:	2557dae3          	ble	s5,a5,13810 <_dtoa_r+0xd18>
   12dc0:	00400793          	li	a5,4
   12dc4:	0cfa86e3          	beq	s5,a5,13690 <_dtoa_r+0xb98>
   12dc8:	00100793          	li	a5,1
   12dcc:	02f12623          	sw	a5,44(sp)
   12dd0:	00500793          	li	a5,5
   12dd4:	24fa94e3          	bne	s5,a5,1381c <_dtoa_r+0xd24>
   12dd8:	017c87b3          	add	a5,s9,s7
   12ddc:	00178713          	addi	a4,a5,1
   12de0:	02f12c23          	sw	a5,56(sp)
   12de4:	00e12823          	sw	a4,16(sp)
   12de8:	00070513          	mv	a0,a4
   12dec:	00070613          	mv	a2,a4
   12df0:	20e05ae3          	blez	a4,13804 <_dtoa_r+0xd0c>
   12df4:	01700793          	li	a5,23
   12df8:	04042223          	sw	zero,68(s0)
   12dfc:	00000593          	li	a1,0
   12e00:	02a7f263          	bleu	a0,a5,12e24 <_dtoa_r+0x32c>
   12e04:	00100713          	li	a4,1
   12e08:	00400793          	li	a5,4
   12e0c:	00179793          	slli	a5,a5,0x1
   12e10:	01478693          	addi	a3,a5,20
   12e14:	00070593          	mv	a1,a4
   12e18:	00170713          	addi	a4,a4,1
   12e1c:	fed578e3          	bleu	a3,a0,12e0c <_dtoa_r+0x314>
   12e20:	04b42223          	sw	a1,68(s0)
   12e24:	00040513          	mv	a0,s0
   12e28:	00c12423          	sw	a2,8(sp)
   12e2c:	01112623          	sw	a7,12(sp)
   12e30:	5b4020ef          	jal	153e4 <_Balloc>
   12e34:	00812603          	lw	a2,8(sp)
   12e38:	00e00793          	li	a5,14
   12e3c:	00050493          	mv	s1,a0
   12e40:	04a42023          	sw	a0,64(s0)
   12e44:	00c12883          	lw	a7,12(sp)
   12e48:	26c7e063          	bltu	a5,a2,130a8 <_dtoa_r+0x5b0>
   12e4c:	24088e63          	beqz	a7,130a8 <_dtoa_r+0x5b0>
   12e50:	03212023          	sw	s2,32(sp)
   12e54:	03312223          	sw	s3,36(sp)
   12e58:	31705ee3          	blez	s7,13974 <_dtoa_r+0xe7c>
   12e5c:	00fbf793          	andi	a5,s7,15
   12e60:	00379713          	slli	a4,a5,0x3
   12e64:	0001b7b7          	lui	a5,0x1b
   12e68:	e7878793          	addi	a5,a5,-392 # 1ae78 <__mprec_tens>
   12e6c:	00f707b3          	add	a5,a4,a5
   12e70:	404bd913          	srai	s2,s7,0x4
   12e74:	0007b407          	fld	fs0,0(a5)
   12e78:	01b91793          	slli	a5,s2,0x1b
   12e7c:	02013507          	fld	fa0,32(sp)
   12e80:	00200993          	li	s3,2
   12e84:	0007dc63          	bgez	a5,12e9c <_dtoa_r+0x3a4>
   12e88:	0001b7b7          	lui	a5,0x1b
   12e8c:	f887b607          	fld	fa2,-120(a5) # 1af88 <__mprec_bigtens+0x20>
   12e90:	00f97913          	andi	s2,s2,15
   12e94:	00300993          	li	s3,3
   12e98:	0ad060ef          	jal	19744 <__divdf3>
   12e9c:	02090663          	beqz	s2,12ec8 <_dtoa_r+0x3d0>
   12ea0:	0001b7b7          	lui	a5,0x1b
   12ea4:	f6878793          	addi	a5,a5,-152 # 1af68 <__mprec_bigtens>
   12ea8:	01f91693          	slli	a3,s2,0x1f
   12eac:	0006d863          	bgez	a3,12ebc <_dtoa_r+0x3c4>
   12eb0:	0007b007          	fld	ft0,0(a5)
   12eb4:	00198993          	addi	s3,s3,1
   12eb8:	12047453          	fmul.d	fs0,fs0,ft0
   12ebc:	40195913          	srai	s2,s2,0x1
   12ec0:	00878793          	addi	a5,a5,8
   12ec4:	fe0912e3          	bnez	s2,12ea8 <_dtoa_r+0x3b0>
   12ec8:	22840653          	fmv.d	fa2,fs0
   12ecc:	079060ef          	jal	19744 <__divdf3>
   12ed0:	22a50453          	fmv.d	fs0,fa0
   12ed4:	03412703          	lw	a4,52(sp)
   12ed8:	00070863          	beqz	a4,12ee8 <_dtoa_r+0x3f0>
   12edc:	8401b007          	fld	ft0,-1984(gp) # 1cdc0 <__wctomb+0x28>
   12ee0:	a20417d3          	flt.d	a5,fs0,ft0
   12ee4:	420790e3          	bnez	a5,13b04 <_dtoa_r+0x100c>
   12ee8:	8501b007          	fld	ft0,-1968(gp) # 1cdd0 <__wctomb+0x38>
   12eec:	d20980d3          	fcvt.d.w	ft1,s3
   12ef0:	fcc007b7          	lui	a5,0xfcc00
   12ef4:	0280f043          	fmadd.d	ft0,ft1,fs0,ft0
   12ef8:	00013027          	fsd	ft0,0(sp)
   12efc:	00412983          	lw	s3,4(sp)
   12f00:	00012903          	lw	s2,0(sp)
   12f04:	013789b3          	add	s3,a5,s3
   12f08:	01012783          	lw	a5,16(sp)
   12f0c:	1c0784e3          	beqz	a5,138d4 <_dtoa_r+0xddc>
   12f10:	01012583          	lw	a1,16(sp)
   12f14:	000b8613          	mv	a2,s7
   12f18:	02c12703          	lw	a4,44(sp)
   12f1c:	300702e3          	beqz	a4,13a20 <_dtoa_r+0xf28>
   12f20:	fff58793          	addi	a5,a1,-1
   12f24:	00379713          	slli	a4,a5,0x3
   12f28:	0001b7b7          	lui	a5,0x1b
   12f2c:	e7878793          	addi	a5,a5,-392 # 1ae78 <__mprec_tens>
   12f30:	00f707b3          	add	a5,a4,a5
   12f34:	8601b507          	fld	fa0,-1952(gp) # 1cde0 <__wctomb+0x48>
   12f38:	0007b607          	fld	fa2,0(a5)
   12f3c:	00b12623          	sw	a1,12(sp)
   12f40:	00c12423          	sw	a2,8(sp)
   12f44:	001060ef          	jal	19744 <__divdf3>
   12f48:	01212023          	sw	s2,0(sp)
   12f4c:	01312223          	sw	s3,4(sp)
   12f50:	00013087          	fld	ft1,0(sp)
   12f54:	c2041753          	fcvt.w.d	a4,fs0,rtz
   12f58:	d2070053          	fcvt.d.w	ft0,a4
   12f5c:	0a157553          	fsub.d	fa0,fa0,ft1
   12f60:	0a047053          	fsub.d	ft0,fs0,ft0
   12f64:	03070713          	addi	a4,a4,48
   12f68:	0ff77713          	andi	a4,a4,255
   12f6c:	00e48023          	sb	a4,0(s1) # 80000000 <_gp+0x7ffe2a80>
   12f70:	a2a016d3          	flt.d	a3,ft0,fa0
   12f74:	00148d93          	addi	s11,s1,1
   12f78:	00c12583          	lw	a1,12(sp)
   12f7c:	00812603          	lw	a2,8(sp)
   12f80:	06069263          	bnez	a3,12fe4 <_dtoa_r+0x4ec>
   12f84:	8401b207          	fld	ft4,-1984(gp) # 1cdc0 <__wctomb+0x28>
   12f88:	0a0270d3          	fsub.d	ft1,ft4,ft0
   12f8c:	a2a096d3          	flt.d	a3,ft1,fa0
   12f90:	400694e3          	bnez	a3,13b98 <_dtoa_r+0x10a0>
   12f94:	00100713          	li	a4,1
   12f98:	1ab75ce3          	ble	a1,a4,13950 <_dtoa_r+0xe58>
   12f9c:	00b485b3          	add	a1,s1,a1
   12fa0:	8481b107          	fld	ft2,-1976(gp) # 1cdc8 <__wctomb+0x30>
   12fa4:	0140006f          	j	12fb8 <_dtoa_r+0x4c0>
   12fa8:	0a0270d3          	fsub.d	ft1,ft4,ft0
   12fac:	a2a096d3          	flt.d	a3,ft1,fa0
   12fb0:	3e0694e3          	bnez	a3,13b98 <_dtoa_r+0x10a0>
   12fb4:	18bd8ee3          	beq	s11,a1,13950 <_dtoa_r+0xe58>
   12fb8:	12207053          	fmul.d	ft0,ft0,ft2
   12fbc:	12257553          	fmul.d	fa0,fa0,ft2
   12fc0:	001d8d93          	addi	s11,s11,1
   12fc4:	c2001753          	fcvt.w.d	a4,ft0,rtz
   12fc8:	d20700d3          	fcvt.d.w	ft1,a4
   12fcc:	0a107053          	fsub.d	ft0,ft0,ft1
   12fd0:	03070713          	addi	a4,a4,48
   12fd4:	0ff77713          	andi	a4,a4,255
   12fd8:	feed8fa3          	sb	a4,-1(s11)
   12fdc:	a2a016d3          	flt.d	a3,ft0,fa0
   12fe0:	fc0684e3          	beqz	a3,12fa8 <_dtoa_r+0x4b0>
   12fe4:	00060b93          	mv	s7,a2
   12fe8:	00040513          	mv	a0,s0
   12fec:	000a0593          	mv	a1,s4
   12ff0:	498020ef          	jal	15488 <_Bfree>
   12ff4:	01c12683          	lw	a3,28(sp)
   12ff8:	0b012703          	lw	a4,176(sp)
   12ffc:	001b8b93          	addi	s7,s7,1
   13000:	000d8023          	sb	zero,0(s11)
   13004:	0176a023          	sw	s7,0(a3)
   13008:	22070063          	beqz	a4,13228 <_dtoa_r+0x730>
   1300c:	01b72023          	sw	s11,0(a4)
   13010:	00048513          	mv	a0,s1
   13014:	bd1ff06f          	j	12be4 <_dtoa_r+0xec>
   13018:	00c49713          	slli	a4,s1,0xc
   1301c:	c20714e3          	bnez	a4,12c44 <_dtoa_r+0x14c>
   13020:	0001b537          	lui	a0,0x1b
   13024:	2ac50493          	addi	s1,a0,684 # 1b2ac <__clz_tab+0x16c>
   13028:	c25ff06f          	j	12c4c <_dtoa_r+0x154>
   1302c:	01412783          	lw	a5,20(sp)
   13030:	00100637          	lui	a2,0x100
   13034:	fff60613          	addi	a2,a2,-1 # fffff <_gp+0xe2a7f>
   13038:	00c7f633          	and	a2,a5,a2
   1303c:	3ff005b7          	lui	a1,0x3ff00
   13040:	01012703          	lw	a4,16(sp)
   13044:	00b667b3          	or	a5,a2,a1
   13048:	c0168693          	addi	a3,a3,-1023
   1304c:	04812803          	lw	a6,72(sp)
   13050:	00000b13          	li	s6,0
   13054:	ca9ff06f          	j	12cfc <_dtoa_r+0x204>
   13058:	0001b4b7          	lui	s1,0x1b
   1305c:	2a848513          	addi	a0,s1,680 # 1b2a8 <__clz_tab+0x168>
   13060:	b85ff06f          	j	12be4 <_dtoa_r+0xec>
   13064:	41a00d33          	neg	s10,s10
   13068:	03a12423          	sw	s10,40(sp)
   1306c:	00000d13          	li	s10,0
   13070:	d19ff06f          	j	12d88 <_dtoa_r+0x290>
   13074:	04042223          	sw	zero,68(s0)
   13078:	00040513          	mv	a0,s0
   1307c:	00000593          	li	a1,0
   13080:	364020ef          	jal	153e4 <_Balloc>
   13084:	fff00793          	li	a5,-1
   13088:	00100713          	li	a4,1
   1308c:	00050493          	mv	s1,a0
   13090:	00f12823          	sw	a5,16(sp)
   13094:	04a42023          	sw	a0,64(s0)
   13098:	02e12623          	sw	a4,44(sp)
   1309c:	00000a93          	li	s5,0
   130a0:	00000c93          	li	s9,0
   130a4:	02f12c23          	sw	a5,56(sp)
   130a8:	04c12783          	lw	a5,76(sp)
   130ac:	1007c863          	bltz	a5,131bc <_dtoa_r+0x6c4>
   130b0:	00e00713          	li	a4,14
   130b4:	11774463          	blt	a4,s7,131bc <_dtoa_r+0x6c4>
   130b8:	0001b737          	lui	a4,0x1b
   130bc:	003b9793          	slli	a5,s7,0x3
   130c0:	e7870713          	addi	a4,a4,-392 # 1ae78 <__mprec_tens>
   130c4:	00e787b3          	add	a5,a5,a4
   130c8:	0007bb07          	fld	fs6,0(a5)
   130cc:	5e0cc263          	bltz	s9,136b0 <_dtoa_r+0xbb8>
   130d0:	01212023          	sw	s2,0(sp)
   130d4:	01312223          	sw	s3,4(sp)
   130d8:	00013407          	fld	fs0,0(sp)
   130dc:	236b0653          	fmv.d	fa2,fs6
   130e0:	00148d93          	addi	s11,s1,1
   130e4:	22840553          	fmv.d	fa0,fs0
   130e8:	65c060ef          	jal	19744 <__divdf3>
   130ec:	c20516d3          	fcvt.w.d	a3,fa0,rtz
   130f0:	d2068053          	fcvt.d.w	ft0,a3
   130f4:	01012783          	lw	a5,16(sp)
   130f8:	03068713          	addi	a4,a3,48
   130fc:	22001053          	fneg.d	ft0,ft0
   13100:	00e48023          	sb	a4,0(s1)
   13104:	00100713          	li	a4,1
   13108:	43607443          	fmadd.d	fs0,ft0,fs6,fs0
   1310c:	06e78263          	beq	a5,a4,13170 <_dtoa_r+0x678>
   13110:	8481ba07          	fld	fs4,-1976(gp) # 1cdc8 <__wctomb+0x30>
   13114:	d2000953          	fcvt.d.w	fs2,zero
   13118:	13447453          	fmul.d	fs0,fs0,fs4
   1311c:	a3242753          	feq.d	a4,fs0,fs2
   13120:	ec0714e3          	bnez	a4,12fe8 <_dtoa_r+0x4f0>
   13124:	01012703          	lw	a4,16(sp)
   13128:	00248913          	addi	s2,s1,2
   1312c:	00e489b3          	add	s3,s1,a4
   13130:	0140006f          	j	13144 <_dtoa_r+0x64c>
   13134:	13447453          	fmul.d	fs0,fs0,fs4
   13138:	00190913          	addi	s2,s2,1
   1313c:	a3242753          	feq.d	a4,fs0,fs2
   13140:	ea0714e3          	bnez	a4,12fe8 <_dtoa_r+0x4f0>
   13144:	22840553          	fmv.d	fa0,fs0
   13148:	236b0653          	fmv.d	fa2,fs6
   1314c:	00090d93          	mv	s11,s2
   13150:	5f4060ef          	jal	19744 <__divdf3>
   13154:	c20516d3          	fcvt.w.d	a3,fa0,rtz
   13158:	d2068053          	fcvt.d.w	ft0,a3
   1315c:	22001053          	fneg.d	ft0,ft0
   13160:	03068713          	addi	a4,a3,48
   13164:	fee90fa3          	sb	a4,-1(s2)
   13168:	43607443          	fmadd.d	fs0,ft0,fs6,fs0
   1316c:	fd3914e3          	bne	s2,s3,13134 <_dtoa_r+0x63c>
   13170:	02847453          	fadd.d	fs0,fs0,fs0
   13174:	a28b1753          	flt.d	a4,fs6,fs0
   13178:	00071a63          	bnez	a4,1318c <_dtoa_r+0x694>
   1317c:	a28b2753          	feq.d	a4,fs6,fs0
   13180:	e60704e3          	beqz	a4,12fe8 <_dtoa_r+0x4f0>
   13184:	01f69793          	slli	a5,a3,0x1f
   13188:	e607d0e3          	bgez	a5,12fe8 <_dtoa_r+0x4f0>
   1318c:	fffdc703          	lbu	a4,-1(s11)
   13190:	03900613          	li	a2,57
   13194:	0100006f          	j	131a4 <_dtoa_r+0x6ac>
   13198:	7cd48263          	beq	s1,a3,1395c <_dtoa_r+0xe64>
   1319c:	fff6c703          	lbu	a4,-1(a3)
   131a0:	00068d93          	mv	s11,a3
   131a4:	fffd8693          	addi	a3,s11,-1
   131a8:	fec708e3          	beq	a4,a2,13198 <_dtoa_r+0x6a0>
   131ac:	00170713          	addi	a4,a4,1
   131b0:	0ff77713          	andi	a4,a4,255
   131b4:	00e68023          	sb	a4,0(a3)
   131b8:	e31ff06f          	j	12fe8 <_dtoa_r+0x4f0>
   131bc:	02c12703          	lw	a4,44(sp)
   131c0:	08070e63          	beqz	a4,1325c <_dtoa_r+0x764>
   131c4:	00100713          	li	a4,1
   131c8:	59575063          	ble	s5,a4,13748 <_dtoa_r+0xc50>
   131cc:	01012783          	lw	a5,16(sp)
   131d0:	fff78713          	addi	a4,a5,-1
   131d4:	40ec0db3          	sub	s11,s8,a4
   131d8:	00ec5e63          	ble	a4,s8,131f4 <_dtoa_r+0x6fc>
   131dc:	03012683          	lw	a3,48(sp)
   131e0:	41870c33          	sub	s8,a4,s8
   131e4:	00000d93          	li	s11,0
   131e8:	018686b3          	add	a3,a3,s8
   131ec:	02d12823          	sw	a3,48(sp)
   131f0:	00070c13          	mv	s8,a4
   131f4:	02812703          	lw	a4,40(sp)
   131f8:	01012783          	lw	a5,16(sp)
   131fc:	02e12023          	sw	a4,32(sp)
   13200:	0c07c8e3          	bltz	a5,13ad0 <_dtoa_r+0xfd8>
   13204:	02812683          	lw	a3,40(sp)
   13208:	00040513          	mv	a0,s0
   1320c:	00100593          	li	a1,1
   13210:	00f686b3          	add	a3,a3,a5
   13214:	02d12423          	sw	a3,40(sp)
   13218:	00fd0d33          	add	s10,s10,a5
   1321c:	5d4020ef          	jal	157f0 <__i2b>
   13220:	00050b13          	mv	s6,a0
   13224:	0480006f          	j	1326c <_dtoa_r+0x774>
   13228:	00048513          	mv	a0,s1
   1322c:	9b9ff06f          	j	12be4 <_dtoa_r+0xec>
   13230:	d20b80d3          	fcvt.d.w	ft1,s7
   13234:	a200a7d3          	feq.d	a5,ft1,ft0
   13238:	0017b793          	seqz	a5,a5
   1323c:	40fb8bb3          	sub	s7,s7,a5
   13240:	af9ff06f          	j	12d38 <_dtoa_r+0x240>
   13244:	02812683          	lw	a3,40(sp)
   13248:	41700c33          	neg	s8,s7
   1324c:	02012823          	sw	zero,48(sp)
   13250:	417686b3          	sub	a3,a3,s7
   13254:	02d12423          	sw	a3,40(sp)
   13258:	b41ff06f          	j	12d98 <_dtoa_r+0x2a0>
   1325c:	02812703          	lw	a4,40(sp)
   13260:	000c0d93          	mv	s11,s8
   13264:	00000b13          	li	s6,0
   13268:	02e12023          	sw	a4,32(sp)
   1326c:	02012783          	lw	a5,32(sp)
   13270:	02078863          	beqz	a5,132a0 <_dtoa_r+0x7a8>
   13274:	03a05663          	blez	s10,132a0 <_dtoa_r+0x7a8>
   13278:	02012703          	lw	a4,32(sp)
   1327c:	000d0793          	mv	a5,s10
   13280:	41a74463          	blt	a4,s10,13688 <_dtoa_r+0xb90>
   13284:	02812683          	lw	a3,40(sp)
   13288:	02012703          	lw	a4,32(sp)
   1328c:	40fd0d33          	sub	s10,s10,a5
   13290:	40f686b3          	sub	a3,a3,a5
   13294:	40f70733          	sub	a4,a4,a5
   13298:	02d12423          	sw	a3,40(sp)
   1329c:	02e12023          	sw	a4,32(sp)
   132a0:	05805c63          	blez	s8,132f8 <_dtoa_r+0x800>
   132a4:	02c12783          	lw	a5,44(sp)
   132a8:	66078063          	beqz	a5,13908 <_dtoa_r+0xe10>
   132ac:	05b05263          	blez	s11,132f0 <_dtoa_r+0x7f8>
   132b0:	000b0593          	mv	a1,s6
   132b4:	000d8613          	mv	a2,s11
   132b8:	00040513          	mv	a0,s0
   132bc:	75c020ef          	jal	15a18 <__pow5mult>
   132c0:	00050b13          	mv	s6,a0
   132c4:	000a0613          	mv	a2,s4
   132c8:	000b0593          	mv	a1,s6
   132cc:	00040513          	mv	a0,s0
   132d0:	554020ef          	jal	15824 <__multiply>
   132d4:	00050793          	mv	a5,a0
   132d8:	000a0593          	mv	a1,s4
   132dc:	00040513          	mv	a0,s0
   132e0:	00f12623          	sw	a5,12(sp)
   132e4:	1a4020ef          	jal	15488 <_Bfree>
   132e8:	00c12783          	lw	a5,12(sp)
   132ec:	00078a13          	mv	s4,a5
   132f0:	41bc0633          	sub	a2,s8,s11
   132f4:	40061463          	bnez	a2,136fc <_dtoa_r+0xc04>
   132f8:	00040513          	mv	a0,s0
   132fc:	00100593          	li	a1,1
   13300:	4f0020ef          	jal	157f0 <__i2b>
   13304:	03012683          	lw	a3,48(sp)
   13308:	00050c13          	mv	s8,a0
   1330c:	04d05463          	blez	a3,13354 <_dtoa_r+0x85c>
   13310:	000c0593          	mv	a1,s8
   13314:	00040513          	mv	a0,s0
   13318:	00068613          	mv	a2,a3
   1331c:	6fc020ef          	jal	15a18 <__pow5mult>
   13320:	00100793          	li	a5,1
   13324:	00050c13          	mv	s8,a0
   13328:	3f57d463          	ble	s5,a5,13710 <_dtoa_r+0xc18>
   1332c:	02012e23          	sw	zero,60(sp)
   13330:	010c2783          	lw	a5,16(s8)
   13334:	00378793          	addi	a5,a5,3
   13338:	00279793          	slli	a5,a5,0x2
   1333c:	00fc07b3          	add	a5,s8,a5
   13340:	0047a503          	lw	a0,4(a5)
   13344:	384020ef          	jal	156c8 <__hi0bits>
   13348:	02000793          	li	a5,32
   1334c:	40a78533          	sub	a0,a5,a0
   13350:	01c0006f          	j	1336c <_dtoa_r+0x874>
   13354:	00100793          	li	a5,1
   13358:	02012e23          	sw	zero,60(sp)
   1335c:	4f57da63          	ble	s5,a5,13850 <_dtoa_r+0xd58>
   13360:	03012783          	lw	a5,48(sp)
   13364:	00100513          	li	a0,1
   13368:	fc0794e3          	bnez	a5,13330 <_dtoa_r+0x838>
   1336c:	01a50533          	add	a0,a0,s10
   13370:	01f57513          	andi	a0,a0,31
   13374:	1c050463          	beqz	a0,1353c <_dtoa_r+0xa44>
   13378:	02000793          	li	a5,32
   1337c:	40a787b3          	sub	a5,a5,a0
   13380:	00400713          	li	a4,4
   13384:	08f754e3          	ble	a5,a4,13c0c <_dtoa_r+0x1114>
   13388:	02812683          	lw	a3,40(sp)
   1338c:	02012703          	lw	a4,32(sp)
   13390:	01c00793          	li	a5,28
   13394:	40a78533          	sub	a0,a5,a0
   13398:	00a686b3          	add	a3,a3,a0
   1339c:	00a70733          	add	a4,a4,a0
   133a0:	02d12423          	sw	a3,40(sp)
   133a4:	02e12023          	sw	a4,32(sp)
   133a8:	00ad0d33          	add	s10,s10,a0
   133ac:	02812783          	lw	a5,40(sp)
   133b0:	00f05c63          	blez	a5,133c8 <_dtoa_r+0x8d0>
   133b4:	000a0593          	mv	a1,s4
   133b8:	00040513          	mv	a0,s0
   133bc:	00078613          	mv	a2,a5
   133c0:	790020ef          	jal	15b50 <__lshift>
   133c4:	00050a13          	mv	s4,a0
   133c8:	01a05c63          	blez	s10,133e0 <_dtoa_r+0x8e8>
   133cc:	000c0593          	mv	a1,s8
   133d0:	00040513          	mv	a0,s0
   133d4:	000d0613          	mv	a2,s10
   133d8:	778020ef          	jal	15b50 <__lshift>
   133dc:	00050c13          	mv	s8,a0
   133e0:	03412683          	lw	a3,52(sp)
   133e4:	18069a63          	bnez	a3,13578 <_dtoa_r+0xa80>
   133e8:	01012703          	lw	a4,16(sp)
   133ec:	46e05663          	blez	a4,13858 <_dtoa_r+0xd60>
   133f0:	02c12703          	lw	a4,44(sp)
   133f4:	1c070263          	beqz	a4,135b8 <_dtoa_r+0xac0>
   133f8:	02012783          	lw	a5,32(sp)
   133fc:	00f05c63          	blez	a5,13414 <_dtoa_r+0x91c>
   13400:	000b0593          	mv	a1,s6
   13404:	00040513          	mv	a0,s0
   13408:	00078613          	mv	a2,a5
   1340c:	744020ef          	jal	15b50 <__lshift>
   13410:	00050b13          	mv	s6,a0
   13414:	03c12703          	lw	a4,60(sp)
   13418:	000b0c93          	mv	s9,s6
   1341c:	5a071c63          	bnez	a4,139d4 <_dtoa_r+0xedc>
   13420:	01012783          	lw	a5,16(sp)
   13424:	00197713          	andi	a4,s2,1
   13428:	00148993          	addi	s3,s1,1
   1342c:	00f487b3          	add	a5,s1,a5
   13430:	02f12023          	sw	a5,32(sp)
   13434:	02e12423          	sw	a4,40(sp)
   13438:	000c0593          	mv	a1,s8
   1343c:	000a0513          	mv	a0,s4
   13440:	cd0ff0ef          	jal	12910 <quorem>
   13444:	00050d93          	mv	s11,a0
   13448:	000b0593          	mv	a1,s6
   1344c:	000a0513          	mv	a0,s4
   13450:	055020ef          	jal	15ca4 <__mcmp>
   13454:	00050913          	mv	s2,a0
   13458:	000c0593          	mv	a1,s8
   1345c:	00040513          	mv	a0,s0
   13460:	000c8613          	mv	a2,s9
   13464:	0a1020ef          	jal	15d04 <__mdiff>
   13468:	00c52683          	lw	a3,12(a0)
   1346c:	fff98713          	addi	a4,s3,-1
   13470:	00e12823          	sw	a4,16(sp)
   13474:	00050793          	mv	a5,a0
   13478:	030d8d13          	addi	s10,s11,48
   1347c:	00100713          	li	a4,1
   13480:	00069e63          	bnez	a3,1349c <_dtoa_r+0x9a4>
   13484:	00078593          	mv	a1,a5
   13488:	000a0513          	mv	a0,s4
   1348c:	00f12623          	sw	a5,12(sp)
   13490:	015020ef          	jal	15ca4 <__mcmp>
   13494:	00c12783          	lw	a5,12(sp)
   13498:	00050713          	mv	a4,a0
   1349c:	00078593          	mv	a1,a5
   134a0:	00040513          	mv	a0,s0
   134a4:	00e12623          	sw	a4,12(sp)
   134a8:	7e1010ef          	jal	15488 <_Bfree>
   134ac:	00c12703          	lw	a4,12(sp)
   134b0:	015767b3          	or	a5,a4,s5
   134b4:	00079663          	bnez	a5,134c0 <_dtoa_r+0x9c8>
   134b8:	02812783          	lw	a5,40(sp)
   134bc:	2a078263          	beqz	a5,13760 <_dtoa_r+0xc68>
   134c0:	2c094463          	bltz	s2,13788 <_dtoa_r+0xc90>
   134c4:	01596933          	or	s2,s2,s5
   134c8:	00091663          	bnez	s2,134d4 <_dtoa_r+0x9dc>
   134cc:	02812783          	lw	a5,40(sp)
   134d0:	2a078c63          	beqz	a5,13788 <_dtoa_r+0xc90>
   134d4:	5ee04063          	bgtz	a4,13ab4 <_dtoa_r+0xfbc>
   134d8:	02012703          	lw	a4,32(sp)
   134dc:	00098d93          	mv	s11,s3
   134e0:	ffa98fa3          	sb	s10,-1(s3)
   134e4:	5ee98063          	beq	s3,a4,13ac4 <_dtoa_r+0xfcc>
   134e8:	000a0593          	mv	a1,s4
   134ec:	00040513          	mv	a0,s0
   134f0:	00a00613          	li	a2,10
   134f4:	00000693          	li	a3,0
   134f8:	7b5010ef          	jal	154ac <__multadd>
   134fc:	00050a13          	mv	s4,a0
   13500:	2d9b0863          	beq	s6,s9,137d0 <_dtoa_r+0xcd8>
   13504:	000b0593          	mv	a1,s6
   13508:	00a00613          	li	a2,10
   1350c:	00000693          	li	a3,0
   13510:	00040513          	mv	a0,s0
   13514:	799010ef          	jal	154ac <__multadd>
   13518:	00050b13          	mv	s6,a0
   1351c:	000c8593          	mv	a1,s9
   13520:	00040513          	mv	a0,s0
   13524:	00a00613          	li	a2,10
   13528:	00000693          	li	a3,0
   1352c:	781010ef          	jal	154ac <__multadd>
   13530:	00050c93          	mv	s9,a0
   13534:	00198993          	addi	s3,s3,1
   13538:	f01ff06f          	j	13438 <_dtoa_r+0x940>
   1353c:	01c00513          	li	a0,28
   13540:	02812783          	lw	a5,40(sp)
   13544:	02012703          	lw	a4,32(sp)
   13548:	00ad0d33          	add	s10,s10,a0
   1354c:	00a787b3          	add	a5,a5,a0
   13550:	00a70733          	add	a4,a4,a0
   13554:	02f12423          	sw	a5,40(sp)
   13558:	02e12023          	sw	a4,32(sp)
   1355c:	e51ff06f          	j	133ac <_dtoa_r+0x8b4>
   13560:	02012a23          	sw	zero,52(sp)
   13564:	815ff06f          	j	12d78 <_dtoa_r+0x280>
   13568:	bee00493          	li	s1,-1042
   1356c:	40c484b3          	sub	s1,s1,a2
   13570:	009914b3          	sll	s1,s2,s1
   13574:	f68ff06f          	j	12cdc <_dtoa_r+0x1e4>
   13578:	000a0513          	mv	a0,s4
   1357c:	000c0593          	mv	a1,s8
   13580:	724020ef          	jal	15ca4 <__mcmp>
   13584:	e60552e3          	bgez	a0,133e8 <_dtoa_r+0x8f0>
   13588:	000a0593          	mv	a1,s4
   1358c:	00040513          	mv	a0,s0
   13590:	00a00613          	li	a2,10
   13594:	00000693          	li	a3,0
   13598:	715010ef          	jal	154ac <__multadd>
   1359c:	02c12703          	lw	a4,44(sp)
   135a0:	00050a13          	mv	s4,a0
   135a4:	fffb8b93          	addi	s7,s7,-1
   135a8:	60071463          	bnez	a4,13bb0 <_dtoa_r+0x10b8>
   135ac:	03812703          	lw	a4,56(sp)
   135b0:	62e05463          	blez	a4,13bd8 <_dtoa_r+0x10e0>
   135b4:	00e12823          	sw	a4,16(sp)
   135b8:	00048913          	mv	s2,s1
   135bc:	00c0006f          	j	135c8 <_dtoa_r+0xad0>
   135c0:	6ed010ef          	jal	154ac <__multadd>
   135c4:	00050a13          	mv	s4,a0
   135c8:	000c0593          	mv	a1,s8
   135cc:	000a0513          	mv	a0,s4
   135d0:	b40ff0ef          	jal	12910 <quorem>
   135d4:	01012703          	lw	a4,16(sp)
   135d8:	00190913          	addi	s2,s2,1
   135dc:	03050d13          	addi	s10,a0,48
   135e0:	409907b3          	sub	a5,s2,s1
   135e4:	00040513          	mv	a0,s0
   135e8:	000a0593          	mv	a1,s4
   135ec:	00a00613          	li	a2,10
   135f0:	00000693          	li	a3,0
   135f4:	ffa90fa3          	sb	s10,-1(s2)
   135f8:	fce7c4e3          	blt	a5,a4,135c0 <_dtoa_r+0xac8>
   135fc:	00070d93          	mv	s11,a4
   13600:	4ee05063          	blez	a4,13ae0 <_dtoa_r+0xfe8>
   13604:	01b48db3          	add	s11,s1,s11
   13608:	00000913          	li	s2,0
   1360c:	000a0593          	mv	a1,s4
   13610:	00100613          	li	a2,1
   13614:	00040513          	mv	a0,s0
   13618:	538020ef          	jal	15b50 <__lshift>
   1361c:	000c0593          	mv	a1,s8
   13620:	00050a13          	mv	s4,a0
   13624:	680020ef          	jal	15ca4 <__mcmp>
   13628:	30a05063          	blez	a0,13928 <_dtoa_r+0xe30>
   1362c:	fffdc683          	lbu	a3,-1(s11)
   13630:	03900613          	li	a2,57
   13634:	0100006f          	j	13644 <_dtoa_r+0xb4c>
   13638:	26e48663          	beq	s1,a4,138a4 <_dtoa_r+0xdac>
   1363c:	fff74683          	lbu	a3,-1(a4)
   13640:	00070d93          	mv	s11,a4
   13644:	fffd8713          	addi	a4,s11,-1
   13648:	fec688e3          	beq	a3,a2,13638 <_dtoa_r+0xb40>
   1364c:	00168693          	addi	a3,a3,1
   13650:	00d70023          	sb	a3,0(a4)
   13654:	00040513          	mv	a0,s0
   13658:	000c0593          	mv	a1,s8
   1365c:	62d010ef          	jal	15488 <_Bfree>
   13660:	980b04e3          	beqz	s6,12fe8 <_dtoa_r+0x4f0>
   13664:	00090a63          	beqz	s2,13678 <_dtoa_r+0xb80>
   13668:	01690863          	beq	s2,s6,13678 <_dtoa_r+0xb80>
   1366c:	00040513          	mv	a0,s0
   13670:	00090593          	mv	a1,s2
   13674:	615010ef          	jal	15488 <_Bfree>
   13678:	00040513          	mv	a0,s0
   1367c:	000b0593          	mv	a1,s6
   13680:	609010ef          	jal	15488 <_Bfree>
   13684:	965ff06f          	j	12fe8 <_dtoa_r+0x4f0>
   13688:	00070793          	mv	a5,a4
   1368c:	bf9ff06f          	j	13284 <_dtoa_r+0x78c>
   13690:	00100713          	li	a4,1
   13694:	02e12623          	sw	a4,44(sp)
   13698:	15905e63          	blez	s9,137f4 <_dtoa_r+0xcfc>
   1369c:	000c8513          	mv	a0,s9
   136a0:	000c8613          	mv	a2,s9
   136a4:	03912c23          	sw	s9,56(sp)
   136a8:	01912823          	sw	s9,16(sp)
   136ac:	f48ff06f          	j	12df4 <_dtoa_r+0x2fc>
   136b0:	01012703          	lw	a4,16(sp)
   136b4:	a0e04ee3          	bgtz	a4,130d0 <_dtoa_r+0x5d8>
   136b8:	24071263          	bnez	a4,138fc <_dtoa_r+0xe04>
   136bc:	8581b007          	fld	ft0,-1960(gp) # 1cdd8 <__wctomb+0x40>
   136c0:	01212023          	sw	s2,0(sp)
   136c4:	01312223          	sw	s3,4(sp)
   136c8:	120b7b53          	fmul.d	fs6,fs6,ft0
   136cc:	00013007          	fld	ft0,0(sp)
   136d0:	00000c13          	li	s8,0
   136d4:	00000b13          	li	s6,0
   136d8:	a3600953          	fle.d	s2,ft0,fs6
   136dc:	1a090a63          	beqz	s2,13890 <_dtoa_r+0xd98>
   136e0:	fffccb93          	not	s7,s9
   136e4:	00048d93          	mv	s11,s1
   136e8:	00040513          	mv	a0,s0
   136ec:	000c0593          	mv	a1,s8
   136f0:	599010ef          	jal	15488 <_Bfree>
   136f4:	f80b12e3          	bnez	s6,13678 <_dtoa_r+0xb80>
   136f8:	8f1ff06f          	j	12fe8 <_dtoa_r+0x4f0>
   136fc:	000a0593          	mv	a1,s4
   13700:	00040513          	mv	a0,s0
   13704:	314020ef          	jal	15a18 <__pow5mult>
   13708:	00050a13          	mv	s4,a0
   1370c:	bedff06f          	j	132f8 <_dtoa_r+0x800>
   13710:	c0091ee3          	bnez	s2,1332c <_dtoa_r+0x834>
   13714:	00c99713          	slli	a4,s3,0xc
   13718:	02012e23          	sw	zero,60(sp)
   1371c:	c40712e3          	bnez	a4,13360 <_dtoa_r+0x868>
   13720:	7ff007b7          	lui	a5,0x7ff00
   13724:	0137f7b3          	and	a5,a5,s3
   13728:	c2078ce3          	beqz	a5,13360 <_dtoa_r+0x868>
   1372c:	02812783          	lw	a5,40(sp)
   13730:	00100713          	li	a4,1
   13734:	001d0d13          	addi	s10,s10,1
   13738:	00178793          	addi	a5,a5,1 # 7ff00001 <_gp+0x7fee2a81>
   1373c:	02f12423          	sw	a5,40(sp)
   13740:	02e12e23          	sw	a4,60(sp)
   13744:	c1dff06f          	j	13360 <_dtoa_r+0x868>
   13748:	3a0b0063          	beqz	s6,13ae8 <_dtoa_r+0xff0>
   1374c:	02812683          	lw	a3,40(sp)
   13750:	43378793          	addi	a5,a5,1075
   13754:	000c0d93          	mv	s11,s8
   13758:	02d12023          	sw	a3,32(sp)
   1375c:	aa9ff06f          	j	13204 <_dtoa_r+0x70c>
   13760:	03900793          	li	a5,57
   13764:	3efd0463          	beq	s10,a5,13b4c <_dtoa_r+0x1054>
   13768:	01205463          	blez	s2,13770 <_dtoa_r+0xc78>
   1376c:	031d8d13          	addi	s10,s11,49
   13770:	01012683          	lw	a3,16(sp)
   13774:	000b0913          	mv	s2,s6
   13778:	000c8b13          	mv	s6,s9
   1377c:	00168d93          	addi	s11,a3,1
   13780:	01a68023          	sb	s10,0(a3)
   13784:	ed1ff06f          	j	13654 <_dtoa_r+0xb5c>
   13788:	02e05863          	blez	a4,137b8 <_dtoa_r+0xcc0>
   1378c:	000a0593          	mv	a1,s4
   13790:	00100613          	li	a2,1
   13794:	00040513          	mv	a0,s0
   13798:	3b8020ef          	jal	15b50 <__lshift>
   1379c:	000c0593          	mv	a1,s8
   137a0:	00050a13          	mv	s4,a0
   137a4:	500020ef          	jal	15ca4 <__mcmp>
   137a8:	3ea05c63          	blez	a0,13ba0 <_dtoa_r+0x10a8>
   137ac:	03900793          	li	a5,57
   137b0:	38fd0e63          	beq	s10,a5,13b4c <_dtoa_r+0x1054>
   137b4:	001d0d13          	addi	s10,s10,1
   137b8:	01012703          	lw	a4,16(sp)
   137bc:	000b0913          	mv	s2,s6
   137c0:	000c8b13          	mv	s6,s9
   137c4:	00170d93          	addi	s11,a4,1
   137c8:	01a70023          	sb	s10,0(a4)
   137cc:	e89ff06f          	j	13654 <_dtoa_r+0xb5c>
   137d0:	000b0593          	mv	a1,s6
   137d4:	00040513          	mv	a0,s0
   137d8:	00a00613          	li	a2,10
   137dc:	00000693          	li	a3,0
   137e0:	4cd010ef          	jal	154ac <__multadd>
   137e4:	00050b13          	mv	s6,a0
   137e8:	00050c93          	mv	s9,a0
   137ec:	00198993          	addi	s3,s3,1
   137f0:	c49ff06f          	j	13438 <_dtoa_r+0x940>
   137f4:	00100613          	li	a2,1
   137f8:	02c12c23          	sw	a2,56(sp)
   137fc:	00c12823          	sw	a2,16(sp)
   13800:	00060c93          	mv	s9,a2
   13804:	04042223          	sw	zero,68(s0)
   13808:	00000593          	li	a1,0
   1380c:	e18ff06f          	j	12e24 <_dtoa_r+0x32c>
   13810:	00200793          	li	a5,2
   13814:	02012623          	sw	zero,44(sp)
   13818:	e8fa80e3          	beq	s5,a5,13698 <_dtoa_r+0xba0>
   1381c:	04042223          	sw	zero,68(s0)
   13820:	00040513          	mv	a0,s0
   13824:	00000593          	li	a1,0
   13828:	3bd010ef          	jal	153e4 <_Balloc>
   1382c:	fff00793          	li	a5,-1
   13830:	00100713          	li	a4,1
   13834:	00050493          	mv	s1,a0
   13838:	00f12823          	sw	a5,16(sp)
   1383c:	04a42023          	sw	a0,64(s0)
   13840:	02e12623          	sw	a4,44(sp)
   13844:	00000c93          	li	s9,0
   13848:	02f12c23          	sw	a5,56(sp)
   1384c:	85dff06f          	j	130a8 <_dtoa_r+0x5b0>
   13850:	b00918e3          	bnez	s2,13360 <_dtoa_r+0x868>
   13854:	ec1ff06f          	j	13714 <_dtoa_r+0xc1c>
   13858:	00200793          	li	a5,2
   1385c:	b957dae3          	ble	s5,a5,133f0 <_dtoa_r+0x8f8>
   13860:	01012783          	lw	a5,16(sp)
   13864:	e6079ee3          	bnez	a5,136e0 <_dtoa_r+0xbe8>
   13868:	000c0593          	mv	a1,s8
   1386c:	00040513          	mv	a0,s0
   13870:	00500613          	li	a2,5
   13874:	00000693          	li	a3,0
   13878:	435010ef          	jal	154ac <__multadd>
   1387c:	00050c13          	mv	s8,a0
   13880:	000c0593          	mv	a1,s8
   13884:	000a0513          	mv	a0,s4
   13888:	41c020ef          	jal	15ca4 <__mcmp>
   1388c:	e4a05ae3          	blez	a0,136e0 <_dtoa_r+0xbe8>
   13890:	03100713          	li	a4,49
   13894:	00148d93          	addi	s11,s1,1
   13898:	00e48023          	sb	a4,0(s1)
   1389c:	001b8b93          	addi	s7,s7,1
   138a0:	e49ff06f          	j	136e8 <_dtoa_r+0xbf0>
   138a4:	03100713          	li	a4,49
   138a8:	001b8b93          	addi	s7,s7,1
   138ac:	00e48023          	sb	a4,0(s1)
   138b0:	da5ff06f          	j	13654 <_dtoa_r+0xb5c>
   138b4:	8501b087          	fld	ft1,-1968(gp) # 1cdd0 <__wctomb+0x38>
   138b8:	d2098053          	fcvt.d.w	ft0,s3
   138bc:	fcc007b7          	lui	a5,0xfcc00
   138c0:	0a8070c3          	fmadd.d	ft1,ft0,fs0,ft1
   138c4:	00113027          	fsd	ft1,0(sp)
   138c8:	00412983          	lw	s3,4(sp)
   138cc:	00012903          	lw	s2,0(sp)
   138d0:	013789b3          	add	s3,a5,s3
   138d4:	8581b007          	fld	ft0,-1960(gp) # 1cdd8 <__wctomb+0x40>
   138d8:	01212023          	sw	s2,0(sp)
   138dc:	01312223          	sw	s3,4(sp)
   138e0:	0a047053          	fsub.d	ft0,fs0,ft0
   138e4:	00013087          	fld	ft1,0(sp)
   138e8:	a20097d3          	flt.d	a5,ft1,ft0
   138ec:	12079463          	bnez	a5,13a14 <_dtoa_r+0xf1c>
   138f0:	221090d3          	fneg.d	ft1,ft1
   138f4:	a21017d3          	flt.d	a5,ft0,ft1
   138f8:	04078c63          	beqz	a5,13950 <_dtoa_r+0xe58>
   138fc:	00000c13          	li	s8,0
   13900:	00000b13          	li	s6,0
   13904:	dddff06f          	j	136e0 <_dtoa_r+0xbe8>
   13908:	000a0593          	mv	a1,s4
   1390c:	00040513          	mv	a0,s0
   13910:	000c0613          	mv	a2,s8
   13914:	104020ef          	jal	15a18 <__pow5mult>
   13918:	00050a13          	mv	s4,a0
   1391c:	9ddff06f          	j	132f8 <_dtoa_r+0x800>
   13920:	02012623          	sw	zero,44(sp)
   13924:	cb4ff06f          	j	12dd8 <_dtoa_r+0x2e0>
   13928:	00051663          	bnez	a0,13934 <_dtoa_r+0xe3c>
   1392c:	01fd1793          	slli	a5,s10,0x1f
   13930:	ce07cee3          	bltz	a5,1362c <_dtoa_r+0xb34>
   13934:	03000613          	li	a2,48
   13938:	0080006f          	j	13940 <_dtoa_r+0xe48>
   1393c:	00068d93          	mv	s11,a3
   13940:	fffdc703          	lbu	a4,-1(s11)
   13944:	fffd8693          	addi	a3,s11,-1
   13948:	fec70ae3          	beq	a4,a2,1393c <_dtoa_r+0xe44>
   1394c:	d09ff06f          	j	13654 <_dtoa_r+0xb5c>
   13950:	02012903          	lw	s2,32(sp)
   13954:	02412983          	lw	s3,36(sp)
   13958:	f50ff06f          	j	130a8 <_dtoa_r+0x5b0>
   1395c:	03000713          	li	a4,48
   13960:	00e48023          	sb	a4,0(s1)
   13964:	001b8b93          	addi	s7,s7,1
   13968:	00048693          	mv	a3,s1
   1396c:	03100713          	li	a4,49
   13970:	845ff06f          	j	131b4 <_dtoa_r+0x6bc>
   13974:	417007b3          	neg	a5,s7
   13978:	02013407          	fld	fs0,32(sp)
   1397c:	00200993          	li	s3,2
   13980:	d4078a63          	beqz	a5,12ed4 <_dtoa_r+0x3dc>
   13984:	00f7f713          	andi	a4,a5,15
   13988:	00371693          	slli	a3,a4,0x3
   1398c:	0001b737          	lui	a4,0x1b
   13990:	e7870713          	addi	a4,a4,-392 # 1ae78 <__mprec_tens>
   13994:	00e68733          	add	a4,a3,a4
   13998:	00073007          	fld	ft0,0(a4)
   1399c:	4047d793          	srai	a5,a5,0x4
   139a0:	12047453          	fmul.d	fs0,fs0,ft0
   139a4:	d2078863          	beqz	a5,12ed4 <_dtoa_r+0x3dc>
   139a8:	0001b737          	lui	a4,0x1b
   139ac:	f6870713          	addi	a4,a4,-152 # 1af68 <__mprec_bigtens>
   139b0:	01f79693          	slli	a3,a5,0x1f
   139b4:	0006d863          	bgez	a3,139c4 <_dtoa_r+0xecc>
   139b8:	00073007          	fld	ft0,0(a4)
   139bc:	00198993          	addi	s3,s3,1
   139c0:	12047453          	fmul.d	fs0,fs0,ft0
   139c4:	4017d793          	srai	a5,a5,0x1
   139c8:	00870713          	addi	a4,a4,8
   139cc:	fe0792e3          	bnez	a5,139b0 <_dtoa_r+0xeb8>
   139d0:	d04ff06f          	j	12ed4 <_dtoa_r+0x3dc>
   139d4:	004b2583          	lw	a1,4(s6)
   139d8:	00040513          	mv	a0,s0
   139dc:	209010ef          	jal	153e4 <_Balloc>
   139e0:	010b2603          	lw	a2,16(s6)
   139e4:	00050c93          	mv	s9,a0
   139e8:	00cb0593          	addi	a1,s6,12
   139ec:	00260613          	addi	a2,a2,2
   139f0:	00261613          	slli	a2,a2,0x2
   139f4:	00c50513          	addi	a0,a0,12
   139f8:	7d4010ef          	jal	151cc <memcpy>
   139fc:	000c8593          	mv	a1,s9
   13a00:	00040513          	mv	a0,s0
   13a04:	00100613          	li	a2,1
   13a08:	148020ef          	jal	15b50 <__lshift>
   13a0c:	00050c93          	mv	s9,a0
   13a10:	a11ff06f          	j	13420 <_dtoa_r+0x928>
   13a14:	00000c13          	li	s8,0
   13a18:	00000b13          	li	s6,0
   13a1c:	e75ff06f          	j	13890 <_dtoa_r+0xd98>
   13a20:	fff58513          	addi	a0,a1,-1 # 3fefffff <_gp+0x3fee2a7f>
   13a24:	0001b7b7          	lui	a5,0x1b
   13a28:	00351713          	slli	a4,a0,0x3
   13a2c:	e7878793          	addi	a5,a5,-392 # 1ae78 <__mprec_tens>
   13a30:	00f707b3          	add	a5,a4,a5
   13a34:	01212023          	sw	s2,0(sp)
   13a38:	01312223          	sw	s3,4(sp)
   13a3c:	0007b187          	fld	ft3,0(a5)
   13a40:	00013107          	fld	ft2,0(sp)
   13a44:	c20417d3          	fcvt.w.d	a5,fs0,rtz
   13a48:	03078713          	addi	a4,a5,48
   13a4c:	d2078053          	fcvt.d.w	ft0,a5
   13a50:	00e48023          	sb	a4,0(s1)
   13a54:	00100713          	li	a4,1
   13a58:	1221f1d3          	fmul.d	ft3,ft3,ft2
   13a5c:	0a047053          	fsub.d	ft0,fs0,ft0
   13a60:	00148d93          	addi	s11,s1,1
   13a64:	02e58a63          	beq	a1,a4,13a98 <_dtoa_r+0xfa0>
   13a68:	8481b107          	fld	ft2,-1976(gp) # 1cdc8 <__wctomb+0x30>
   13a6c:	00b485b3          	add	a1,s1,a1
   13a70:	000d8693          	mv	a3,s11
   13a74:	12207053          	fmul.d	ft0,ft0,ft2
   13a78:	00168693          	addi	a3,a3,1
   13a7c:	c2001753          	fcvt.w.d	a4,ft0,rtz
   13a80:	d20700d3          	fcvt.d.w	ft1,a4
   13a84:	03070713          	addi	a4,a4,48
   13a88:	0a107053          	fsub.d	ft0,ft0,ft1
   13a8c:	fee68fa3          	sb	a4,-1(a3)
   13a90:	feb692e3          	bne	a3,a1,13a74 <_dtoa_r+0xf7c>
   13a94:	00ad8db3          	add	s11,s11,a0
   13a98:	8601b087          	fld	ft1,-1952(gp) # 1cde0 <__wctomb+0x48>
   13a9c:	0211f153          	fadd.d	ft2,ft3,ft1
   13aa0:	a2011753          	flt.d	a4,ft2,ft0
   13aa4:	0c070463          	beqz	a4,13b6c <_dtoa_r+0x1074>
   13aa8:	fffdc703          	lbu	a4,-1(s11)
   13aac:	00060b93          	mv	s7,a2
   13ab0:	ee0ff06f          	j	13190 <_dtoa_r+0x698>
   13ab4:	03900793          	li	a5,57
   13ab8:	08fd0a63          	beq	s10,a5,13b4c <_dtoa_r+0x1054>
   13abc:	001d0d13          	addi	s10,s10,1
   13ac0:	cb1ff06f          	j	13770 <_dtoa_r+0xc78>
   13ac4:	000b0913          	mv	s2,s6
   13ac8:	000c8b13          	mv	s6,s9
   13acc:	b41ff06f          	j	1360c <_dtoa_r+0xb14>
   13ad0:	40f707b3          	sub	a5,a4,a5
   13ad4:	02f12023          	sw	a5,32(sp)
   13ad8:	00000793          	li	a5,0
   13adc:	f28ff06f          	j	13204 <_dtoa_r+0x70c>
   13ae0:	00100d93          	li	s11,1
   13ae4:	b21ff06f          	j	13604 <_dtoa_r+0xb0c>
   13ae8:	04812683          	lw	a3,72(sp)
   13aec:	02812703          	lw	a4,40(sp)
   13af0:	03600793          	li	a5,54
   13af4:	000c0d93          	mv	s11,s8
   13af8:	40d787b3          	sub	a5,a5,a3
   13afc:	02e12023          	sw	a4,32(sp)
   13b00:	f04ff06f          	j	13204 <_dtoa_r+0x70c>
   13b04:	01012783          	lw	a5,16(sp)
   13b08:	da0786e3          	beqz	a5,138b4 <_dtoa_r+0xdbc>
   13b0c:	03812703          	lw	a4,56(sp)
   13b10:	e4e050e3          	blez	a4,13950 <_dtoa_r+0xe58>
   13b14:	8481b007          	fld	ft0,-1976(gp) # 1cdc8 <__wctomb+0x30>
   13b18:	8501b087          	fld	ft1,-1968(gp) # 1cdd0 <__wctomb+0x38>
   13b1c:	12047453          	fmul.d	fs0,fs0,ft0
   13b20:	00198993          	addi	s3,s3,1
   13b24:	d2098053          	fcvt.d.w	ft0,s3
   13b28:	fcc007b7          	lui	a5,0xfcc00
   13b2c:	fffb8613          	addi	a2,s7,-1
   13b30:	03812583          	lw	a1,56(sp)
   13b34:	0a0470c3          	fmadd.d	ft1,fs0,ft0,ft1
   13b38:	00113027          	fsd	ft1,0(sp)
   13b3c:	00412983          	lw	s3,4(sp)
   13b40:	00012903          	lw	s2,0(sp)
   13b44:	013789b3          	add	s3,a5,s3
   13b48:	bd0ff06f          	j	12f18 <_dtoa_r+0x420>
   13b4c:	01012783          	lw	a5,16(sp)
   13b50:	03900713          	li	a4,57
   13b54:	000b0913          	mv	s2,s6
   13b58:	00178d93          	addi	s11,a5,1 # fcc00001 <_gp+0xfcbe2a81>
   13b5c:	000c8b13          	mv	s6,s9
   13b60:	00e78023          	sb	a4,0(a5)
   13b64:	03900693          	li	a3,57
   13b68:	ac9ff06f          	j	13630 <_dtoa_r+0xb38>
   13b6c:	0a30f1d3          	fsub.d	ft3,ft1,ft3
   13b70:	03000593          	li	a1,48
   13b74:	a2301753          	flt.d	a4,ft0,ft3
   13b78:	00071663          	bnez	a4,13b84 <_dtoa_r+0x108c>
   13b7c:	dd5ff06f          	j	13950 <_dtoa_r+0xe58>
   13b80:	00068d93          	mv	s11,a3
   13b84:	fffdc703          	lbu	a4,-1(s11)
   13b88:	fffd8693          	addi	a3,s11,-1
   13b8c:	feb70ae3          	beq	a4,a1,13b80 <_dtoa_r+0x1088>
   13b90:	00060b93          	mv	s7,a2
   13b94:	c54ff06f          	j	12fe8 <_dtoa_r+0x4f0>
   13b98:	00060b93          	mv	s7,a2
   13b9c:	df4ff06f          	j	13190 <_dtoa_r+0x698>
   13ba0:	c0051ce3          	bnez	a0,137b8 <_dtoa_r+0xcc0>
   13ba4:	01fd1693          	slli	a3,s10,0x1f
   13ba8:	c006d8e3          	bgez	a3,137b8 <_dtoa_r+0xcc0>
   13bac:	c01ff06f          	j	137ac <_dtoa_r+0xcb4>
   13bb0:	000b0593          	mv	a1,s6
   13bb4:	00040513          	mv	a0,s0
   13bb8:	00a00613          	li	a2,10
   13bbc:	00000693          	li	a3,0
   13bc0:	0ed010ef          	jal	154ac <__multadd>
   13bc4:	03812783          	lw	a5,56(sp)
   13bc8:	00050b13          	mv	s6,a0
   13bcc:	02f05663          	blez	a5,13bf8 <_dtoa_r+0x1100>
   13bd0:	00f12823          	sw	a5,16(sp)
   13bd4:	825ff06f          	j	133f8 <_dtoa_r+0x900>
   13bd8:	00200793          	li	a5,2
   13bdc:	0157c863          	blt	a5,s5,13bec <_dtoa_r+0x10f4>
   13be0:	03812783          	lw	a5,56(sp)
   13be4:	00f12823          	sw	a5,16(sp)
   13be8:	9d1ff06f          	j	135b8 <_dtoa_r+0xac0>
   13bec:	03812783          	lw	a5,56(sp)
   13bf0:	00f12823          	sw	a5,16(sp)
   13bf4:	c6dff06f          	j	13860 <_dtoa_r+0xd68>
   13bf8:	03812703          	lw	a4,56(sp)
   13bfc:	00200793          	li	a5,2
   13c00:	00e12823          	sw	a4,16(sp)
   13c04:	c557cee3          	blt	a5,s5,13860 <_dtoa_r+0xd68>
   13c08:	ff0ff06f          	j	133f8 <_dtoa_r+0x900>
   13c0c:	fae78063          	beq	a5,a4,133ac <_dtoa_r+0x8b4>
   13c10:	03c00793          	li	a5,60
   13c14:	40a78533          	sub	a0,a5,a0
   13c18:	929ff06f          	j	13540 <_dtoa_r+0xa48>

00013c1c <_fflush_r>:
   13c1c:	fe010113          	addi	sp,sp,-32
   13c20:	00812c23          	sw	s0,24(sp)
   13c24:	01312623          	sw	s3,12(sp)
   13c28:	00112e23          	sw	ra,28(sp)
   13c2c:	00912a23          	sw	s1,20(sp)
   13c30:	01212823          	sw	s2,16(sp)
   13c34:	00050993          	mv	s3,a0
   13c38:	00058413          	mv	s0,a1
   13c3c:	00050663          	beqz	a0,13c48 <_fflush_r+0x2c>
   13c40:	03852783          	lw	a5,56(a0)
   13c44:	18078863          	beqz	a5,13dd4 <_fflush_r+0x1b8>
   13c48:	00c41703          	lh	a4,12(s0)
   13c4c:	10070063          	beqz	a4,13d4c <_fflush_r+0x130>
   13c50:	00877793          	andi	a5,a4,8
   13c54:	10079c63          	bnez	a5,13d6c <_fflush_r+0x150>
   13c58:	000017b7          	lui	a5,0x1
   13c5c:	00442683          	lw	a3,4(s0)
   13c60:	80078793          	addi	a5,a5,-2048 # 800 <_ftext-0xf800>
   13c64:	00f767b3          	or	a5,a4,a5
   13c68:	00f41623          	sh	a5,12(s0)
   13c6c:	1ad05663          	blez	a3,13e18 <_fflush_r+0x1fc>
   13c70:	02842803          	lw	a6,40(s0)
   13c74:	0c080c63          	beqz	a6,13d4c <_fflush_r+0x130>
   13c78:	01079793          	slli	a5,a5,0x10
   13c7c:	0107d793          	srli	a5,a5,0x10
   13c80:	01379693          	slli	a3,a5,0x13
   13c84:	0009a483          	lw	s1,0(s3)
   13c88:	0009a023          	sw	zero,0(s3)
   13c8c:	1406dc63          	bgez	a3,13de4 <_fflush_r+0x1c8>
   13c90:	05042603          	lw	a2,80(s0)
   13c94:	41f65693          	srai	a3,a2,0x1f
   13c98:	0047f793          	andi	a5,a5,4
   13c9c:	04078263          	beqz	a5,13ce0 <_fflush_r+0xc4>
   13ca0:	00442503          	lw	a0,4(s0)
   13ca4:	03042703          	lw	a4,48(s0)
   13ca8:	40a607b3          	sub	a5,a2,a0
   13cac:	41f55513          	srai	a0,a0,0x1f
   13cb0:	00f635b3          	sltu	a1,a2,a5
   13cb4:	40a686b3          	sub	a3,a3,a0
   13cb8:	00078613          	mv	a2,a5
   13cbc:	40b686b3          	sub	a3,a3,a1
   13cc0:	02070063          	beqz	a4,13ce0 <_fflush_r+0xc4>
   13cc4:	03c42503          	lw	a0,60(s0)
   13cc8:	40a787b3          	sub	a5,a5,a0
   13ccc:	41f55513          	srai	a0,a0,0x1f
   13cd0:	00f63733          	sltu	a4,a2,a5
   13cd4:	40a686b3          	sub	a3,a3,a0
   13cd8:	00078613          	mv	a2,a5
   13cdc:	40e686b3          	sub	a3,a3,a4
   13ce0:	01c42583          	lw	a1,28(s0)
   13ce4:	00098513          	mv	a0,s3
   13ce8:	00000713          	li	a4,0
   13cec:	000800e7          	jalr	a6
   13cf0:	fff00793          	li	a5,-1
   13cf4:	12f50863          	beq	a0,a5,13e24 <_fflush_r+0x208>
   13cf8:	00c45683          	lhu	a3,12(s0)
   13cfc:	fffff7b7          	lui	a5,0xfffff
   13d00:	7ff78793          	addi	a5,a5,2047 # fffff7ff <_gp+0xfffe227f>
   13d04:	01042703          	lw	a4,16(s0)
   13d08:	00f6f7b3          	and	a5,a3,a5
   13d0c:	01079793          	slli	a5,a5,0x10
   13d10:	4107d793          	srai	a5,a5,0x10
   13d14:	00e42023          	sw	a4,0(s0)
   13d18:	01379713          	slli	a4,a5,0x13
   13d1c:	00f41623          	sh	a5,12(s0)
   13d20:	00042223          	sw	zero,4(s0)
   13d24:	00075463          	bgez	a4,13d2c <_fflush_r+0x110>
   13d28:	04a42823          	sw	a0,80(s0)
   13d2c:	03042583          	lw	a1,48(s0)
   13d30:	0099a023          	sw	s1,0(s3)
   13d34:	00058c63          	beqz	a1,13d4c <_fflush_r+0x130>
   13d38:	04040793          	addi	a5,s0,64
   13d3c:	00f58663          	beq	a1,a5,13d48 <_fflush_r+0x12c>
   13d40:	00098513          	mv	a0,s3
   13d44:	60c000ef          	jal	14350 <_free_r>
   13d48:	02042823          	sw	zero,48(s0)
   13d4c:	00000513          	li	a0,0
   13d50:	01c12083          	lw	ra,28(sp)
   13d54:	01812403          	lw	s0,24(sp)
   13d58:	01412483          	lw	s1,20(sp)
   13d5c:	01012903          	lw	s2,16(sp)
   13d60:	00c12983          	lw	s3,12(sp)
   13d64:	02010113          	addi	sp,sp,32
   13d68:	00008067          	ret
   13d6c:	01042903          	lw	s2,16(s0)
   13d70:	fc090ee3          	beqz	s2,13d4c <_fflush_r+0x130>
   13d74:	00042483          	lw	s1,0(s0)
   13d78:	01e71693          	slli	a3,a4,0x1e
   13d7c:	00000793          	li	a5,0
   13d80:	01242023          	sw	s2,0(s0)
   13d84:	412484b3          	sub	s1,s1,s2
   13d88:	04068a63          	beqz	a3,13ddc <_fflush_r+0x1c0>
   13d8c:	00f42423          	sw	a5,8(s0)
   13d90:	00904863          	bgtz	s1,13da0 <_fflush_r+0x184>
   13d94:	fb9ff06f          	j	13d4c <_fflush_r+0x130>
   13d98:	00a90933          	add	s2,s2,a0
   13d9c:	fa9058e3          	blez	s1,13d4c <_fflush_r+0x130>
   13da0:	02442783          	lw	a5,36(s0)
   13da4:	01c42583          	lw	a1,28(s0)
   13da8:	00048693          	mv	a3,s1
   13dac:	00090613          	mv	a2,s2
   13db0:	00098513          	mv	a0,s3
   13db4:	000780e7          	jalr	a5
   13db8:	40a484b3          	sub	s1,s1,a0
   13dbc:	fca04ee3          	bgtz	a0,13d98 <_fflush_r+0x17c>
   13dc0:	00c45783          	lhu	a5,12(s0)
   13dc4:	fff00513          	li	a0,-1
   13dc8:	0407e793          	ori	a5,a5,64
   13dcc:	00f41623          	sh	a5,12(s0)
   13dd0:	f81ff06f          	j	13d50 <_fflush_r+0x134>
   13dd4:	43c000ef          	jal	14210 <__sinit>
   13dd8:	e71ff06f          	j	13c48 <_fflush_r+0x2c>
   13ddc:	01442783          	lw	a5,20(s0)
   13de0:	fadff06f          	j	13d8c <_fflush_r+0x170>
   13de4:	01c42583          	lw	a1,28(s0)
   13de8:	00000613          	li	a2,0
   13dec:	00000693          	li	a3,0
   13df0:	00098513          	mv	a0,s3
   13df4:	00100713          	li	a4,1
   13df8:	000800e7          	jalr	a6
   13dfc:	fff00793          	li	a5,-1
   13e00:	00050613          	mv	a2,a0
   13e04:	00058693          	mv	a3,a1
   13e08:	08f50863          	beq	a0,a5,13e98 <_fflush_r+0x27c>
   13e0c:	00c45783          	lhu	a5,12(s0)
   13e10:	02842803          	lw	a6,40(s0)
   13e14:	e85ff06f          	j	13c98 <_fflush_r+0x7c>
   13e18:	03c42703          	lw	a4,60(s0)
   13e1c:	e4e04ae3          	bgtz	a4,13c70 <_fflush_r+0x54>
   13e20:	f2dff06f          	j	13d4c <_fflush_r+0x130>
   13e24:	eca59ae3          	bne	a1,a0,13cf8 <_fflush_r+0xdc>
   13e28:	0009a783          	lw	a5,0(s3)
   13e2c:	02078c63          	beqz	a5,13e64 <_fflush_r+0x248>
   13e30:	01d00713          	li	a4,29
   13e34:	00e78663          	beq	a5,a4,13e40 <_fflush_r+0x224>
   13e38:	01600713          	li	a4,22
   13e3c:	f8e792e3          	bne	a5,a4,13dc0 <_fflush_r+0x1a4>
   13e40:	00c45683          	lhu	a3,12(s0)
   13e44:	01042703          	lw	a4,16(s0)
   13e48:	fffff7b7          	lui	a5,0xfffff
   13e4c:	7ff78793          	addi	a5,a5,2047 # fffff7ff <_gp+0xfffe227f>
   13e50:	00f6f7b3          	and	a5,a3,a5
   13e54:	00f41623          	sh	a5,12(s0)
   13e58:	00042223          	sw	zero,4(s0)
   13e5c:	00e42023          	sw	a4,0(s0)
   13e60:	ecdff06f          	j	13d2c <_fflush_r+0x110>
   13e64:	00c45683          	lhu	a3,12(s0)
   13e68:	fffff7b7          	lui	a5,0xfffff
   13e6c:	7ff78793          	addi	a5,a5,2047 # fffff7ff <_gp+0xfffe227f>
   13e70:	00f6f7b3          	and	a5,a3,a5
   13e74:	01042703          	lw	a4,16(s0)
   13e78:	01079793          	slli	a5,a5,0x10
   13e7c:	4107d793          	srai	a5,a5,0x10
   13e80:	01379693          	slli	a3,a5,0x13
   13e84:	00f41623          	sh	a5,12(s0)
   13e88:	00042223          	sw	zero,4(s0)
   13e8c:	00e42023          	sw	a4,0(s0)
   13e90:	e806cce3          	bltz	a3,13d28 <_fflush_r+0x10c>
   13e94:	e99ff06f          	j	13d2c <_fflush_r+0x110>
   13e98:	f6a59ae3          	bne	a1,a0,13e0c <_fflush_r+0x1f0>
   13e9c:	0009a783          	lw	a5,0(s3)
   13ea0:	f60786e3          	beqz	a5,13e0c <_fflush_r+0x1f0>
   13ea4:	01d00713          	li	a4,29
   13ea8:	00e78663          	beq	a5,a4,13eb4 <_fflush_r+0x298>
   13eac:	01600713          	li	a4,22
   13eb0:	f0e798e3          	bne	a5,a4,13dc0 <_fflush_r+0x1a4>
   13eb4:	0099a023          	sw	s1,0(s3)
   13eb8:	00000513          	li	a0,0
   13ebc:	e95ff06f          	j	13d50 <_fflush_r+0x134>

00013ec0 <fflush>:
   13ec0:	00050593          	mv	a1,a0
   13ec4:	00050663          	beqz	a0,13ed0 <fflush+0x10>
   13ec8:	8081a503          	lw	a0,-2040(gp) # 1cd88 <_impure_ptr>
   13ecc:	d51ff06f          	j	13c1c <_fflush_r>
   13ed0:	8041a503          	lw	a0,-2044(gp) # 1cd84 <_global_impure_ptr>
   13ed4:	000145b7          	lui	a1,0x14
   13ed8:	c1c58593          	addi	a1,a1,-996 # 13c1c <_fflush_r>
   13edc:	7d80006f          	j	146b4 <_fwalk_reent>

00013ee0 <__fp_lock>:
   13ee0:	00000513          	li	a0,0
   13ee4:	00008067          	ret

00013ee8 <__fp_unlock>:
   13ee8:	00000513          	li	a0,0
   13eec:	00008067          	ret

00013ef0 <_cleanup_r>:
   13ef0:	000185b7          	lui	a1,0x18
   13ef4:	96058593          	addi	a1,a1,-1696 # 17960 <fclose>
   13ef8:	7180006f          	j	14610 <_fwalk>

00013efc <__sinit.part.1>:
   13efc:	fd010113          	addi	sp,sp,-48
   13f00:	000147b7          	lui	a5,0x14
   13f04:	02812423          	sw	s0,40(sp)
   13f08:	ef078793          	addi	a5,a5,-272 # 13ef0 <_cleanup_r>
   13f0c:	00452403          	lw	s0,4(a0)
   13f10:	02112623          	sw	ra,44(sp)
   13f14:	02912223          	sw	s1,36(sp)
   13f18:	03212023          	sw	s2,32(sp)
   13f1c:	01312e23          	sw	s3,28(sp)
   13f20:	01412c23          	sw	s4,24(sp)
   13f24:	01512a23          	sw	s5,20(sp)
   13f28:	01612823          	sw	s6,16(sp)
   13f2c:	01712623          	sw	s7,12(sp)
   13f30:	02f52e23          	sw	a5,60(a0)
   13f34:	00300793          	li	a5,3
   13f38:	2ef52223          	sw	a5,740(a0)
   13f3c:	2ec50713          	addi	a4,a0,748
   13f40:	00100b93          	li	s7,1
   13f44:	00400793          	li	a5,4
   13f48:	2ee52423          	sw	a4,744(a0)
   13f4c:	03752c23          	sw	s7,56(a0)
   13f50:	2e052023          	sw	zero,736(a0)
   13f54:	00050913          	mv	s2,a0
   13f58:	00f41623          	sh	a5,12(s0)
   13f5c:	00000593          	li	a1,0
   13f60:	00800613          	li	a2,8
   13f64:	00042023          	sw	zero,0(s0)
   13f68:	00042223          	sw	zero,4(s0)
   13f6c:	00042423          	sw	zero,8(s0)
   13f70:	06042223          	sw	zero,100(s0)
   13f74:	00041723          	sh	zero,14(s0)
   13f78:	00042823          	sw	zero,16(s0)
   13f7c:	00042a23          	sw	zero,20(s0)
   13f80:	00042c23          	sw	zero,24(s0)
   13f84:	05c40513          	addi	a0,s0,92
   13f88:	378010ef          	jal	15300 <memset>
   13f8c:	00892483          	lw	s1,8(s2)
   13f90:	00016b37          	lui	s6,0x16
   13f94:	00016ab7          	lui	s5,0x16
   13f98:	00016a37          	lui	s4,0x16
   13f9c:	000169b7          	lui	s3,0x16
   13fa0:	3f8b0b13          	addi	s6,s6,1016 # 163f8 <__sread>
   13fa4:	464a8a93          	addi	s5,s5,1124 # 16464 <__swrite>
   13fa8:	4dca0a13          	addi	s4,s4,1244 # 164dc <__sseek>
   13fac:	54498993          	addi	s3,s3,1348 # 16544 <__sclose>
   13fb0:	00900793          	li	a5,9
   13fb4:	03642023          	sw	s6,32(s0)
   13fb8:	03542223          	sw	s5,36(s0)
   13fbc:	03442423          	sw	s4,40(s0)
   13fc0:	03342623          	sw	s3,44(s0)
   13fc4:	00842e23          	sw	s0,28(s0)
   13fc8:	00000593          	li	a1,0
   13fcc:	00f49623          	sh	a5,12(s1)
   13fd0:	01749723          	sh	s7,14(s1)
   13fd4:	00800613          	li	a2,8
   13fd8:	0004a023          	sw	zero,0(s1)
   13fdc:	0004a223          	sw	zero,4(s1)
   13fe0:	0004a423          	sw	zero,8(s1)
   13fe4:	0604a223          	sw	zero,100(s1)
   13fe8:	0004a823          	sw	zero,16(s1)
   13fec:	0004aa23          	sw	zero,20(s1)
   13ff0:	0004ac23          	sw	zero,24(s1)
   13ff4:	05c48513          	addi	a0,s1,92
   13ff8:	308010ef          	jal	15300 <memset>
   13ffc:	00c92403          	lw	s0,12(s2)
   14000:	01200793          	li	a5,18
   14004:	0364a023          	sw	s6,32(s1)
   14008:	0354a223          	sw	s5,36(s1)
   1400c:	0344a423          	sw	s4,40(s1)
   14010:	0334a623          	sw	s3,44(s1)
   14014:	0094ae23          	sw	s1,28(s1)
   14018:	00f41623          	sh	a5,12(s0)
   1401c:	00200793          	li	a5,2
   14020:	05c40513          	addi	a0,s0,92
   14024:	00042023          	sw	zero,0(s0)
   14028:	00042223          	sw	zero,4(s0)
   1402c:	00042423          	sw	zero,8(s0)
   14030:	06042223          	sw	zero,100(s0)
   14034:	00f41723          	sh	a5,14(s0)
   14038:	00042823          	sw	zero,16(s0)
   1403c:	00042a23          	sw	zero,20(s0)
   14040:	00042c23          	sw	zero,24(s0)
   14044:	00000593          	li	a1,0
   14048:	00800613          	li	a2,8
   1404c:	2b4010ef          	jal	15300 <memset>
   14050:	02c12083          	lw	ra,44(sp)
   14054:	03642023          	sw	s6,32(s0)
   14058:	03542223          	sw	s5,36(s0)
   1405c:	03442423          	sw	s4,40(s0)
   14060:	03342623          	sw	s3,44(s0)
   14064:	00842e23          	sw	s0,28(s0)
   14068:	02412483          	lw	s1,36(sp)
   1406c:	02812403          	lw	s0,40(sp)
   14070:	02012903          	lw	s2,32(sp)
   14074:	01c12983          	lw	s3,28(sp)
   14078:	01812a03          	lw	s4,24(sp)
   1407c:	01412a83          	lw	s5,20(sp)
   14080:	01012b03          	lw	s6,16(sp)
   14084:	00c12b83          	lw	s7,12(sp)
   14088:	03010113          	addi	sp,sp,48
   1408c:	00008067          	ret

00014090 <__sfmoreglue>:
   14090:	ff010113          	addi	sp,sp,-16
   14094:	00912223          	sw	s1,4(sp)
   14098:	06800493          	li	s1,104
   1409c:	029584b3          	mul	s1,a1,s1
   140a0:	01212023          	sw	s2,0(sp)
   140a4:	00058913          	mv	s2,a1
   140a8:	00812423          	sw	s0,8(sp)
   140ac:	00112623          	sw	ra,12(sp)
   140b0:	00c48593          	addi	a1,s1,12
   140b4:	10d000ef          	jal	149c0 <_malloc_r>
   140b8:	00050413          	mv	s0,a0
   140bc:	02050063          	beqz	a0,140dc <__sfmoreglue+0x4c>
   140c0:	00c50513          	addi	a0,a0,12
   140c4:	00042023          	sw	zero,0(s0)
   140c8:	01242223          	sw	s2,4(s0)
   140cc:	00a42423          	sw	a0,8(s0)
   140d0:	00000593          	li	a1,0
   140d4:	00048613          	mv	a2,s1
   140d8:	228010ef          	jal	15300 <memset>
   140dc:	00c12083          	lw	ra,12(sp)
   140e0:	00040513          	mv	a0,s0
   140e4:	00412483          	lw	s1,4(sp)
   140e8:	00812403          	lw	s0,8(sp)
   140ec:	00012903          	lw	s2,0(sp)
   140f0:	01010113          	addi	sp,sp,16
   140f4:	00008067          	ret

000140f8 <__sfp>:
   140f8:	fe010113          	addi	sp,sp,-32
   140fc:	01212823          	sw	s2,16(sp)
   14100:	8041a903          	lw	s2,-2044(gp) # 1cd84 <_global_impure_ptr>
   14104:	01312623          	sw	s3,12(sp)
   14108:	00112e23          	sw	ra,28(sp)
   1410c:	03892783          	lw	a5,56(s2)
   14110:	00812c23          	sw	s0,24(sp)
   14114:	00912a23          	sw	s1,20(sp)
   14118:	00050993          	mv	s3,a0
   1411c:	00079663          	bnez	a5,14128 <__sfp+0x30>
   14120:	00090513          	mv	a0,s2
   14124:	dd9ff0ef          	jal	13efc <__sinit.part.1>
   14128:	2e090913          	addi	s2,s2,736
   1412c:	fff00493          	li	s1,-1
   14130:	00492783          	lw	a5,4(s2)
   14134:	00892403          	lw	s0,8(s2)
   14138:	fff78793          	addi	a5,a5,-1
   1413c:	0007da63          	bgez	a5,14150 <__sfp+0x58>
   14140:	0840006f          	j	141c4 <__sfp+0xcc>
   14144:	fff78793          	addi	a5,a5,-1
   14148:	06840413          	addi	s0,s0,104
   1414c:	06978c63          	beq	a5,s1,141c4 <__sfp+0xcc>
   14150:	00c41703          	lh	a4,12(s0)
   14154:	fe0718e3          	bnez	a4,14144 <__sfp+0x4c>
   14158:	fff00793          	li	a5,-1
   1415c:	00f41723          	sh	a5,14(s0)
   14160:	00100793          	li	a5,1
   14164:	00f41623          	sh	a5,12(s0)
   14168:	06042223          	sw	zero,100(s0)
   1416c:	00042023          	sw	zero,0(s0)
   14170:	00042423          	sw	zero,8(s0)
   14174:	00042223          	sw	zero,4(s0)
   14178:	00042823          	sw	zero,16(s0)
   1417c:	00042a23          	sw	zero,20(s0)
   14180:	00042c23          	sw	zero,24(s0)
   14184:	05c40513          	addi	a0,s0,92
   14188:	00000593          	li	a1,0
   1418c:	00800613          	li	a2,8
   14190:	170010ef          	jal	15300 <memset>
   14194:	02042823          	sw	zero,48(s0)
   14198:	02042a23          	sw	zero,52(s0)
   1419c:	04042223          	sw	zero,68(s0)
   141a0:	04042423          	sw	zero,72(s0)
   141a4:	00040513          	mv	a0,s0
   141a8:	01c12083          	lw	ra,28(sp)
   141ac:	01812403          	lw	s0,24(sp)
   141b0:	01412483          	lw	s1,20(sp)
   141b4:	01012903          	lw	s2,16(sp)
   141b8:	00c12983          	lw	s3,12(sp)
   141bc:	02010113          	addi	sp,sp,32
   141c0:	00008067          	ret
   141c4:	00092783          	lw	a5,0(s2)
   141c8:	00078663          	beqz	a5,141d4 <__sfp+0xdc>
   141cc:	00078913          	mv	s2,a5
   141d0:	f61ff06f          	j	14130 <__sfp+0x38>
   141d4:	00098513          	mv	a0,s3
   141d8:	00400593          	li	a1,4
   141dc:	eb5ff0ef          	jal	14090 <__sfmoreglue>
   141e0:	00a92023          	sw	a0,0(s2)
   141e4:	00050663          	beqz	a0,141f0 <__sfp+0xf8>
   141e8:	00050913          	mv	s2,a0
   141ec:	f45ff06f          	j	14130 <__sfp+0x38>
   141f0:	00c00793          	li	a5,12
   141f4:	00f9a023          	sw	a5,0(s3)
   141f8:	00000513          	li	a0,0
   141fc:	fadff06f          	j	141a8 <__sfp+0xb0>

00014200 <_cleanup>:
   14200:	8041a503          	lw	a0,-2044(gp) # 1cd84 <_global_impure_ptr>
   14204:	000185b7          	lui	a1,0x18
   14208:	96058593          	addi	a1,a1,-1696 # 17960 <fclose>
   1420c:	4040006f          	j	14610 <_fwalk>

00014210 <__sinit>:
   14210:	03852783          	lw	a5,56(a0)
   14214:	00078463          	beqz	a5,1421c <__sinit+0xc>
   14218:	00008067          	ret
   1421c:	ce1ff06f          	j	13efc <__sinit.part.1>

00014220 <__sfp_lock_acquire>:
   14220:	00008067          	ret

00014224 <__sfp_lock_release>:
   14224:	00008067          	ret

00014228 <__sinit_lock_acquire>:
   14228:	00008067          	ret

0001422c <__sinit_lock_release>:
   1422c:	00008067          	ret

00014230 <__fp_lock_all>:
   14230:	8081a503          	lw	a0,-2040(gp) # 1cd88 <_impure_ptr>
   14234:	000145b7          	lui	a1,0x14
   14238:	ee058593          	addi	a1,a1,-288 # 13ee0 <__fp_lock>
   1423c:	3d40006f          	j	14610 <_fwalk>

00014240 <__fp_unlock_all>:
   14240:	8081a503          	lw	a0,-2040(gp) # 1cd88 <_impure_ptr>
   14244:	000145b7          	lui	a1,0x14
   14248:	ee858593          	addi	a1,a1,-280 # 13ee8 <__fp_unlock>
   1424c:	3c40006f          	j	14610 <_fwalk>

00014250 <_malloc_trim_r>:
   14250:	fe010113          	addi	sp,sp,-32
   14254:	01212823          	sw	s2,16(sp)
   14258:	0001d937          	lui	s2,0x1d
   1425c:	97890913          	addi	s2,s2,-1672 # 1c978 <__malloc_av_>
   14260:	00812c23          	sw	s0,24(sp)
   14264:	00912a23          	sw	s1,20(sp)
   14268:	00058413          	mv	s0,a1
   1426c:	01312623          	sw	s3,12(sp)
   14270:	00112e23          	sw	ra,28(sp)
   14274:	00050993          	mv	s3,a0
   14278:	164010ef          	jal	153dc <__malloc_lock>
   1427c:	00892703          	lw	a4,8(s2)
   14280:	000017b7          	lui	a5,0x1
   14284:	fef78593          	addi	a1,a5,-17 # fef <_ftext-0xf011>
   14288:	00472483          	lw	s1,4(a4)
   1428c:	ffc4f493          	andi	s1,s1,-4
   14290:	40848433          	sub	s0,s1,s0
   14294:	00b40433          	add	s0,s0,a1
   14298:	00c45413          	srli	s0,s0,0xc
   1429c:	fff40413          	addi	s0,s0,-1
   142a0:	00c41413          	slli	s0,s0,0xc
   142a4:	00f44c63          	blt	s0,a5,142bc <_malloc_trim_r+0x6c>
   142a8:	00000513          	li	a0,0
   142ac:	28d040ef          	jal	18d38 <sbrk>
   142b0:	00892783          	lw	a5,8(s2)
   142b4:	009787b3          	add	a5,a5,s1
   142b8:	02f50663          	beq	a0,a5,142e4 <_malloc_trim_r+0x94>
   142bc:	00098513          	mv	a0,s3
   142c0:	120010ef          	jal	153e0 <__malloc_unlock>
   142c4:	00000513          	li	a0,0
   142c8:	01c12083          	lw	ra,28(sp)
   142cc:	01812403          	lw	s0,24(sp)
   142d0:	01412483          	lw	s1,20(sp)
   142d4:	01012903          	lw	s2,16(sp)
   142d8:	00c12983          	lw	s3,12(sp)
   142dc:	02010113          	addi	sp,sp,32
   142e0:	00008067          	ret
   142e4:	40800533          	neg	a0,s0
   142e8:	251040ef          	jal	18d38 <sbrk>
   142ec:	fff00793          	li	a5,-1
   142f0:	02f50863          	beq	a0,a5,14320 <_malloc_trim_r+0xd0>
   142f4:	8b41a783          	lw	a5,-1868(gp) # 1ce34 <__malloc_current_mallinfo>
   142f8:	00892683          	lw	a3,8(s2)
   142fc:	408484b3          	sub	s1,s1,s0
   14300:	0014e493          	ori	s1,s1,1
   14304:	40878433          	sub	s0,a5,s0
   14308:	00098513          	mv	a0,s3
   1430c:	0096a223          	sw	s1,4(a3)
   14310:	8a81aa23          	sw	s0,-1868(gp) # 1ce34 <__malloc_current_mallinfo>
   14314:	0cc010ef          	jal	153e0 <__malloc_unlock>
   14318:	00100513          	li	a0,1
   1431c:	fadff06f          	j	142c8 <_malloc_trim_r+0x78>
   14320:	00000513          	li	a0,0
   14324:	215040ef          	jal	18d38 <sbrk>
   14328:	00892703          	lw	a4,8(s2)
   1432c:	00f00693          	li	a3,15
   14330:	40e507b3          	sub	a5,a0,a4
   14334:	f8f6d4e3          	ble	a5,a3,142bc <_malloc_trim_r+0x6c>
   14338:	8101a683          	lw	a3,-2032(gp) # 1cd90 <__malloc_sbrk_base>
   1433c:	0017e793          	ori	a5,a5,1
   14340:	00f72223          	sw	a5,4(a4)
   14344:	40d50533          	sub	a0,a0,a3
   14348:	8aa1aa23          	sw	a0,-1868(gp) # 1ce34 <__malloc_current_mallinfo>
   1434c:	f71ff06f          	j	142bc <_malloc_trim_r+0x6c>

00014350 <_free_r>:
   14350:	12058463          	beqz	a1,14478 <_free_r+0x128>
   14354:	ff010113          	addi	sp,sp,-16
   14358:	00812423          	sw	s0,8(sp)
   1435c:	00058413          	mv	s0,a1
   14360:	00912223          	sw	s1,4(sp)
   14364:	00112623          	sw	ra,12(sp)
   14368:	00050493          	mv	s1,a0
   1436c:	070010ef          	jal	153dc <__malloc_lock>
   14370:	ffc42583          	lw	a1,-4(s0)
   14374:	0001d7b7          	lui	a5,0x1d
   14378:	ff840613          	addi	a2,s0,-8
   1437c:	ffe5f713          	andi	a4,a1,-2
   14380:	97878813          	addi	a6,a5,-1672 # 1c978 <__malloc_av_>
   14384:	00e606b3          	add	a3,a2,a4
   14388:	0046a783          	lw	a5,4(a3)
   1438c:	00882503          	lw	a0,8(a6)
   14390:	ffc7f793          	andi	a5,a5,-4
   14394:	12d50e63          	beq	a0,a3,144d0 <_free_r+0x180>
   14398:	01f59513          	slli	a0,a1,0x1f
   1439c:	00f6a223          	sw	a5,4(a3)
   143a0:	02054663          	bltz	a0,143cc <_free_r+0x7c>
   143a4:	ff842583          	lw	a1,-8(s0)
   143a8:	40b60633          	sub	a2,a2,a1
   143ac:	00862503          	lw	a0,8(a2)
   143b0:	00b70733          	add	a4,a4,a1
   143b4:	0001d5b7          	lui	a1,0x1d
   143b8:	98058593          	addi	a1,a1,-1664 # 1c980 <__malloc_av_+0x8>
   143bc:	16b50063          	beq	a0,a1,1451c <_free_r+0x1cc>
   143c0:	00c62583          	lw	a1,12(a2)
   143c4:	00b52623          	sw	a1,12(a0)
   143c8:	00a5a423          	sw	a0,8(a1)
   143cc:	00f685b3          	add	a1,a3,a5
   143d0:	0045a583          	lw	a1,4(a1)
   143d4:	01f59513          	slli	a0,a1,0x1f
   143d8:	02054c63          	bltz	a0,14410 <_free_r+0xc0>
   143dc:	0086a583          	lw	a1,8(a3)
   143e0:	00f70733          	add	a4,a4,a5
   143e4:	0001d7b7          	lui	a5,0x1d
   143e8:	98078793          	addi	a5,a5,-1664 # 1c980 <__malloc_av_+0x8>
   143ec:	1af58863          	beq	a1,a5,1459c <_free_r+0x24c>
   143f0:	00c6a503          	lw	a0,12(a3)
   143f4:	00e607b3          	add	a5,a2,a4
   143f8:	00176693          	ori	a3,a4,1
   143fc:	00a5a623          	sw	a0,12(a1)
   14400:	00b52423          	sw	a1,8(a0)
   14404:	00d62223          	sw	a3,4(a2)
   14408:	00e7a023          	sw	a4,0(a5)
   1440c:	0140006f          	j	14420 <_free_r+0xd0>
   14410:	00176793          	ori	a5,a4,1
   14414:	00e606b3          	add	a3,a2,a4
   14418:	00f62223          	sw	a5,4(a2)
   1441c:	00e6a023          	sw	a4,0(a3)
   14420:	1ff00793          	li	a5,511
   14424:	04e7ec63          	bltu	a5,a4,1447c <_free_r+0x12c>
   14428:	00375713          	srli	a4,a4,0x3
   1442c:	00371693          	slli	a3,a4,0x3
   14430:	00d806b3          	add	a3,a6,a3
   14434:	00482783          	lw	a5,4(a6)
   14438:	0086a503          	lw	a0,8(a3)
   1443c:	40275713          	srai	a4,a4,0x2
   14440:	00100593          	li	a1,1
   14444:	00e59733          	sll	a4,a1,a4
   14448:	00f76733          	or	a4,a4,a5
   1444c:	00d62623          	sw	a3,12(a2)
   14450:	00a62423          	sw	a0,8(a2)
   14454:	00e82223          	sw	a4,4(a6)
   14458:	00c6a423          	sw	a2,8(a3)
   1445c:	00c52623          	sw	a2,12(a0)
   14460:	00048513          	mv	a0,s1
   14464:	00c12083          	lw	ra,12(sp)
   14468:	00812403          	lw	s0,8(sp)
   1446c:	00412483          	lw	s1,4(sp)
   14470:	01010113          	addi	sp,sp,16
   14474:	76d0006f          	j	153e0 <__malloc_unlock>
   14478:	00008067          	ret
   1447c:	00975793          	srli	a5,a4,0x9
   14480:	00400693          	li	a3,4
   14484:	0ef6e263          	bltu	a3,a5,14568 <_free_r+0x218>
   14488:	00675693          	srli	a3,a4,0x6
   1448c:	03868693          	addi	a3,a3,56
   14490:	00169593          	slli	a1,a3,0x1
   14494:	00259593          	slli	a1,a1,0x2
   14498:	00b805b3          	add	a1,a6,a1
   1449c:	0085a783          	lw	a5,8(a1)
   144a0:	0cb78e63          	beq	a5,a1,1457c <_free_r+0x22c>
   144a4:	0047a683          	lw	a3,4(a5)
   144a8:	ffc6f693          	andi	a3,a3,-4
   144ac:	00d77663          	bleu	a3,a4,144b8 <_free_r+0x168>
   144b0:	0087a783          	lw	a5,8(a5)
   144b4:	fef598e3          	bne	a1,a5,144a4 <_free_r+0x154>
   144b8:	00c7a703          	lw	a4,12(a5)
   144bc:	00e62623          	sw	a4,12(a2)
   144c0:	00f62423          	sw	a5,8(a2)
   144c4:	00c72423          	sw	a2,8(a4)
   144c8:	00c7a623          	sw	a2,12(a5)
   144cc:	f95ff06f          	j	14460 <_free_r+0x110>
   144d0:	01f59513          	slli	a0,a1,0x1f
   144d4:	00e78733          	add	a4,a5,a4
   144d8:	02054063          	bltz	a0,144f8 <_free_r+0x1a8>
   144dc:	ff842583          	lw	a1,-8(s0)
   144e0:	40b60633          	sub	a2,a2,a1
   144e4:	00c62783          	lw	a5,12(a2)
   144e8:	00862683          	lw	a3,8(a2)
   144ec:	00b70733          	add	a4,a4,a1
   144f0:	00f6a623          	sw	a5,12(a3)
   144f4:	00d7a423          	sw	a3,8(a5)
   144f8:	8141a783          	lw	a5,-2028(gp) # 1cd94 <__malloc_trim_threshold>
   144fc:	00176693          	ori	a3,a4,1
   14500:	00d62223          	sw	a3,4(a2)
   14504:	00c82423          	sw	a2,8(a6)
   14508:	f4f76ce3          	bltu	a4,a5,14460 <_free_r+0x110>
   1450c:	88c1a583          	lw	a1,-1908(gp) # 1ce0c <__malloc_top_pad>
   14510:	00048513          	mv	a0,s1
   14514:	d3dff0ef          	jal	14250 <_malloc_trim_r>
   14518:	f49ff06f          	j	14460 <_free_r+0x110>
   1451c:	00f685b3          	add	a1,a3,a5
   14520:	0045a583          	lw	a1,4(a1)
   14524:	01f59513          	slli	a0,a1,0x1f
   14528:	02054663          	bltz	a0,14554 <_free_r+0x204>
   1452c:	00c6a583          	lw	a1,12(a3)
   14530:	0086a683          	lw	a3,8(a3)
   14534:	00f70733          	add	a4,a4,a5
   14538:	00176513          	ori	a0,a4,1
   1453c:	00e607b3          	add	a5,a2,a4
   14540:	00b6a623          	sw	a1,12(a3)
   14544:	00d5a423          	sw	a3,8(a1)
   14548:	00a62223          	sw	a0,4(a2)
   1454c:	00e7a023          	sw	a4,0(a5)
   14550:	f11ff06f          	j	14460 <_free_r+0x110>
   14554:	00176693          	ori	a3,a4,1
   14558:	00e607b3          	add	a5,a2,a4
   1455c:	00d62223          	sw	a3,4(a2)
   14560:	00e7a023          	sw	a4,0(a5)
   14564:	efdff06f          	j	14460 <_free_r+0x110>
   14568:	01400693          	li	a3,20
   1456c:	04f6ea63          	bltu	a3,a5,145c0 <_free_r+0x270>
   14570:	05b78693          	addi	a3,a5,91
   14574:	00169593          	slli	a1,a3,0x1
   14578:	f1dff06f          	j	14494 <_free_r+0x144>
   1457c:	00482703          	lw	a4,4(a6)
   14580:	4026d693          	srai	a3,a3,0x2
   14584:	00100593          	li	a1,1
   14588:	00d596b3          	sll	a3,a1,a3
   1458c:	00e6e6b3          	or	a3,a3,a4
   14590:	00d82223          	sw	a3,4(a6)
   14594:	00078713          	mv	a4,a5
   14598:	f25ff06f          	j	144bc <_free_r+0x16c>
   1459c:	00176693          	ori	a3,a4,1
   145a0:	00e607b3          	add	a5,a2,a4
   145a4:	00c82a23          	sw	a2,20(a6)
   145a8:	00c82823          	sw	a2,16(a6)
   145ac:	00b62623          	sw	a1,12(a2)
   145b0:	00b62423          	sw	a1,8(a2)
   145b4:	00d62223          	sw	a3,4(a2)
   145b8:	00e7a023          	sw	a4,0(a5)
   145bc:	ea5ff06f          	j	14460 <_free_r+0x110>
   145c0:	05400693          	li	a3,84
   145c4:	00f6ea63          	bltu	a3,a5,145d8 <_free_r+0x288>
   145c8:	00c75693          	srli	a3,a4,0xc
   145cc:	06e68693          	addi	a3,a3,110
   145d0:	00169593          	slli	a1,a3,0x1
   145d4:	ec1ff06f          	j	14494 <_free_r+0x144>
   145d8:	15400693          	li	a3,340
   145dc:	00f6ea63          	bltu	a3,a5,145f0 <_free_r+0x2a0>
   145e0:	00f75693          	srli	a3,a4,0xf
   145e4:	07768693          	addi	a3,a3,119
   145e8:	00169593          	slli	a1,a3,0x1
   145ec:	ea9ff06f          	j	14494 <_free_r+0x144>
   145f0:	55400513          	li	a0,1364
   145f4:	0fc00593          	li	a1,252
   145f8:	07e00693          	li	a3,126
   145fc:	e8f56ce3          	bltu	a0,a5,14494 <_free_r+0x144>
   14600:	01275693          	srli	a3,a4,0x12
   14604:	07c68693          	addi	a3,a3,124
   14608:	00169593          	slli	a1,a3,0x1
   1460c:	e89ff06f          	j	14494 <_free_r+0x144>

00014610 <_fwalk>:
   14610:	fe010113          	addi	sp,sp,-32
   14614:	01312623          	sw	s3,12(sp)
   14618:	2e050993          	addi	s3,a0,736
   1461c:	01412423          	sw	s4,8(sp)
   14620:	01512223          	sw	s5,4(sp)
   14624:	00112e23          	sw	ra,28(sp)
   14628:	00812c23          	sw	s0,24(sp)
   1462c:	00912a23          	sw	s1,20(sp)
   14630:	01212823          	sw	s2,16(sp)
   14634:	00058a93          	mv	s5,a1
   14638:	00000a13          	li	s4,0
   1463c:	be5ff0ef          	jal	14220 <__sfp_lock_acquire>
   14640:	04098463          	beqz	s3,14688 <_fwalk+0x78>
   14644:	fff00913          	li	s2,-1
   14648:	0049a483          	lw	s1,4(s3)
   1464c:	0089a403          	lw	s0,8(s3)
   14650:	fff48493          	addi	s1,s1,-1
   14654:	0204c663          	bltz	s1,14680 <_fwalk+0x70>
   14658:	00c41783          	lh	a5,12(s0)
   1465c:	fff48493          	addi	s1,s1,-1
   14660:	00078c63          	beqz	a5,14678 <_fwalk+0x68>
   14664:	00e41783          	lh	a5,14(s0)
   14668:	00040513          	mv	a0,s0
   1466c:	01278663          	beq	a5,s2,14678 <_fwalk+0x68>
   14670:	000a80e7          	jalr	s5
   14674:	00aa6a33          	or	s4,s4,a0
   14678:	06840413          	addi	s0,s0,104
   1467c:	fd249ee3          	bne	s1,s2,14658 <_fwalk+0x48>
   14680:	0009a983          	lw	s3,0(s3)
   14684:	fc0992e3          	bnez	s3,14648 <_fwalk+0x38>
   14688:	b9dff0ef          	jal	14224 <__sfp_lock_release>
   1468c:	01c12083          	lw	ra,28(sp)
   14690:	000a0513          	mv	a0,s4
   14694:	01812403          	lw	s0,24(sp)
   14698:	01412483          	lw	s1,20(sp)
   1469c:	01012903          	lw	s2,16(sp)
   146a0:	00c12983          	lw	s3,12(sp)
   146a4:	00812a03          	lw	s4,8(sp)
   146a8:	00412a83          	lw	s5,4(sp)
   146ac:	02010113          	addi	sp,sp,32
   146b0:	00008067          	ret

000146b4 <_fwalk_reent>:
   146b4:	fe010113          	addi	sp,sp,-32
   146b8:	01312623          	sw	s3,12(sp)
   146bc:	2e050993          	addi	s3,a0,736
   146c0:	01412423          	sw	s4,8(sp)
   146c4:	01512223          	sw	s5,4(sp)
   146c8:	01612023          	sw	s6,0(sp)
   146cc:	00112e23          	sw	ra,28(sp)
   146d0:	00812c23          	sw	s0,24(sp)
   146d4:	00912a23          	sw	s1,20(sp)
   146d8:	01212823          	sw	s2,16(sp)
   146dc:	00050a93          	mv	s5,a0
   146e0:	00058b13          	mv	s6,a1
   146e4:	00000a13          	li	s4,0
   146e8:	b39ff0ef          	jal	14220 <__sfp_lock_acquire>
   146ec:	04098663          	beqz	s3,14738 <_fwalk_reent+0x84>
   146f0:	fff00913          	li	s2,-1
   146f4:	0049a483          	lw	s1,4(s3)
   146f8:	0089a403          	lw	s0,8(s3)
   146fc:	fff48493          	addi	s1,s1,-1
   14700:	0204c863          	bltz	s1,14730 <_fwalk_reent+0x7c>
   14704:	00c41783          	lh	a5,12(s0)
   14708:	fff48493          	addi	s1,s1,-1
   1470c:	00078e63          	beqz	a5,14728 <_fwalk_reent+0x74>
   14710:	00e41783          	lh	a5,14(s0)
   14714:	00040593          	mv	a1,s0
   14718:	000a8513          	mv	a0,s5
   1471c:	01278663          	beq	a5,s2,14728 <_fwalk_reent+0x74>
   14720:	000b00e7          	jalr	s6
   14724:	00aa6a33          	or	s4,s4,a0
   14728:	06840413          	addi	s0,s0,104
   1472c:	fd249ce3          	bne	s1,s2,14704 <_fwalk_reent+0x50>
   14730:	0009a983          	lw	s3,0(s3)
   14734:	fc0990e3          	bnez	s3,146f4 <_fwalk_reent+0x40>
   14738:	aedff0ef          	jal	14224 <__sfp_lock_release>
   1473c:	01c12083          	lw	ra,28(sp)
   14740:	000a0513          	mv	a0,s4
   14744:	01812403          	lw	s0,24(sp)
   14748:	01412483          	lw	s1,20(sp)
   1474c:	01012903          	lw	s2,16(sp)
   14750:	00c12983          	lw	s3,12(sp)
   14754:	00812a03          	lw	s4,8(sp)
   14758:	00412a83          	lw	s5,4(sp)
   1475c:	00012b03          	lw	s6,0(sp)
   14760:	02010113          	addi	sp,sp,32
   14764:	00008067          	ret

00014768 <_setlocale_r>:
   14768:	ff010113          	addi	sp,sp,-16
   1476c:	00912223          	sw	s1,4(sp)
   14770:	00112623          	sw	ra,12(sp)
   14774:	00812423          	sw	s0,8(sp)
   14778:	0001b4b7          	lui	s1,0x1b
   1477c:	02060063          	beqz	a2,1479c <_setlocale_r+0x34>
   14780:	0001b5b7          	lui	a1,0x1b
   14784:	00060513          	mv	a0,a2
   14788:	2bc58593          	addi	a1,a1,700 # 1b2bc <__clz_tab+0x17c>
   1478c:	00060413          	mv	s0,a2
   14790:	5bd010ef          	jal	1654c <strcmp>
   14794:	0001b4b7          	lui	s1,0x1b
   14798:	00051e63          	bnez	a0,147b4 <_setlocale_r+0x4c>
   1479c:	26448513          	addi	a0,s1,612 # 1b264 <__clz_tab+0x124>
   147a0:	00c12083          	lw	ra,12(sp)
   147a4:	00812403          	lw	s0,8(sp)
   147a8:	00412483          	lw	s1,4(sp)
   147ac:	01010113          	addi	sp,sp,16
   147b0:	00008067          	ret
   147b4:	00040513          	mv	a0,s0
   147b8:	26448593          	addi	a1,s1,612
   147bc:	591010ef          	jal	1654c <strcmp>
   147c0:	fc050ee3          	beqz	a0,1479c <_setlocale_r+0x34>
   147c4:	0001b5b7          	lui	a1,0x1b
   147c8:	00040513          	mv	a0,s0
   147cc:	28858593          	addi	a1,a1,648 # 1b288 <__clz_tab+0x148>
   147d0:	57d010ef          	jal	1654c <strcmp>
   147d4:	fc0504e3          	beqz	a0,1479c <_setlocale_r+0x34>
   147d8:	00000513          	li	a0,0
   147dc:	fc5ff06f          	j	147a0 <_setlocale_r+0x38>

000147e0 <__locale_charset>:
   147e0:	0001d537          	lui	a0,0x1d
   147e4:	93850513          	addi	a0,a0,-1736 # 1c938 <lc_ctype_charset>
   147e8:	00008067          	ret

000147ec <__locale_msgcharset>:
   147ec:	0001d537          	lui	a0,0x1d
   147f0:	95850513          	addi	a0,a0,-1704 # 1c958 <lc_message_charset>
   147f4:	00008067          	ret

000147f8 <__locale_cjk_lang>:
   147f8:	00000513          	li	a0,0
   147fc:	00008067          	ret

00014800 <_localeconv_r>:
   14800:	0001b537          	lui	a0,0x1b
   14804:	e2c50513          	addi	a0,a0,-468 # 1ae2c <lconv>
   14808:	00008067          	ret

0001480c <setlocale>:
   1480c:	00050793          	mv	a5,a0
   14810:	8081a503          	lw	a0,-2040(gp) # 1cd88 <_impure_ptr>
   14814:	00058613          	mv	a2,a1
   14818:	00078593          	mv	a1,a5
   1481c:	f4dff06f          	j	14768 <_setlocale_r>

00014820 <localeconv>:
   14820:	0001b537          	lui	a0,0x1b
   14824:	e2c50513          	addi	a0,a0,-468 # 1ae2c <lconv>
   14828:	00008067          	ret

0001482c <__smakebuf_r>:
   1482c:	00c59783          	lh	a5,12(a1)
   14830:	f6010113          	addi	sp,sp,-160
   14834:	08912a23          	sw	s1,148(sp)
   14838:	01079493          	slli	s1,a5,0x10
   1483c:	0104d493          	srli	s1,s1,0x10
   14840:	0024f713          	andi	a4,s1,2
   14844:	08112e23          	sw	ra,156(sp)
   14848:	08812c23          	sw	s0,152(sp)
   1484c:	09212823          	sw	s2,144(sp)
   14850:	09312623          	sw	s3,140(sp)
   14854:	0e071263          	bnez	a4,14938 <__smakebuf_r+0x10c>
   14858:	00050913          	mv	s2,a0
   1485c:	00e59503          	lh	a0,14(a1)
   14860:	00058413          	mv	s0,a1
   14864:	04054c63          	bltz	a0,148bc <__smakebuf_r+0x90>
   14868:	00010593          	mv	a1,sp
   1486c:	218040ef          	jal	18a84 <fstat>
   14870:	04054063          	bltz	a0,148b0 <__smakebuf_r+0x84>
   14874:	01012703          	lw	a4,16(sp)
   14878:	0000f7b7          	lui	a5,0xf
   1487c:	ffffe9b7          	lui	s3,0xffffe
   14880:	00f777b3          	and	a5,a4,a5
   14884:	013789b3          	add	s3,a5,s3
   14888:	00008737          	lui	a4,0x8
   1488c:	0019b993          	seqz	s3,s3
   14890:	0ce78063          	beq	a5,a4,14950 <__smakebuf_r+0x124>
   14894:	00c45703          	lhu	a4,12(s0)
   14898:	000017b7          	lui	a5,0x1
   1489c:	80078793          	addi	a5,a5,-2048 # 800 <_ftext-0xf800>
   148a0:	00f767b3          	or	a5,a4,a5
   148a4:	00f41623          	sh	a5,12(s0)
   148a8:	40000493          	li	s1,1024
   148ac:	0380006f          	j	148e4 <__smakebuf_r+0xb8>
   148b0:	00c41783          	lh	a5,12(s0)
   148b4:	01079493          	slli	s1,a5,0x10
   148b8:	0104d493          	srli	s1,s1,0x10
   148bc:	0804f493          	andi	s1,s1,128
   148c0:	0014b493          	seqz	s1,s1
   148c4:	00001737          	lui	a4,0x1
   148c8:	409004b3          	neg	s1,s1
   148cc:	80070713          	addi	a4,a4,-2048 # 800 <_ftext-0xf800>
   148d0:	3c04f493          	andi	s1,s1,960
   148d4:	00e7e7b3          	or	a5,a5,a4
   148d8:	04048493          	addi	s1,s1,64
   148dc:	00f41623          	sh	a5,12(s0)
   148e0:	00000993          	li	s3,0
   148e4:	00090513          	mv	a0,s2
   148e8:	00048593          	mv	a1,s1
   148ec:	0d4000ef          	jal	149c0 <_malloc_r>
   148f0:	0a050263          	beqz	a0,14994 <__smakebuf_r+0x168>
   148f4:	00c45783          	lhu	a5,12(s0)
   148f8:	00014737          	lui	a4,0x14
   148fc:	ef070713          	addi	a4,a4,-272 # 13ef0 <_cleanup_r>
   14900:	0807e793          	ori	a5,a5,128
   14904:	02e92e23          	sw	a4,60(s2)
   14908:	00f41623          	sh	a5,12(s0)
   1490c:	00a42023          	sw	a0,0(s0)
   14910:	00a42823          	sw	a0,16(s0)
   14914:	00942a23          	sw	s1,20(s0)
   14918:	06099063          	bnez	s3,14978 <__smakebuf_r+0x14c>
   1491c:	09c12083          	lw	ra,156(sp)
   14920:	09812403          	lw	s0,152(sp)
   14924:	09412483          	lw	s1,148(sp)
   14928:	09012903          	lw	s2,144(sp)
   1492c:	08c12983          	lw	s3,140(sp)
   14930:	0a010113          	addi	sp,sp,160
   14934:	00008067          	ret
   14938:	04358793          	addi	a5,a1,67
   1493c:	00f5a023          	sw	a5,0(a1)
   14940:	00f5a823          	sw	a5,16(a1)
   14944:	00100793          	li	a5,1
   14948:	00f5aa23          	sw	a5,20(a1)
   1494c:	fd1ff06f          	j	1491c <__smakebuf_r+0xf0>
   14950:	02842703          	lw	a4,40(s0)
   14954:	000167b7          	lui	a5,0x16
   14958:	4dc78793          	addi	a5,a5,1244 # 164dc <__sseek>
   1495c:	f2f71ce3          	bne	a4,a5,14894 <__smakebuf_r+0x68>
   14960:	00c45783          	lhu	a5,12(s0)
   14964:	40000493          	li	s1,1024
   14968:	04942623          	sw	s1,76(s0)
   1496c:	0097e7b3          	or	a5,a5,s1
   14970:	00f41623          	sh	a5,12(s0)
   14974:	f71ff06f          	j	148e4 <__smakebuf_r+0xb8>
   14978:	00e41503          	lh	a0,14(s0)
   1497c:	270040ef          	jal	18bec <isatty>
   14980:	f8050ee3          	beqz	a0,1491c <__smakebuf_r+0xf0>
   14984:	00c45783          	lhu	a5,12(s0)
   14988:	0017e793          	ori	a5,a5,1
   1498c:	00f41623          	sh	a5,12(s0)
   14990:	f8dff06f          	j	1491c <__smakebuf_r+0xf0>
   14994:	00c41783          	lh	a5,12(s0)
   14998:	2007f713          	andi	a4,a5,512
   1499c:	f80710e3          	bnez	a4,1491c <__smakebuf_r+0xf0>
   149a0:	0027e793          	ori	a5,a5,2
   149a4:	04340713          	addi	a4,s0,67
   149a8:	00f41623          	sh	a5,12(s0)
   149ac:	00100793          	li	a5,1
   149b0:	00e42023          	sw	a4,0(s0)
   149b4:	00e42823          	sw	a4,16(s0)
   149b8:	00f42a23          	sw	a5,20(s0)
   149bc:	f61ff06f          	j	1491c <__smakebuf_r+0xf0>

000149c0 <_malloc_r>:
   149c0:	fd010113          	addi	sp,sp,-48
   149c4:	02912223          	sw	s1,36(sp)
   149c8:	01600793          	li	a5,22
   149cc:	00b58493          	addi	s1,a1,11
   149d0:	01312e23          	sw	s3,28(sp)
   149d4:	02112623          	sw	ra,44(sp)
   149d8:	02812423          	sw	s0,40(sp)
   149dc:	03212023          	sw	s2,32(sp)
   149e0:	01412c23          	sw	s4,24(sp)
   149e4:	01512a23          	sw	s5,20(sp)
   149e8:	01612823          	sw	s6,16(sp)
   149ec:	01712623          	sw	s7,12(sp)
   149f0:	01812423          	sw	s8,8(sp)
   149f4:	01912223          	sw	s9,4(sp)
   149f8:	00050993          	mv	s3,a0
   149fc:	0a97f063          	bleu	s1,a5,14a9c <_malloc_r+0xdc>
   14a00:	ff84f493          	andi	s1,s1,-8
   14a04:	2204cc63          	bltz	s1,14c3c <_malloc_r+0x27c>
   14a08:	22b4ea63          	bltu	s1,a1,14c3c <_malloc_r+0x27c>
   14a0c:	1d1000ef          	jal	153dc <__malloc_lock>
   14a10:	1f700793          	li	a5,503
   14a14:	0897ec63          	bltu	a5,s1,14aac <_malloc_r+0xec>
   14a18:	0034d693          	srli	a3,s1,0x3
   14a1c:	0001d937          	lui	s2,0x1d
   14a20:	97890913          	addi	s2,s2,-1672 # 1c978 <__malloc_av_>
   14a24:	00369793          	slli	a5,a3,0x3
   14a28:	00f907b3          	add	a5,s2,a5
   14a2c:	00c7a403          	lw	s0,12(a5)
   14a30:	4ef40463          	beq	s0,a5,14f18 <_malloc_r+0x558>
   14a34:	00442783          	lw	a5,4(s0)
   14a38:	00c42683          	lw	a3,12(s0)
   14a3c:	00842603          	lw	a2,8(s0)
   14a40:	ffc7f793          	andi	a5,a5,-4
   14a44:	00f407b3          	add	a5,s0,a5
   14a48:	0047a703          	lw	a4,4(a5)
   14a4c:	00098513          	mv	a0,s3
   14a50:	00d62623          	sw	a3,12(a2)
   14a54:	00176713          	ori	a4,a4,1
   14a58:	00c6a423          	sw	a2,8(a3)
   14a5c:	00e7a223          	sw	a4,4(a5)
   14a60:	181000ef          	jal	153e0 <__malloc_unlock>
   14a64:	00840513          	addi	a0,s0,8
   14a68:	02c12083          	lw	ra,44(sp)
   14a6c:	02812403          	lw	s0,40(sp)
   14a70:	02412483          	lw	s1,36(sp)
   14a74:	02012903          	lw	s2,32(sp)
   14a78:	01c12983          	lw	s3,28(sp)
   14a7c:	01812a03          	lw	s4,24(sp)
   14a80:	01412a83          	lw	s5,20(sp)
   14a84:	01012b03          	lw	s6,16(sp)
   14a88:	00c12b83          	lw	s7,12(sp)
   14a8c:	00812c03          	lw	s8,8(sp)
   14a90:	00412c83          	lw	s9,4(sp)
   14a94:	03010113          	addi	sp,sp,48
   14a98:	00008067          	ret
   14a9c:	01000493          	li	s1,16
   14aa0:	18b4ee63          	bltu	s1,a1,14c3c <_malloc_r+0x27c>
   14aa4:	139000ef          	jal	153dc <__malloc_lock>
   14aa8:	f71ff06f          	j	14a18 <_malloc_r+0x58>
   14aac:	0094d793          	srli	a5,s1,0x9
   14ab0:	07e00693          	li	a3,126
   14ab4:	03f00593          	li	a1,63
   14ab8:	18079a63          	bnez	a5,14c4c <_malloc_r+0x28c>
   14abc:	0001d937          	lui	s2,0x1d
   14ac0:	97890913          	addi	s2,s2,-1672 # 1c978 <__malloc_av_>
   14ac4:	00269693          	slli	a3,a3,0x2
   14ac8:	00d906b3          	add	a3,s2,a3
   14acc:	00c6a403          	lw	s0,12(a3)
   14ad0:	02868c63          	beq	a3,s0,14b08 <_malloc_r+0x148>
   14ad4:	00442783          	lw	a5,4(s0)
   14ad8:	00f00613          	li	a2,15
   14adc:	ffc7f793          	andi	a5,a5,-4
   14ae0:	40978733          	sub	a4,a5,s1
   14ae4:	02e64063          	blt	a2,a4,14b04 <_malloc_r+0x144>
   14ae8:	18075e63          	bgez	a4,14c84 <_malloc_r+0x2c4>
   14aec:	00c42403          	lw	s0,12(s0)
   14af0:	00868c63          	beq	a3,s0,14b08 <_malloc_r+0x148>
   14af4:	00442783          	lw	a5,4(s0)
   14af8:	ffc7f793          	andi	a5,a5,-4
   14afc:	40978733          	sub	a4,a5,s1
   14b00:	fee654e3          	ble	a4,a2,14ae8 <_malloc_r+0x128>
   14b04:	fff58593          	addi	a1,a1,-1
   14b08:	00158693          	addi	a3,a1,1
   14b0c:	01092403          	lw	s0,16(s2)
   14b10:	00890813          	addi	a6,s2,8
   14b14:	3f040463          	beq	s0,a6,14efc <_malloc_r+0x53c>
   14b18:	00442783          	lw	a5,4(s0)
   14b1c:	00f00613          	li	a2,15
   14b20:	ffc7f793          	andi	a5,a5,-4
   14b24:	40978733          	sub	a4,a5,s1
   14b28:	38e64c63          	blt	a2,a4,14ec0 <_malloc_r+0x500>
   14b2c:	01092a23          	sw	a6,20(s2)
   14b30:	01092823          	sw	a6,16(s2)
   14b34:	12075863          	bgez	a4,14c64 <_malloc_r+0x2a4>
   14b38:	1ff00713          	li	a4,511
   14b3c:	32f76463          	bltu	a4,a5,14e64 <_malloc_r+0x4a4>
   14b40:	0037d793          	srli	a5,a5,0x3
   14b44:	00379613          	slli	a2,a5,0x3
   14b48:	00c90633          	add	a2,s2,a2
   14b4c:	00492703          	lw	a4,4(s2)
   14b50:	00862503          	lw	a0,8(a2)
   14b54:	4027d793          	srai	a5,a5,0x2
   14b58:	00100593          	li	a1,1
   14b5c:	00f597b3          	sll	a5,a1,a5
   14b60:	00e7e7b3          	or	a5,a5,a4
   14b64:	00c42623          	sw	a2,12(s0)
   14b68:	00a42423          	sw	a0,8(s0)
   14b6c:	00f92223          	sw	a5,4(s2)
   14b70:	00862423          	sw	s0,8(a2)
   14b74:	00852623          	sw	s0,12(a0)
   14b78:	4026d613          	srai	a2,a3,0x2
   14b7c:	00100713          	li	a4,1
   14b80:	00c71633          	sll	a2,a4,a2
   14b84:	12c7e863          	bltu	a5,a2,14cb4 <_malloc_r+0x2f4>
   14b88:	00c7f733          	and	a4,a5,a2
   14b8c:	02071463          	bnez	a4,14bb4 <_malloc_r+0x1f4>
   14b90:	00161613          	slli	a2,a2,0x1
   14b94:	ffc6f693          	andi	a3,a3,-4
   14b98:	00c7f733          	and	a4,a5,a2
   14b9c:	00468693          	addi	a3,a3,4
   14ba0:	00071a63          	bnez	a4,14bb4 <_malloc_r+0x1f4>
   14ba4:	00161613          	slli	a2,a2,0x1
   14ba8:	00c7f733          	and	a4,a5,a2
   14bac:	00468693          	addi	a3,a3,4
   14bb0:	fe070ae3          	beqz	a4,14ba4 <_malloc_r+0x1e4>
   14bb4:	00f00513          	li	a0,15
   14bb8:	00369893          	slli	a7,a3,0x3
   14bbc:	011908b3          	add	a7,s2,a7
   14bc0:	00088593          	mv	a1,a7
   14bc4:	00068293          	mv	t0,a3
   14bc8:	00c5a403          	lw	s0,12(a1)
   14bcc:	00859a63          	bne	a1,s0,14be0 <_malloc_r+0x220>
   14bd0:	3340006f          	j	14f04 <_malloc_r+0x544>
   14bd4:	34075c63          	bgez	a4,14f2c <_malloc_r+0x56c>
   14bd8:	00c42403          	lw	s0,12(s0)
   14bdc:	32858463          	beq	a1,s0,14f04 <_malloc_r+0x544>
   14be0:	00442783          	lw	a5,4(s0)
   14be4:	ffc7f793          	andi	a5,a5,-4
   14be8:	40978733          	sub	a4,a5,s1
   14bec:	fee554e3          	ble	a4,a0,14bd4 <_malloc_r+0x214>
   14bf0:	00c42683          	lw	a3,12(s0)
   14bf4:	00842603          	lw	a2,8(s0)
   14bf8:	009407b3          	add	a5,s0,s1
   14bfc:	00176893          	ori	a7,a4,1
   14c00:	00e785b3          	add	a1,a5,a4
   14c04:	0014e493          	ori	s1,s1,1
   14c08:	00942223          	sw	s1,4(s0)
   14c0c:	00098513          	mv	a0,s3
   14c10:	00d62623          	sw	a3,12(a2)
   14c14:	00c6a423          	sw	a2,8(a3)
   14c18:	00f92a23          	sw	a5,20(s2)
   14c1c:	00f92823          	sw	a5,16(s2)
   14c20:	0107a623          	sw	a6,12(a5)
   14c24:	0107a423          	sw	a6,8(a5)
   14c28:	0117a223          	sw	a7,4(a5)
   14c2c:	00e5a023          	sw	a4,0(a1)
   14c30:	7b0000ef          	jal	153e0 <__malloc_unlock>
   14c34:	00840513          	addi	a0,s0,8
   14c38:	e31ff06f          	j	14a68 <_malloc_r+0xa8>
   14c3c:	00c00793          	li	a5,12
   14c40:	00f9a023          	sw	a5,0(s3) # ffffe000 <_gp+0xfffe0a80>
   14c44:	00000513          	li	a0,0
   14c48:	e21ff06f          	j	14a68 <_malloc_r+0xa8>
   14c4c:	00400713          	li	a4,4
   14c50:	1ef76a63          	bltu	a4,a5,14e44 <_malloc_r+0x484>
   14c54:	0064d693          	srli	a3,s1,0x6
   14c58:	03868593          	addi	a1,a3,56
   14c5c:	00159693          	slli	a3,a1,0x1
   14c60:	e5dff06f          	j	14abc <_malloc_r+0xfc>
   14c64:	00f407b3          	add	a5,s0,a5
   14c68:	0047a703          	lw	a4,4(a5)
   14c6c:	00098513          	mv	a0,s3
   14c70:	00176713          	ori	a4,a4,1
   14c74:	00e7a223          	sw	a4,4(a5)
   14c78:	768000ef          	jal	153e0 <__malloc_unlock>
   14c7c:	00840513          	addi	a0,s0,8
   14c80:	de9ff06f          	j	14a68 <_malloc_r+0xa8>
   14c84:	00f407b3          	add	a5,s0,a5
   14c88:	0047a703          	lw	a4,4(a5)
   14c8c:	00c42683          	lw	a3,12(s0)
   14c90:	00842603          	lw	a2,8(s0)
   14c94:	00176713          	ori	a4,a4,1
   14c98:	00098513          	mv	a0,s3
   14c9c:	00d62623          	sw	a3,12(a2)
   14ca0:	00c6a423          	sw	a2,8(a3)
   14ca4:	00e7a223          	sw	a4,4(a5)
   14ca8:	738000ef          	jal	153e0 <__malloc_unlock>
   14cac:	00840513          	addi	a0,s0,8
   14cb0:	db9ff06f          	j	14a68 <_malloc_r+0xa8>
   14cb4:	00892403          	lw	s0,8(s2)
   14cb8:	00442a03          	lw	s4,4(s0)
   14cbc:	ffca7a13          	andi	s4,s4,-4
   14cc0:	009a6863          	bltu	s4,s1,14cd0 <_malloc_r+0x310>
   14cc4:	409a07b3          	sub	a5,s4,s1
   14cc8:	00f00713          	li	a4,15
   14ccc:	14f74863          	blt	a4,a5,14e1c <_malloc_r+0x45c>
   14cd0:	88c1aa83          	lw	s5,-1908(gp) # 1ce0c <__malloc_top_pad>
   14cd4:	8101a703          	lw	a4,-2032(gp) # 1cd90 <__malloc_sbrk_base>
   14cd8:	fff00793          	li	a5,-1
   14cdc:	01440b33          	add	s6,s0,s4
   14ce0:	01548ab3          	add	s5,s1,s5
   14ce4:	36f70463          	beq	a4,a5,1504c <_malloc_r+0x68c>
   14ce8:	000017b7          	lui	a5,0x1
   14cec:	00f78793          	addi	a5,a5,15 # 100f <_ftext-0xeff1>
   14cf0:	00fa8ab3          	add	s5,s5,a5
   14cf4:	fffff7b7          	lui	a5,0xfffff
   14cf8:	00fafab3          	and	s5,s5,a5
   14cfc:	000a8513          	mv	a0,s5
   14d00:	038040ef          	jal	18d38 <sbrk>
   14d04:	fff00793          	li	a5,-1
   14d08:	00050b93          	mv	s7,a0
   14d0c:	26f50863          	beq	a0,a5,14f7c <_malloc_r+0x5bc>
   14d10:	27656463          	bltu	a0,s6,14f78 <_malloc_r+0x5b8>
   14d14:	8b418c13          	addi	s8,gp,-1868 # 1ce34 <__malloc_current_mallinfo>
   14d18:	000c2783          	lw	a5,0(s8)
   14d1c:	00fa87b3          	add	a5,s5,a5
   14d20:	00fc2023          	sw	a5,0(s8)
   14d24:	357b0463          	beq	s6,s7,1506c <_malloc_r+0x6ac>
   14d28:	8101a683          	lw	a3,-2032(gp) # 1cd90 <__malloc_sbrk_base>
   14d2c:	fff00713          	li	a4,-1
   14d30:	36e68c63          	beq	a3,a4,150a8 <_malloc_r+0x6e8>
   14d34:	416b8b33          	sub	s6,s7,s6
   14d38:	016787b3          	add	a5,a5,s6
   14d3c:	00fc2023          	sw	a5,0(s8)
   14d40:	007bf713          	andi	a4,s7,7
   14d44:	000017b7          	lui	a5,0x1
   14d48:	00070a63          	beqz	a4,14d5c <_malloc_r+0x39c>
   14d4c:	40eb8bb3          	sub	s7,s7,a4
   14d50:	00878793          	addi	a5,a5,8 # 1008 <_ftext-0xeff8>
   14d54:	008b8b93          	addi	s7,s7,8
   14d58:	40e787b3          	sub	a5,a5,a4
   14d5c:	00001737          	lui	a4,0x1
   14d60:	fff70713          	addi	a4,a4,-1 # fff <_ftext-0xf001>
   14d64:	015b8ab3          	add	s5,s7,s5
   14d68:	00eafab3          	and	s5,s5,a4
   14d6c:	41578ab3          	sub	s5,a5,s5
   14d70:	000a8513          	mv	a0,s5
   14d74:	7c5030ef          	jal	18d38 <sbrk>
   14d78:	fff00793          	li	a5,-1
   14d7c:	32f50063          	beq	a0,a5,1509c <_malloc_r+0x6dc>
   14d80:	41750733          	sub	a4,a0,s7
   14d84:	00ea8733          	add	a4,s5,a4
   14d88:	00176713          	ori	a4,a4,1
   14d8c:	000c2783          	lw	a5,0(s8)
   14d90:	01792423          	sw	s7,8(s2)
   14d94:	00eba223          	sw	a4,4(s7)
   14d98:	00fa87b3          	add	a5,s5,a5
   14d9c:	00fc2023          	sw	a5,0(s8)
   14da0:	03240c63          	beq	s0,s2,14dd8 <_malloc_r+0x418>
   14da4:	00f00693          	li	a3,15
   14da8:	2746f863          	bleu	s4,a3,15018 <_malloc_r+0x658>
   14dac:	ff4a0a13          	addi	s4,s4,-12
   14db0:	ff8a7a13          	andi	s4,s4,-8
   14db4:	01440733          	add	a4,s0,s4
   14db8:	00500613          	li	a2,5
   14dbc:	00c72223          	sw	a2,4(a4)
   14dc0:	00c72423          	sw	a2,8(a4)
   14dc4:	00442703          	lw	a4,4(s0)
   14dc8:	00177713          	andi	a4,a4,1
   14dcc:	00ea6733          	or	a4,s4,a4
   14dd0:	00e42223          	sw	a4,4(s0)
   14dd4:	2b46ea63          	bltu	a3,s4,15088 <_malloc_r+0x6c8>
   14dd8:	8881a683          	lw	a3,-1912(gp) # 1ce08 <__malloc_max_sbrked_mem>
   14ddc:	00f6f463          	bleu	a5,a3,14de4 <_malloc_r+0x424>
   14de0:	88f1a423          	sw	a5,-1912(gp) # 1ce08 <__malloc_max_sbrked_mem>
   14de4:	8841a683          	lw	a3,-1916(gp) # 1ce04 <__malloc_max_total_mem>
   14de8:	00892403          	lw	s0,8(s2)
   14dec:	00f6f463          	bleu	a5,a3,14df4 <_malloc_r+0x434>
   14df0:	88f1a223          	sw	a5,-1916(gp) # 1ce04 <__malloc_max_total_mem>
   14df4:	00442703          	lw	a4,4(s0)
   14df8:	ffc77713          	andi	a4,a4,-4
   14dfc:	409707b3          	sub	a5,a4,s1
   14e00:	00976663          	bltu	a4,s1,14e0c <_malloc_r+0x44c>
   14e04:	00f00713          	li	a4,15
   14e08:	00f74a63          	blt	a4,a5,14e1c <_malloc_r+0x45c>
   14e0c:	00098513          	mv	a0,s3
   14e10:	5d0000ef          	jal	153e0 <__malloc_unlock>
   14e14:	00000513          	li	a0,0
   14e18:	c51ff06f          	j	14a68 <_malloc_r+0xa8>
   14e1c:	00940733          	add	a4,s0,s1
   14e20:	0017e793          	ori	a5,a5,1
   14e24:	0014e493          	ori	s1,s1,1
   14e28:	00942223          	sw	s1,4(s0)
   14e2c:	00098513          	mv	a0,s3
   14e30:	00e92423          	sw	a4,8(s2)
   14e34:	00f72223          	sw	a5,4(a4)
   14e38:	5a8000ef          	jal	153e0 <__malloc_unlock>
   14e3c:	00840513          	addi	a0,s0,8
   14e40:	c29ff06f          	j	14a68 <_malloc_r+0xa8>
   14e44:	01400713          	li	a4,20
   14e48:	10f77a63          	bleu	a5,a4,14f5c <_malloc_r+0x59c>
   14e4c:	05400713          	li	a4,84
   14e50:	18f76863          	bltu	a4,a5,14fe0 <_malloc_r+0x620>
   14e54:	00c4d693          	srli	a3,s1,0xc
   14e58:	06e68593          	addi	a1,a3,110
   14e5c:	00159693          	slli	a3,a1,0x1
   14e60:	c5dff06f          	j	14abc <_malloc_r+0xfc>
   14e64:	0097d713          	srli	a4,a5,0x9
   14e68:	00400613          	li	a2,4
   14e6c:	0ee67e63          	bleu	a4,a2,14f68 <_malloc_r+0x5a8>
   14e70:	01400613          	li	a2,20
   14e74:	1ee66063          	bltu	a2,a4,15054 <_malloc_r+0x694>
   14e78:	05b70513          	addi	a0,a4,91
   14e7c:	00151593          	slli	a1,a0,0x1
   14e80:	00259593          	slli	a1,a1,0x2
   14e84:	00b905b3          	add	a1,s2,a1
   14e88:	0085a703          	lw	a4,8(a1)
   14e8c:	16b70663          	beq	a4,a1,14ff8 <_malloc_r+0x638>
   14e90:	00472603          	lw	a2,4(a4)
   14e94:	ffc67613          	andi	a2,a2,-4
   14e98:	00c7f663          	bleu	a2,a5,14ea4 <_malloc_r+0x4e4>
   14e9c:	00872703          	lw	a4,8(a4)
   14ea0:	fee598e3          	bne	a1,a4,14e90 <_malloc_r+0x4d0>
   14ea4:	00c72603          	lw	a2,12(a4)
   14ea8:	00492783          	lw	a5,4(s2)
   14eac:	00c42623          	sw	a2,12(s0)
   14eb0:	00e42423          	sw	a4,8(s0)
   14eb4:	00862423          	sw	s0,8(a2)
   14eb8:	00872623          	sw	s0,12(a4)
   14ebc:	cbdff06f          	j	14b78 <_malloc_r+0x1b8>
   14ec0:	009407b3          	add	a5,s0,s1
   14ec4:	00176613          	ori	a2,a4,1
   14ec8:	00e786b3          	add	a3,a5,a4
   14ecc:	0014e493          	ori	s1,s1,1
   14ed0:	00942223          	sw	s1,4(s0)
   14ed4:	00098513          	mv	a0,s3
   14ed8:	00f92a23          	sw	a5,20(s2)
   14edc:	00f92823          	sw	a5,16(s2)
   14ee0:	0107a623          	sw	a6,12(a5)
   14ee4:	0107a423          	sw	a6,8(a5)
   14ee8:	00c7a223          	sw	a2,4(a5)
   14eec:	00e6a023          	sw	a4,0(a3)
   14ef0:	4f0000ef          	jal	153e0 <__malloc_unlock>
   14ef4:	00840513          	addi	a0,s0,8
   14ef8:	b71ff06f          	j	14a68 <_malloc_r+0xa8>
   14efc:	00492783          	lw	a5,4(s2)
   14f00:	c79ff06f          	j	14b78 <_malloc_r+0x1b8>
   14f04:	00128293          	addi	t0,t0,1
   14f08:	01e29713          	slli	a4,t0,0x1e
   14f0c:	00858593          	addi	a1,a1,8
   14f10:	ca071ce3          	bnez	a4,14bc8 <_malloc_r+0x208>
   14f14:	0840006f          	j	14f98 <_malloc_r+0x5d8>
   14f18:	00840793          	addi	a5,s0,8
   14f1c:	01442403          	lw	s0,20(s0)
   14f20:	00268693          	addi	a3,a3,2
   14f24:	be8784e3          	beq	a5,s0,14b0c <_malloc_r+0x14c>
   14f28:	b0dff06f          	j	14a34 <_malloc_r+0x74>
   14f2c:	00f407b3          	add	a5,s0,a5
   14f30:	0047a703          	lw	a4,4(a5)
   14f34:	00c42683          	lw	a3,12(s0)
   14f38:	00842603          	lw	a2,8(s0)
   14f3c:	00176713          	ori	a4,a4,1
   14f40:	00e7a223          	sw	a4,4(a5)
   14f44:	00098513          	mv	a0,s3
   14f48:	00d62623          	sw	a3,12(a2)
   14f4c:	00c6a423          	sw	a2,8(a3)
   14f50:	490000ef          	jal	153e0 <__malloc_unlock>
   14f54:	00840513          	addi	a0,s0,8
   14f58:	b11ff06f          	j	14a68 <_malloc_r+0xa8>
   14f5c:	05b78593          	addi	a1,a5,91
   14f60:	00159693          	slli	a3,a1,0x1
   14f64:	b59ff06f          	j	14abc <_malloc_r+0xfc>
   14f68:	0067d513          	srli	a0,a5,0x6
   14f6c:	03850513          	addi	a0,a0,56
   14f70:	00151593          	slli	a1,a0,0x1
   14f74:	f0dff06f          	j	14e80 <_malloc_r+0x4c0>
   14f78:	d9240ee3          	beq	s0,s2,14d14 <_malloc_r+0x354>
   14f7c:	00892403          	lw	s0,8(s2)
   14f80:	00442703          	lw	a4,4(s0)
   14f84:	ffc77713          	andi	a4,a4,-4
   14f88:	e75ff06f          	j	14dfc <_malloc_r+0x43c>
   14f8c:	0008a883          	lw	a7,0(a7)
   14f90:	fff68693          	addi	a3,a3,-1
   14f94:	14f89a63          	bne	a7,a5,150e8 <_malloc_r+0x728>
   14f98:	01e69713          	slli	a4,a3,0x1e
   14f9c:	ff888793          	addi	a5,a7,-8
   14fa0:	fe0716e3          	bnez	a4,14f8c <_malloc_r+0x5cc>
   14fa4:	00492783          	lw	a5,4(s2)
   14fa8:	fff64713          	not	a4,a2
   14fac:	00f777b3          	and	a5,a4,a5
   14fb0:	00f92223          	sw	a5,4(s2)
   14fb4:	00161613          	slli	a2,a2,0x1
   14fb8:	cec7eee3          	bltu	a5,a2,14cb4 <_malloc_r+0x2f4>
   14fbc:	ce060ce3          	beqz	a2,14cb4 <_malloc_r+0x2f4>
   14fc0:	00c7f733          	and	a4,a5,a2
   14fc4:	00028693          	mv	a3,t0
   14fc8:	be0718e3          	bnez	a4,14bb8 <_malloc_r+0x1f8>
   14fcc:	00161613          	slli	a2,a2,0x1
   14fd0:	00c7f733          	and	a4,a5,a2
   14fd4:	00468693          	addi	a3,a3,4
   14fd8:	fe070ae3          	beqz	a4,14fcc <_malloc_r+0x60c>
   14fdc:	bddff06f          	j	14bb8 <_malloc_r+0x1f8>
   14fe0:	15400713          	li	a4,340
   14fe4:	04f76463          	bltu	a4,a5,1502c <_malloc_r+0x66c>
   14fe8:	00f4d693          	srli	a3,s1,0xf
   14fec:	07768593          	addi	a1,a3,119
   14ff0:	00159693          	slli	a3,a1,0x1
   14ff4:	ac9ff06f          	j	14abc <_malloc_r+0xfc>
   14ff8:	00492603          	lw	a2,4(s2)
   14ffc:	40255513          	srai	a0,a0,0x2
   15000:	00100793          	li	a5,1
   15004:	00a797b3          	sll	a5,a5,a0
   15008:	00c7e7b3          	or	a5,a5,a2
   1500c:	00f92223          	sw	a5,4(s2)
   15010:	00070613          	mv	a2,a4
   15014:	e99ff06f          	j	14eac <_malloc_r+0x4ec>
   15018:	00100793          	li	a5,1
   1501c:	00fba223          	sw	a5,4(s7)
   15020:	000b8413          	mv	s0,s7
   15024:	00000713          	li	a4,0
   15028:	dd5ff06f          	j	14dfc <_malloc_r+0x43c>
   1502c:	55400713          	li	a4,1364
   15030:	0fc00693          	li	a3,252
   15034:	07e00593          	li	a1,126
   15038:	a8f762e3          	bltu	a4,a5,14abc <_malloc_r+0xfc>
   1503c:	0124d693          	srli	a3,s1,0x12
   15040:	07c68593          	addi	a1,a3,124
   15044:	00159693          	slli	a3,a1,0x1
   15048:	a75ff06f          	j	14abc <_malloc_r+0xfc>
   1504c:	010a8a93          	addi	s5,s5,16
   15050:	cadff06f          	j	14cfc <_malloc_r+0x33c>
   15054:	05400613          	li	a2,84
   15058:	04e66c63          	bltu	a2,a4,150b0 <_malloc_r+0x6f0>
   1505c:	00c7d513          	srli	a0,a5,0xc
   15060:	06e50513          	addi	a0,a0,110
   15064:	00151593          	slli	a1,a0,0x1
   15068:	e19ff06f          	j	14e80 <_malloc_r+0x4c0>
   1506c:	014b1713          	slli	a4,s6,0x14
   15070:	ca071ce3          	bnez	a4,14d28 <_malloc_r+0x368>
   15074:	00892703          	lw	a4,8(s2)
   15078:	014a8a33          	add	s4,s5,s4
   1507c:	001a6a13          	ori	s4,s4,1
   15080:	01472223          	sw	s4,4(a4)
   15084:	d55ff06f          	j	14dd8 <_malloc_r+0x418>
   15088:	00098513          	mv	a0,s3
   1508c:	00840593          	addi	a1,s0,8
   15090:	ac0ff0ef          	jal	14350 <_free_r>
   15094:	000c2783          	lw	a5,0(s8)
   15098:	d41ff06f          	j	14dd8 <_malloc_r+0x418>
   1509c:	00100713          	li	a4,1
   150a0:	00000a93          	li	s5,0
   150a4:	ce9ff06f          	j	14d8c <_malloc_r+0x3cc>
   150a8:	8171a823          	sw	s7,-2032(gp) # 1cd90 <__malloc_sbrk_base>
   150ac:	c95ff06f          	j	14d40 <_malloc_r+0x380>
   150b0:	15400613          	li	a2,340
   150b4:	00e66a63          	bltu	a2,a4,150c8 <_malloc_r+0x708>
   150b8:	00f7d513          	srli	a0,a5,0xf
   150bc:	07750513          	addi	a0,a0,119
   150c0:	00151593          	slli	a1,a0,0x1
   150c4:	dbdff06f          	j	14e80 <_malloc_r+0x4c0>
   150c8:	55400613          	li	a2,1364
   150cc:	0fc00593          	li	a1,252
   150d0:	07e00513          	li	a0,126
   150d4:	dae666e3          	bltu	a2,a4,14e80 <_malloc_r+0x4c0>
   150d8:	0127d513          	srli	a0,a5,0x12
   150dc:	07c50513          	addi	a0,a0,124
   150e0:	00151593          	slli	a1,a0,0x1
   150e4:	d9dff06f          	j	14e80 <_malloc_r+0x4c0>
   150e8:	00492783          	lw	a5,4(s2)
   150ec:	ec9ff06f          	j	14fb4 <_malloc_r+0x5f4>

000150f0 <memchr>:
   150f0:	01e51713          	slli	a4,a0,0x1e
   150f4:	0ff5f693          	andi	a3,a1,255
   150f8:	0c070263          	beqz	a4,151bc <memchr+0xcc>
   150fc:	fff60793          	addi	a5,a2,-1
   15100:	06060063          	beqz	a2,15160 <memchr+0x70>
   15104:	00054703          	lbu	a4,0(a0)
   15108:	00d71c63          	bne	a4,a3,15120 <memchr+0x30>
   1510c:	0b80006f          	j	151c4 <memchr+0xd4>
   15110:	04078863          	beqz	a5,15160 <memchr+0x70>
   15114:	00054703          	lbu	a4,0(a0)
   15118:	fff78793          	addi	a5,a5,-1
   1511c:	04d70463          	beq	a4,a3,15164 <memchr+0x74>
   15120:	00150513          	addi	a0,a0,1
   15124:	01e51713          	slli	a4,a0,0x1e
   15128:	fe0714e3          	bnez	a4,15110 <memchr+0x20>
   1512c:	00300813          	li	a6,3
   15130:	02f86c63          	bltu	a6,a5,15168 <memchr+0x78>
   15134:	02078663          	beqz	a5,15160 <memchr+0x70>
   15138:	00054703          	lbu	a4,0(a0)
   1513c:	08d70663          	beq	a4,a3,151c8 <memchr+0xd8>
   15140:	00150713          	addi	a4,a0,1
   15144:	00f507b3          	add	a5,a0,a5
   15148:	0100006f          	j	15158 <memchr+0x68>
   1514c:	00170713          	addi	a4,a4,1
   15150:	fff74603          	lbu	a2,-1(a4)
   15154:	06d60263          	beq	a2,a3,151b8 <memchr+0xc8>
   15158:	00070513          	mv	a0,a4
   1515c:	fef718e3          	bne	a4,a5,1514c <memchr+0x5c>
   15160:	00000513          	li	a0,0
   15164:	00008067          	ret
   15168:	0ff5f593          	andi	a1,a1,255
   1516c:	00859613          	slli	a2,a1,0x8
   15170:	00b665b3          	or	a1,a2,a1
   15174:	01059613          	slli	a2,a1,0x10
   15178:	feff02b7          	lui	t0,0xfeff0
   1517c:	808088b7          	lui	a7,0x80808
   15180:	00b66633          	or	a2,a2,a1
   15184:	eff28293          	addi	t0,t0,-257 # fefefeff <_gp+0xfefd297f>
   15188:	08088893          	addi	a7,a7,128 # 80808080 <_gp+0x807eab00>
   1518c:	00052703          	lw	a4,0(a0)
   15190:	00e64733          	xor	a4,a2,a4
   15194:	005705b3          	add	a1,a4,t0
   15198:	fff74713          	not	a4,a4
   1519c:	00e5f733          	and	a4,a1,a4
   151a0:	01177733          	and	a4,a4,a7
   151a4:	f80718e3          	bnez	a4,15134 <memchr+0x44>
   151a8:	ffc78793          	addi	a5,a5,-4
   151ac:	00450513          	addi	a0,a0,4
   151b0:	fcf86ee3          	bltu	a6,a5,1518c <memchr+0x9c>
   151b4:	f81ff06f          	j	15134 <memchr+0x44>
   151b8:	00008067          	ret
   151bc:	00060793          	mv	a5,a2
   151c0:	f6dff06f          	j	1512c <memchr+0x3c>
   151c4:	00008067          	ret
   151c8:	00008067          	ret

000151cc <memcpy>:
   151cc:	00a5c7b3          	xor	a5,a1,a0
   151d0:	01e79713          	slli	a4,a5,0x1e
   151d4:	00c508b3          	add	a7,a0,a2
   151d8:	0e071263          	bnez	a4,152bc <memcpy+0xf0>
   151dc:	00300793          	li	a5,3
   151e0:	0ec7fe63          	bleu	a2,a5,152dc <memcpy+0x110>
   151e4:	01e51793          	slli	a5,a0,0x1e
   151e8:	04079a63          	bnez	a5,1523c <memcpy+0x70>
   151ec:	ffc8f813          	andi	a6,a7,-4
   151f0:	fe080793          	addi	a5,a6,-32
   151f4:	00050713          	mv	a4,a0
   151f8:	06f56663          	bltu	a0,a5,15264 <memcpy+0x98>
   151fc:	00058693          	mv	a3,a1
   15200:	00070793          	mv	a5,a4
   15204:	03077863          	bleu	a6,a4,15234 <memcpy+0x68>
   15208:	0006a603          	lw	a2,0(a3)
   1520c:	00478793          	addi	a5,a5,4
   15210:	00468693          	addi	a3,a3,4
   15214:	fec7ae23          	sw	a2,-4(a5)
   15218:	ff07e8e3          	bltu	a5,a6,15208 <memcpy+0x3c>
   1521c:	fff74793          	not	a5,a4
   15220:	01078833          	add	a6,a5,a6
   15224:	ffc87813          	andi	a6,a6,-4
   15228:	00480813          	addi	a6,a6,4
   1522c:	01070733          	add	a4,a4,a6
   15230:	010585b3          	add	a1,a1,a6
   15234:	09176863          	bltu	a4,a7,152c4 <memcpy+0xf8>
   15238:	00008067          	ret
   1523c:	00050713          	mv	a4,a0
   15240:	0005c783          	lbu	a5,0(a1)
   15244:	00170713          	addi	a4,a4,1
   15248:	00158593          	addi	a1,a1,1
   1524c:	fef70fa3          	sb	a5,-1(a4)
   15250:	01e71793          	slli	a5,a4,0x1e
   15254:	fe0796e3          	bnez	a5,15240 <memcpy+0x74>
   15258:	ffc8f813          	andi	a6,a7,-4
   1525c:	fe080793          	addi	a5,a6,-32
   15260:	f8f77ee3          	bleu	a5,a4,151fc <memcpy+0x30>
   15264:	0005af83          	lw	t6,0(a1)
   15268:	0045af03          	lw	t5,4(a1)
   1526c:	0085ae83          	lw	t4,8(a1)
   15270:	00c5ae03          	lw	t3,12(a1)
   15274:	0105a383          	lw	t2,16(a1)
   15278:	0145a303          	lw	t1,20(a1)
   1527c:	0185a283          	lw	t0,24(a1)
   15280:	01c5a603          	lw	a2,28(a1)
   15284:	02458593          	addi	a1,a1,36
   15288:	02470713          	addi	a4,a4,36
   1528c:	ffc5a683          	lw	a3,-4(a1)
   15290:	fdf72e23          	sw	t6,-36(a4)
   15294:	ffe72023          	sw	t5,-32(a4)
   15298:	ffd72223          	sw	t4,-28(a4)
   1529c:	ffc72423          	sw	t3,-24(a4)
   152a0:	fe772623          	sw	t2,-20(a4)
   152a4:	fe672823          	sw	t1,-16(a4)
   152a8:	fe572a23          	sw	t0,-12(a4)
   152ac:	fec72c23          	sw	a2,-8(a4)
   152b0:	fed72e23          	sw	a3,-4(a4)
   152b4:	faf768e3          	bltu	a4,a5,15264 <memcpy+0x98>
   152b8:	f45ff06f          	j	151fc <memcpy+0x30>
   152bc:	00050713          	mv	a4,a0
   152c0:	03157e63          	bleu	a7,a0,152fc <memcpy+0x130>
   152c4:	0005c783          	lbu	a5,0(a1)
   152c8:	00170713          	addi	a4,a4,1
   152cc:	00158593          	addi	a1,a1,1
   152d0:	fef70fa3          	sb	a5,-1(a4)
   152d4:	ff1768e3          	bltu	a4,a7,152c4 <memcpy+0xf8>
   152d8:	00008067          	ret
   152dc:	00050713          	mv	a4,a0
   152e0:	f5157ce3          	bleu	a7,a0,15238 <memcpy+0x6c>
   152e4:	0005c783          	lbu	a5,0(a1)
   152e8:	00170713          	addi	a4,a4,1
   152ec:	00158593          	addi	a1,a1,1
   152f0:	fef70fa3          	sb	a5,-1(a4)
   152f4:	fd1768e3          	bltu	a4,a7,152c4 <memcpy+0xf8>
   152f8:	fe1ff06f          	j	152d8 <memcpy+0x10c>
   152fc:	00008067          	ret

00015300 <memset>:
   15300:	00f00813          	li	a6,15
   15304:	00050713          	mv	a4,a0
   15308:	02c87e63          	bleu	a2,a6,15344 <memset+0x44>
   1530c:	00f77793          	andi	a5,a4,15
   15310:	0a079063          	bnez	a5,153b0 <memset+0xb0>
   15314:	08059263          	bnez	a1,15398 <memset+0x98>
   15318:	ff067693          	andi	a3,a2,-16
   1531c:	00f67613          	andi	a2,a2,15
   15320:	00e686b3          	add	a3,a3,a4
   15324:	00b72023          	sw	a1,0(a4)
   15328:	00b72223          	sw	a1,4(a4)
   1532c:	00b72423          	sw	a1,8(a4)
   15330:	00b72623          	sw	a1,12(a4)
   15334:	01070713          	addi	a4,a4,16
   15338:	fed766e3          	bltu	a4,a3,15324 <memset+0x24>
   1533c:	00061463          	bnez	a2,15344 <memset+0x44>
   15340:	00008067          	ret
   15344:	40c806b3          	sub	a3,a6,a2
   15348:	00269693          	slli	a3,a3,0x2
   1534c:	00000297          	auipc	t0,0x0
   15350:	005686b3          	add	a3,a3,t0
   15354:	00c68067          	jr	a3,12
   15358:	00b70723          	sb	a1,14(a4)
   1535c:	00b706a3          	sb	a1,13(a4)
   15360:	00b70623          	sb	a1,12(a4)
   15364:	00b705a3          	sb	a1,11(a4)
   15368:	00b70523          	sb	a1,10(a4)
   1536c:	00b704a3          	sb	a1,9(a4)
   15370:	00b70423          	sb	a1,8(a4)
   15374:	00b703a3          	sb	a1,7(a4)
   15378:	00b70323          	sb	a1,6(a4)
   1537c:	00b702a3          	sb	a1,5(a4)
   15380:	00b70223          	sb	a1,4(a4)
   15384:	00b701a3          	sb	a1,3(a4)
   15388:	00b70123          	sb	a1,2(a4)
   1538c:	00b700a3          	sb	a1,1(a4)
   15390:	00b70023          	sb	a1,0(a4)
   15394:	00008067          	ret
   15398:	0ff5f593          	andi	a1,a1,255
   1539c:	00859693          	slli	a3,a1,0x8
   153a0:	00d5e5b3          	or	a1,a1,a3
   153a4:	01059693          	slli	a3,a1,0x10
   153a8:	00d5e5b3          	or	a1,a1,a3
   153ac:	f6dff06f          	j	15318 <memset+0x18>
   153b0:	00279693          	slli	a3,a5,0x2
   153b4:	00000297          	auipc	t0,0x0
   153b8:	005686b3          	add	a3,a3,t0
   153bc:	00008293          	mv	t0,ra
   153c0:	fa0680e7          	jalr	a3,-96
   153c4:	00028093          	mv	ra,t0
   153c8:	ff078793          	addi	a5,a5,-16
   153cc:	40f70733          	sub	a4,a4,a5
   153d0:	00f60633          	add	a2,a2,a5
   153d4:	f6c878e3          	bleu	a2,a6,15344 <memset+0x44>
   153d8:	f3dff06f          	j	15314 <memset+0x14>

000153dc <__malloc_lock>:
   153dc:	00008067          	ret

000153e0 <__malloc_unlock>:
   153e0:	00008067          	ret

000153e4 <_Balloc>:
   153e4:	04c52783          	lw	a5,76(a0)
   153e8:	ff010113          	addi	sp,sp,-16
   153ec:	00812423          	sw	s0,8(sp)
   153f0:	00912223          	sw	s1,4(sp)
   153f4:	00112623          	sw	ra,12(sp)
   153f8:	01212023          	sw	s2,0(sp)
   153fc:	00050413          	mv	s0,a0
   15400:	00058493          	mv	s1,a1
   15404:	02078e63          	beqz	a5,15440 <_Balloc+0x5c>
   15408:	00249713          	slli	a4,s1,0x2
   1540c:	00e78733          	add	a4,a5,a4
   15410:	00072503          	lw	a0,0(a4)
   15414:	04050663          	beqz	a0,15460 <_Balloc+0x7c>
   15418:	00052683          	lw	a3,0(a0)
   1541c:	00d72023          	sw	a3,0(a4)
   15420:	00052823          	sw	zero,16(a0)
   15424:	00052623          	sw	zero,12(a0)
   15428:	00c12083          	lw	ra,12(sp)
   1542c:	00812403          	lw	s0,8(sp)
   15430:	00412483          	lw	s1,4(sp)
   15434:	00012903          	lw	s2,0(sp)
   15438:	01010113          	addi	sp,sp,16
   1543c:	00008067          	ret
   15440:	00400593          	li	a1,4
   15444:	02100613          	li	a2,33
   15448:	360020ef          	jal	177a8 <_calloc_r>
   1544c:	00050793          	mv	a5,a0
   15450:	04a42623          	sw	a0,76(s0)
   15454:	fa051ae3          	bnez	a0,15408 <_Balloc+0x24>
   15458:	00000513          	li	a0,0
   1545c:	fcdff06f          	j	15428 <_Balloc+0x44>
   15460:	00100593          	li	a1,1
   15464:	00959933          	sll	s2,a1,s1
   15468:	00590613          	addi	a2,s2,5
   1546c:	00040513          	mv	a0,s0
   15470:	00261613          	slli	a2,a2,0x2
   15474:	334020ef          	jal	177a8 <_calloc_r>
   15478:	fe0500e3          	beqz	a0,15458 <_Balloc+0x74>
   1547c:	00952223          	sw	s1,4(a0)
   15480:	01252423          	sw	s2,8(a0)
   15484:	f9dff06f          	j	15420 <_Balloc+0x3c>

00015488 <_Bfree>:
   15488:	02058063          	beqz	a1,154a8 <_Bfree+0x20>
   1548c:	0045a783          	lw	a5,4(a1)
   15490:	04c52703          	lw	a4,76(a0)
   15494:	00279793          	slli	a5,a5,0x2
   15498:	00f707b3          	add	a5,a4,a5
   1549c:	0007a703          	lw	a4,0(a5)
   154a0:	00e5a023          	sw	a4,0(a1)
   154a4:	00b7a023          	sw	a1,0(a5)
   154a8:	00008067          	ret

000154ac <__multadd>:
   154ac:	fd010113          	addi	sp,sp,-48
   154b0:	02812423          	sw	s0,40(sp)
   154b4:	0105a403          	lw	s0,16(a1)
   154b8:	000102b7          	lui	t0,0x10
   154bc:	02912223          	sw	s1,36(sp)
   154c0:	03212023          	sw	s2,32(sp)
   154c4:	02112623          	sw	ra,44(sp)
   154c8:	01312e23          	sw	s3,28(sp)
   154cc:	00058493          	mv	s1,a1
   154d0:	00050913          	mv	s2,a0
   154d4:	01458813          	addi	a6,a1,20
   154d8:	00000893          	li	a7,0
   154dc:	fff28293          	addi	t0,t0,-1 # ffff <_ftext-0x1>
   154e0:	00082703          	lw	a4,0(a6)
   154e4:	00188893          	addi	a7,a7,1
   154e8:	00480813          	addi	a6,a6,4
   154ec:	005777b3          	and	a5,a4,t0
   154f0:	02c787b3          	mul	a5,a5,a2
   154f4:	01075713          	srli	a4,a4,0x10
   154f8:	02c70733          	mul	a4,a4,a2
   154fc:	00d786b3          	add	a3,a5,a3
   15500:	0106d793          	srli	a5,a3,0x10
   15504:	0056f6b3          	and	a3,a3,t0
   15508:	00e78733          	add	a4,a5,a4
   1550c:	01071793          	slli	a5,a4,0x10
   15510:	00d787b3          	add	a5,a5,a3
   15514:	fef82e23          	sw	a5,-4(a6)
   15518:	01075693          	srli	a3,a4,0x10
   1551c:	fc88c2e3          	blt	a7,s0,154e0 <__multadd+0x34>
   15520:	02068263          	beqz	a3,15544 <__multadd+0x98>
   15524:	0084a783          	lw	a5,8(s1)
   15528:	02f45e63          	ble	a5,s0,15564 <__multadd+0xb8>
   1552c:	00440793          	addi	a5,s0,4
   15530:	00279793          	slli	a5,a5,0x2
   15534:	00f487b3          	add	a5,s1,a5
   15538:	00140413          	addi	s0,s0,1
   1553c:	00d7a223          	sw	a3,4(a5)
   15540:	0084a823          	sw	s0,16(s1)
   15544:	02c12083          	lw	ra,44(sp)
   15548:	00048513          	mv	a0,s1
   1554c:	02812403          	lw	s0,40(sp)
   15550:	02412483          	lw	s1,36(sp)
   15554:	02012903          	lw	s2,32(sp)
   15558:	01c12983          	lw	s3,28(sp)
   1555c:	03010113          	addi	sp,sp,48
   15560:	00008067          	ret
   15564:	0044a583          	lw	a1,4(s1)
   15568:	00090513          	mv	a0,s2
   1556c:	00d12623          	sw	a3,12(sp)
   15570:	00158593          	addi	a1,a1,1
   15574:	e71ff0ef          	jal	153e4 <_Balloc>
   15578:	0104a603          	lw	a2,16(s1)
   1557c:	00050993          	mv	s3,a0
   15580:	00c48593          	addi	a1,s1,12
   15584:	00260613          	addi	a2,a2,2
   15588:	00c50513          	addi	a0,a0,12
   1558c:	00261613          	slli	a2,a2,0x2
   15590:	c3dff0ef          	jal	151cc <memcpy>
   15594:	0044a783          	lw	a5,4(s1)
   15598:	04c92703          	lw	a4,76(s2)
   1559c:	00c12683          	lw	a3,12(sp)
   155a0:	00279793          	slli	a5,a5,0x2
   155a4:	00f707b3          	add	a5,a4,a5
   155a8:	0007a703          	lw	a4,0(a5)
   155ac:	00e4a023          	sw	a4,0(s1)
   155b0:	0097a023          	sw	s1,0(a5)
   155b4:	00098493          	mv	s1,s3
   155b8:	f75ff06f          	j	1552c <__multadd+0x80>

000155bc <__s2b>:
   155bc:	fe010113          	addi	sp,sp,-32
   155c0:	00868793          	addi	a5,a3,8
   155c4:	01312623          	sw	s3,12(sp)
   155c8:	00068993          	mv	s3,a3
   155cc:	00900693          	li	a3,9
   155d0:	02d7c6b3          	div	a3,a5,a3
   155d4:	00100793          	li	a5,1
   155d8:	00812c23          	sw	s0,24(sp)
   155dc:	00912a23          	sw	s1,20(sp)
   155e0:	01212823          	sw	s2,16(sp)
   155e4:	01412423          	sw	s4,8(sp)
   155e8:	00058413          	mv	s0,a1
   155ec:	00112e23          	sw	ra,28(sp)
   155f0:	01512223          	sw	s5,4(sp)
   155f4:	00050913          	mv	s2,a0
   155f8:	00060a13          	mv	s4,a2
   155fc:	00070493          	mv	s1,a4
   15600:	00000593          	li	a1,0
   15604:	00d7d863          	ble	a3,a5,15614 <__s2b+0x58>
   15608:	00179793          	slli	a5,a5,0x1
   1560c:	00158593          	addi	a1,a1,1
   15610:	fed7cce3          	blt	a5,a3,15608 <__s2b+0x4c>
   15614:	00090513          	mv	a0,s2
   15618:	dcdff0ef          	jal	153e4 <_Balloc>
   1561c:	00100713          	li	a4,1
   15620:	00900793          	li	a5,9
   15624:	00050593          	mv	a1,a0
   15628:	00952a23          	sw	s1,20(a0)
   1562c:	00e52823          	sw	a4,16(a0)
   15630:	0947d663          	ble	s4,a5,156bc <__s2b+0x100>
   15634:	00f40ab3          	add	s5,s0,a5
   15638:	000a8493          	mv	s1,s5
   1563c:	01440433          	add	s0,s0,s4
   15640:	00148493          	addi	s1,s1,1
   15644:	fff4c683          	lbu	a3,-1(s1)
   15648:	00090513          	mv	a0,s2
   1564c:	00a00613          	li	a2,10
   15650:	fd068693          	addi	a3,a3,-48
   15654:	e59ff0ef          	jal	154ac <__multadd>
   15658:	00050593          	mv	a1,a0
   1565c:	fe8492e3          	bne	s1,s0,15640 <__s2b+0x84>
   15660:	014a8433          	add	s0,s5,s4
   15664:	ff840413          	addi	s0,s0,-8
   15668:	033a5663          	ble	s3,s4,15694 <__s2b+0xd8>
   1566c:	414984b3          	sub	s1,s3,s4
   15670:	009404b3          	add	s1,s0,s1
   15674:	00140413          	addi	s0,s0,1
   15678:	fff44683          	lbu	a3,-1(s0)
   1567c:	00090513          	mv	a0,s2
   15680:	00a00613          	li	a2,10
   15684:	fd068693          	addi	a3,a3,-48
   15688:	e25ff0ef          	jal	154ac <__multadd>
   1568c:	00050593          	mv	a1,a0
   15690:	fe9412e3          	bne	s0,s1,15674 <__s2b+0xb8>
   15694:	01c12083          	lw	ra,28(sp)
   15698:	00058513          	mv	a0,a1
   1569c:	01812403          	lw	s0,24(sp)
   156a0:	01412483          	lw	s1,20(sp)
   156a4:	01012903          	lw	s2,16(sp)
   156a8:	00c12983          	lw	s3,12(sp)
   156ac:	00812a03          	lw	s4,8(sp)
   156b0:	00412a83          	lw	s5,4(sp)
   156b4:	02010113          	addi	sp,sp,32
   156b8:	00008067          	ret
   156bc:	00a40413          	addi	s0,s0,10
   156c0:	00078a13          	mv	s4,a5
   156c4:	fa5ff06f          	j	15668 <__s2b+0xac>

000156c8 <__hi0bits>:
   156c8:	ffff06b7          	lui	a3,0xffff0
   156cc:	00d576b3          	and	a3,a0,a3
   156d0:	00050793          	mv	a5,a0
   156d4:	00000713          	li	a4,0
   156d8:	00069663          	bnez	a3,156e4 <__hi0bits+0x1c>
   156dc:	01051793          	slli	a5,a0,0x10
   156e0:	01000713          	li	a4,16
   156e4:	ff0006b7          	lui	a3,0xff000
   156e8:	00d7f6b3          	and	a3,a5,a3
   156ec:	00069663          	bnez	a3,156f8 <__hi0bits+0x30>
   156f0:	00870713          	addi	a4,a4,8
   156f4:	00879793          	slli	a5,a5,0x8
   156f8:	f00006b7          	lui	a3,0xf0000
   156fc:	00d7f6b3          	and	a3,a5,a3
   15700:	00069663          	bnez	a3,1570c <__hi0bits+0x44>
   15704:	00470713          	addi	a4,a4,4
   15708:	00479793          	slli	a5,a5,0x4
   1570c:	c00006b7          	lui	a3,0xc0000
   15710:	00d7f6b3          	and	a3,a5,a3
   15714:	00069663          	bnez	a3,15720 <__hi0bits+0x58>
   15718:	00270713          	addi	a4,a4,2
   1571c:	00279793          	slli	a5,a5,0x2
   15720:	00070513          	mv	a0,a4
   15724:	0007c863          	bltz	a5,15734 <__hi0bits+0x6c>
   15728:	00179693          	slli	a3,a5,0x1
   1572c:	02000513          	li	a0,32
   15730:	0006c463          	bltz	a3,15738 <__hi0bits+0x70>
   15734:	00008067          	ret
   15738:	00170513          	addi	a0,a4,1
   1573c:	00008067          	ret

00015740 <__lo0bits>:
   15740:	00052783          	lw	a5,0(a0)
   15744:	00050693          	mv	a3,a0
   15748:	01d79613          	slli	a2,a5,0x1d
   1574c:	02060463          	beqz	a2,15774 <__lo0bits+0x34>
   15750:	01f79713          	slli	a4,a5,0x1f
   15754:	00000513          	li	a0,0
   15758:	08074263          	bltz	a4,157dc <__lo0bits+0x9c>
   1575c:	01e79613          	slli	a2,a5,0x1e
   15760:	08064063          	bltz	a2,157e0 <__lo0bits+0xa0>
   15764:	0027d793          	srli	a5,a5,0x2
   15768:	00f6a023          	sw	a5,0(a3) # c0000000 <_gp+0xbffe2a80>
   1576c:	00200513          	li	a0,2
   15770:	00008067          	ret
   15774:	01079613          	slli	a2,a5,0x10
   15778:	01065613          	srli	a2,a2,0x10
   1577c:	00000713          	li	a4,0
   15780:	00061663          	bnez	a2,1578c <__lo0bits+0x4c>
   15784:	0107d793          	srli	a5,a5,0x10
   15788:	01000713          	li	a4,16
   1578c:	0ff7f613          	andi	a2,a5,255
   15790:	00061663          	bnez	a2,1579c <__lo0bits+0x5c>
   15794:	00870713          	addi	a4,a4,8
   15798:	0087d793          	srli	a5,a5,0x8
   1579c:	01c79613          	slli	a2,a5,0x1c
   157a0:	00061663          	bnez	a2,157ac <__lo0bits+0x6c>
   157a4:	00470713          	addi	a4,a4,4
   157a8:	0047d793          	srli	a5,a5,0x4
   157ac:	01e79613          	slli	a2,a5,0x1e
   157b0:	00061663          	bnez	a2,157bc <__lo0bits+0x7c>
   157b4:	00270713          	addi	a4,a4,2
   157b8:	0027d793          	srli	a5,a5,0x2
   157bc:	01f79613          	slli	a2,a5,0x1f
   157c0:	00064a63          	bltz	a2,157d4 <__lo0bits+0x94>
   157c4:	0017d793          	srli	a5,a5,0x1
   157c8:	02000513          	li	a0,32
   157cc:	00078863          	beqz	a5,157dc <__lo0bits+0x9c>
   157d0:	00170713          	addi	a4,a4,1
   157d4:	00f6a023          	sw	a5,0(a3)
   157d8:	00070513          	mv	a0,a4
   157dc:	00008067          	ret
   157e0:	0017d793          	srli	a5,a5,0x1
   157e4:	00f6a023          	sw	a5,0(a3)
   157e8:	00100513          	li	a0,1
   157ec:	00008067          	ret

000157f0 <__i2b>:
   157f0:	ff010113          	addi	sp,sp,-16
   157f4:	00812423          	sw	s0,8(sp)
   157f8:	00058413          	mv	s0,a1
   157fc:	00100593          	li	a1,1
   15800:	00112623          	sw	ra,12(sp)
   15804:	be1ff0ef          	jal	153e4 <_Balloc>
   15808:	00c12083          	lw	ra,12(sp)
   1580c:	00100713          	li	a4,1
   15810:	00852a23          	sw	s0,20(a0)
   15814:	00e52823          	sw	a4,16(a0)
   15818:	00812403          	lw	s0,8(sp)
   1581c:	01010113          	addi	sp,sp,16
   15820:	00008067          	ret

00015824 <__multiply>:
   15824:	fe010113          	addi	sp,sp,-32
   15828:	01312623          	sw	s3,12(sp)
   1582c:	01412423          	sw	s4,8(sp)
   15830:	0105a983          	lw	s3,16(a1)
   15834:	01062a03          	lw	s4,16(a2)
   15838:	00912a23          	sw	s1,20(sp)
   1583c:	01212823          	sw	s2,16(sp)
   15840:	00112e23          	sw	ra,28(sp)
   15844:	00812c23          	sw	s0,24(sp)
   15848:	00058913          	mv	s2,a1
   1584c:	00060493          	mv	s1,a2
   15850:	1b49ce63          	blt	s3,s4,15a0c <__multiply+0x1e8>
   15854:	000a0793          	mv	a5,s4
   15858:	00098a13          	mv	s4,s3
   1585c:	00078993          	mv	s3,a5
   15860:	00892783          	lw	a5,8(s2)
   15864:	00492583          	lw	a1,4(s2)
   15868:	013a0433          	add	s0,s4,s3
   1586c:	0087a7b3          	slt	a5,a5,s0
   15870:	00f585b3          	add	a1,a1,a5
   15874:	b71ff0ef          	jal	153e4 <_Balloc>
   15878:	01450293          	addi	t0,a0,20
   1587c:	00241893          	slli	a7,s0,0x2
   15880:	011288b3          	add	a7,t0,a7
   15884:	00028793          	mv	a5,t0
   15888:	0112f863          	bleu	a7,t0,15898 <__multiply+0x74>
   1588c:	0007a023          	sw	zero,0(a5)
   15890:	00478793          	addi	a5,a5,4
   15894:	ff17ece3          	bltu	a5,a7,1588c <__multiply+0x68>
   15898:	01448613          	addi	a2,s1,20
   1589c:	00299313          	slli	t1,s3,0x2
   158a0:	01490393          	addi	t2,s2,20
   158a4:	002a1813          	slli	a6,s4,0x2
   158a8:	000105b7          	lui	a1,0x10
   158ac:	00660333          	add	t1,a2,t1
   158b0:	01038833          	add	a6,t2,a6
   158b4:	fff58593          	addi	a1,a1,-1 # ffff <_ftext-0x1>
   158b8:	10667463          	bleu	t1,a2,159c0 <__multiply+0x19c>
   158bc:	00062f83          	lw	t6,0(a2)
   158c0:	00bff933          	and	s2,t6,a1
   158c4:	06090a63          	beqz	s2,15938 <__multiply+0x114>
   158c8:	00028f93          	mv	t6,t0
   158cc:	00038f13          	mv	t5,t2
   158d0:	00000693          	li	a3,0
   158d4:	0080006f          	j	158dc <__multiply+0xb8>
   158d8:	00048f93          	mv	t6,s1
   158dc:	000f2e03          	lw	t3,0(t5)
   158e0:	000fae83          	lw	t4,0(t6)
   158e4:	004f8493          	addi	s1,t6,4
   158e8:	00be7733          	and	a4,t3,a1
   158ec:	03270733          	mul	a4,a4,s2
   158f0:	010e5e13          	srli	t3,t3,0x10
   158f4:	00bef7b3          	and	a5,t4,a1
   158f8:	010ede93          	srli	t4,t4,0x10
   158fc:	004f0f13          	addi	t5,t5,4
   15900:	032e0e33          	mul	t3,t3,s2
   15904:	00f70733          	add	a4,a4,a5
   15908:	00d707b3          	add	a5,a4,a3
   1590c:	0107d693          	srli	a3,a5,0x10
   15910:	00b7f7b3          	and	a5,a5,a1
   15914:	01de0e33          	add	t3,t3,t4
   15918:	00de06b3          	add	a3,t3,a3
   1591c:	01069713          	slli	a4,a3,0x10
   15920:	00f76733          	or	a4,a4,a5
   15924:	0106d693          	srli	a3,a3,0x10
   15928:	fee4ae23          	sw	a4,-4(s1)
   1592c:	fb0f66e3          	bltu	t5,a6,158d8 <__multiply+0xb4>
   15930:	00dfa223          	sw	a3,4(t6)
   15934:	00062f83          	lw	t6,0(a2)
   15938:	010fdf93          	srli	t6,t6,0x10
   1593c:	060f8c63          	beqz	t6,159b4 <__multiply+0x190>
   15940:	0002a783          	lw	a5,0(t0)
   15944:	00028f13          	mv	t5,t0
   15948:	00038e93          	mv	t4,t2
   1594c:	00078e13          	mv	t3,a5
   15950:	00000913          	li	s2,0
   15954:	0080006f          	j	1595c <__multiply+0x138>
   15958:	00048f13          	mv	t5,s1
   1595c:	000ea703          	lw	a4,0(t4)
   15960:	010e5693          	srli	a3,t3,0x10
   15964:	00b7f7b3          	and	a5,a5,a1
   15968:	00b77733          	and	a4,a4,a1
   1596c:	03f70733          	mul	a4,a4,t6
   15970:	004f0493          	addi	s1,t5,4
   15974:	004e8e93          	addi	t4,t4,4
   15978:	00d706b3          	add	a3,a4,a3
   1597c:	012686b3          	add	a3,a3,s2
   15980:	01069713          	slli	a4,a3,0x10
   15984:	00f767b3          	or	a5,a4,a5
   15988:	fef4ae23          	sw	a5,-4(s1)
   1598c:	ffeed703          	lhu	a4,-2(t4)
   15990:	004f2e03          	lw	t3,4(t5)
   15994:	0106d693          	srli	a3,a3,0x10
   15998:	03f70733          	mul	a4,a4,t6
   1599c:	00be77b3          	and	a5,t3,a1
   159a0:	00f707b3          	add	a5,a4,a5
   159a4:	00d787b3          	add	a5,a5,a3
   159a8:	0107d913          	srli	s2,a5,0x10
   159ac:	fb0ee6e3          	bltu	t4,a6,15958 <__multiply+0x134>
   159b0:	00ff2223          	sw	a5,4(t5)
   159b4:	00460613          	addi	a2,a2,4
   159b8:	00428293          	addi	t0,t0,4
   159bc:	f06660e3          	bltu	a2,t1,158bc <__multiply+0x98>
   159c0:	02805463          	blez	s0,159e8 <__multiply+0x1c4>
   159c4:	ffc8a783          	lw	a5,-4(a7)
   159c8:	ffc88893          	addi	a7,a7,-4
   159cc:	00078863          	beqz	a5,159dc <__multiply+0x1b8>
   159d0:	0180006f          	j	159e8 <__multiply+0x1c4>
   159d4:	0008a783          	lw	a5,0(a7)
   159d8:	00079863          	bnez	a5,159e8 <__multiply+0x1c4>
   159dc:	fff40413          	addi	s0,s0,-1
   159e0:	ffc88893          	addi	a7,a7,-4
   159e4:	fe0418e3          	bnez	s0,159d4 <__multiply+0x1b0>
   159e8:	01c12083          	lw	ra,28(sp)
   159ec:	00852823          	sw	s0,16(a0)
   159f0:	01412483          	lw	s1,20(sp)
   159f4:	01812403          	lw	s0,24(sp)
   159f8:	01012903          	lw	s2,16(sp)
   159fc:	00c12983          	lw	s3,12(sp)
   15a00:	00812a03          	lw	s4,8(sp)
   15a04:	02010113          	addi	sp,sp,32
   15a08:	00008067          	ret
   15a0c:	00060913          	mv	s2,a2
   15a10:	00058493          	mv	s1,a1
   15a14:	e4dff06f          	j	15860 <__multiply+0x3c>

00015a18 <__pow5mult>:
   15a18:	fe010113          	addi	sp,sp,-32
   15a1c:	00367793          	andi	a5,a2,3
   15a20:	00812c23          	sw	s0,24(sp)
   15a24:	01212823          	sw	s2,16(sp)
   15a28:	01312623          	sw	s3,12(sp)
   15a2c:	00112e23          	sw	ra,28(sp)
   15a30:	00912a23          	sw	s1,20(sp)
   15a34:	00060413          	mv	s0,a2
   15a38:	00050993          	mv	s3,a0
   15a3c:	00058913          	mv	s2,a1
   15a40:	0a079e63          	bnez	a5,15afc <__pow5mult+0xe4>
   15a44:	40245413          	srai	s0,s0,0x2
   15a48:	06040663          	beqz	s0,15ab4 <__pow5mult+0x9c>
   15a4c:	0489a483          	lw	s1,72(s3)
   15a50:	0c048a63          	beqz	s1,15b24 <__pow5mult+0x10c>
   15a54:	01f41793          	slli	a5,s0,0x1f
   15a58:	0207c063          	bltz	a5,15a78 <__pow5mult+0x60>
   15a5c:	40145413          	srai	s0,s0,0x1
   15a60:	04040a63          	beqz	s0,15ab4 <__pow5mult+0x9c>
   15a64:	0004a503          	lw	a0,0(s1)
   15a68:	06050663          	beqz	a0,15ad4 <__pow5mult+0xbc>
   15a6c:	00050493          	mv	s1,a0
   15a70:	01f41793          	slli	a5,s0,0x1f
   15a74:	fe07d4e3          	bgez	a5,15a5c <__pow5mult+0x44>
   15a78:	00090593          	mv	a1,s2
   15a7c:	00048613          	mv	a2,s1
   15a80:	00098513          	mv	a0,s3
   15a84:	da1ff0ef          	jal	15824 <__multiply>
   15a88:	06090663          	beqz	s2,15af4 <__pow5mult+0xdc>
   15a8c:	00492783          	lw	a5,4(s2)
   15a90:	04c9a703          	lw	a4,76(s3)
   15a94:	40145413          	srai	s0,s0,0x1
   15a98:	00279793          	slli	a5,a5,0x2
   15a9c:	00f707b3          	add	a5,a4,a5
   15aa0:	0007a703          	lw	a4,0(a5)
   15aa4:	00e92023          	sw	a4,0(s2)
   15aa8:	0127a023          	sw	s2,0(a5)
   15aac:	00050913          	mv	s2,a0
   15ab0:	fa041ae3          	bnez	s0,15a64 <__pow5mult+0x4c>
   15ab4:	01c12083          	lw	ra,28(sp)
   15ab8:	00090513          	mv	a0,s2
   15abc:	01812403          	lw	s0,24(sp)
   15ac0:	01412483          	lw	s1,20(sp)
   15ac4:	01012903          	lw	s2,16(sp)
   15ac8:	00c12983          	lw	s3,12(sp)
   15acc:	02010113          	addi	sp,sp,32
   15ad0:	00008067          	ret
   15ad4:	00048593          	mv	a1,s1
   15ad8:	00048613          	mv	a2,s1
   15adc:	00098513          	mv	a0,s3
   15ae0:	d45ff0ef          	jal	15824 <__multiply>
   15ae4:	00a4a023          	sw	a0,0(s1)
   15ae8:	00052023          	sw	zero,0(a0)
   15aec:	00050493          	mv	s1,a0
   15af0:	f81ff06f          	j	15a70 <__pow5mult+0x58>
   15af4:	00050913          	mv	s2,a0
   15af8:	f65ff06f          	j	15a5c <__pow5mult+0x44>
   15afc:	fff78793          	addi	a5,a5,-1
   15b00:	0001b737          	lui	a4,0x1b
   15b04:	e6870713          	addi	a4,a4,-408 # 1ae68 <p05.2448>
   15b08:	00279793          	slli	a5,a5,0x2
   15b0c:	00f707b3          	add	a5,a4,a5
   15b10:	0007a603          	lw	a2,0(a5)
   15b14:	00000693          	li	a3,0
   15b18:	995ff0ef          	jal	154ac <__multadd>
   15b1c:	00050913          	mv	s2,a0
   15b20:	f25ff06f          	j	15a44 <__pow5mult+0x2c>
   15b24:	00098513          	mv	a0,s3
   15b28:	00100593          	li	a1,1
   15b2c:	8b9ff0ef          	jal	153e4 <_Balloc>
   15b30:	27100793          	li	a5,625
   15b34:	00f52a23          	sw	a5,20(a0)
   15b38:	00100793          	li	a5,1
   15b3c:	00f52823          	sw	a5,16(a0)
   15b40:	00050493          	mv	s1,a0
   15b44:	04a9a423          	sw	a0,72(s3)
   15b48:	00052023          	sw	zero,0(a0)
   15b4c:	f09ff06f          	j	15a54 <__pow5mult+0x3c>

00015b50 <__lshift>:
   15b50:	fe010113          	addi	sp,sp,-32
   15b54:	01512223          	sw	s5,4(sp)
   15b58:	0105aa83          	lw	s5,16(a1)
   15b5c:	00912a23          	sw	s1,20(sp)
   15b60:	0085a783          	lw	a5,8(a1)
   15b64:	40565493          	srai	s1,a2,0x5
   15b68:	01548ab3          	add	s5,s1,s5
   15b6c:	00812c23          	sw	s0,24(sp)
   15b70:	001a8413          	addi	s0,s5,1
   15b74:	01212823          	sw	s2,16(sp)
   15b78:	01312623          	sw	s3,12(sp)
   15b7c:	01412423          	sw	s4,8(sp)
   15b80:	00058993          	mv	s3,a1
   15b84:	00112e23          	sw	ra,28(sp)
   15b88:	00060913          	mv	s2,a2
   15b8c:	00050a13          	mv	s4,a0
   15b90:	0045a583          	lw	a1,4(a1)
   15b94:	0087d863          	ble	s0,a5,15ba4 <__lshift+0x54>
   15b98:	00179793          	slli	a5,a5,0x1
   15b9c:	00158593          	addi	a1,a1,1
   15ba0:	fe87cce3          	blt	a5,s0,15b98 <__lshift+0x48>
   15ba4:	000a0513          	mv	a0,s4
   15ba8:	83dff0ef          	jal	153e4 <_Balloc>
   15bac:	01450693          	addi	a3,a0,20
   15bb0:	02905263          	blez	s1,15bd4 <__lshift+0x84>
   15bb4:	00068713          	mv	a4,a3
   15bb8:	00000793          	li	a5,0
   15bbc:	00470713          	addi	a4,a4,4
   15bc0:	00178793          	addi	a5,a5,1
   15bc4:	fe072e23          	sw	zero,-4(a4)
   15bc8:	fe979ae3          	bne	a5,s1,15bbc <__lshift+0x6c>
   15bcc:	00279793          	slli	a5,a5,0x2
   15bd0:	00f686b3          	add	a3,a3,a5
   15bd4:	0109a283          	lw	t0,16(s3)
   15bd8:	01498793          	addi	a5,s3,20
   15bdc:	01f97613          	andi	a2,s2,31
   15be0:	00229293          	slli	t0,t0,0x2
   15be4:	005782b3          	add	t0,a5,t0
   15be8:	08060863          	beqz	a2,15c78 <__lshift+0x128>
   15bec:	02000593          	li	a1,32
   15bf0:	40c585b3          	sub	a1,a1,a2
   15bf4:	00000813          	li	a6,0
   15bf8:	0080006f          	j	15c00 <__lshift+0xb0>
   15bfc:	00088693          	mv	a3,a7
   15c00:	0007a703          	lw	a4,0(a5)
   15c04:	00468893          	addi	a7,a3,4
   15c08:	00478793          	addi	a5,a5,4
   15c0c:	00c71733          	sll	a4,a4,a2
   15c10:	00e86733          	or	a4,a6,a4
   15c14:	fee8ae23          	sw	a4,-4(a7)
   15c18:	ffc7a703          	lw	a4,-4(a5)
   15c1c:	00b75833          	srl	a6,a4,a1
   15c20:	fc57eee3          	bltu	a5,t0,15bfc <__lshift+0xac>
   15c24:	0106a223          	sw	a6,4(a3)
   15c28:	00080463          	beqz	a6,15c30 <__lshift+0xe0>
   15c2c:	002a8413          	addi	s0,s5,2
   15c30:	0049a783          	lw	a5,4(s3)
   15c34:	04ca2703          	lw	a4,76(s4)
   15c38:	01c12083          	lw	ra,28(sp)
   15c3c:	00279793          	slli	a5,a5,0x2
   15c40:	00f707b3          	add	a5,a4,a5
   15c44:	0007a703          	lw	a4,0(a5)
   15c48:	fff40413          	addi	s0,s0,-1
   15c4c:	00852823          	sw	s0,16(a0)
   15c50:	01412483          	lw	s1,20(sp)
   15c54:	00e9a023          	sw	a4,0(s3)
   15c58:	01812403          	lw	s0,24(sp)
   15c5c:	0137a023          	sw	s3,0(a5)
   15c60:	01012903          	lw	s2,16(sp)
   15c64:	00c12983          	lw	s3,12(sp)
   15c68:	00812a03          	lw	s4,8(sp)
   15c6c:	00412a83          	lw	s5,4(sp)
   15c70:	02010113          	addi	sp,sp,32
   15c74:	00008067          	ret
   15c78:	00478793          	addi	a5,a5,4
   15c7c:	ffc7a703          	lw	a4,-4(a5)
   15c80:	00468693          	addi	a3,a3,4
   15c84:	fee6ae23          	sw	a4,-4(a3)
   15c88:	fa57f4e3          	bleu	t0,a5,15c30 <__lshift+0xe0>
   15c8c:	00478793          	addi	a5,a5,4
   15c90:	ffc7a703          	lw	a4,-4(a5)
   15c94:	00468693          	addi	a3,a3,4
   15c98:	fee6ae23          	sw	a4,-4(a3)
   15c9c:	fc57eee3          	bltu	a5,t0,15c78 <__lshift+0x128>
   15ca0:	f91ff06f          	j	15c30 <__lshift+0xe0>

00015ca4 <__mcmp>:
   15ca4:	01052703          	lw	a4,16(a0)
   15ca8:	0105a783          	lw	a5,16(a1)
   15cac:	40f70733          	sub	a4,a4,a5
   15cb0:	04071263          	bnez	a4,15cf4 <__mcmp+0x50>
   15cb4:	00279713          	slli	a4,a5,0x2
   15cb8:	01450513          	addi	a0,a0,20
   15cbc:	01458593          	addi	a1,a1,20
   15cc0:	00e507b3          	add	a5,a0,a4
   15cc4:	00e585b3          	add	a1,a1,a4
   15cc8:	0080006f          	j	15cd0 <__mcmp+0x2c>
   15ccc:	02f57863          	bleu	a5,a0,15cfc <__mcmp+0x58>
   15cd0:	ffc78793          	addi	a5,a5,-4
   15cd4:	ffc58593          	addi	a1,a1,-4
   15cd8:	0007a703          	lw	a4,0(a5)
   15cdc:	0005a683          	lw	a3,0(a1)
   15ce0:	fed706e3          	beq	a4,a3,15ccc <__mcmp+0x28>
   15ce4:	00d73733          	sltu	a4,a4,a3
   15ce8:	40e00733          	neg	a4,a4
   15cec:	00176513          	ori	a0,a4,1
   15cf0:	00008067          	ret
   15cf4:	00070513          	mv	a0,a4
   15cf8:	00008067          	ret
   15cfc:	00000513          	li	a0,0
   15d00:	00008067          	ret

00015d04 <__mdiff>:
   15d04:	fe010113          	addi	sp,sp,-32
   15d08:	00812c23          	sw	s0,24(sp)
   15d0c:	00058413          	mv	s0,a1
   15d10:	01212823          	sw	s2,16(sp)
   15d14:	00060593          	mv	a1,a2
   15d18:	00050913          	mv	s2,a0
   15d1c:	00040513          	mv	a0,s0
   15d20:	00912a23          	sw	s1,20(sp)
   15d24:	00112e23          	sw	ra,28(sp)
   15d28:	01312623          	sw	s3,12(sp)
   15d2c:	00060493          	mv	s1,a2
   15d30:	f75ff0ef          	jal	15ca4 <__mcmp>
   15d34:	14050463          	beqz	a0,15e7c <__mdiff+0x178>
   15d38:	00000993          	li	s3,0
   15d3c:	12054663          	bltz	a0,15e68 <__mdiff+0x164>
   15d40:	00442583          	lw	a1,4(s0)
   15d44:	00090513          	mv	a0,s2
   15d48:	e9cff0ef          	jal	153e4 <_Balloc>
   15d4c:	01042e03          	lw	t3,16(s0)
   15d50:	0104af03          	lw	t5,16(s1)
   15d54:	01440313          	addi	t1,s0,20
   15d58:	002e1e93          	slli	t4,t3,0x2
   15d5c:	01448613          	addi	a2,s1,20
   15d60:	002f1f13          	slli	t5,t5,0x2
   15d64:	000105b7          	lui	a1,0x10
   15d68:	01352623          	sw	s3,12(a0)
   15d6c:	01d30eb3          	add	t4,t1,t4
   15d70:	01e60f33          	add	t5,a2,t5
   15d74:	01450293          	addi	t0,a0,20
   15d78:	00000693          	li	a3,0
   15d7c:	fff58593          	addi	a1,a1,-1 # ffff <_ftext-0x1>
   15d80:	00032883          	lw	a7,0(t1)
   15d84:	00062383          	lw	t2,0(a2)
   15d88:	00428293          	addi	t0,t0,4
   15d8c:	00b8f833          	and	a6,a7,a1
   15d90:	00d806b3          	add	a3,a6,a3
   15d94:	00b3f733          	and	a4,t2,a1
   15d98:	40e68733          	sub	a4,a3,a4
   15d9c:	0108d893          	srli	a7,a7,0x10
   15da0:	0103d693          	srli	a3,t2,0x10
   15da4:	40d888b3          	sub	a7,a7,a3
   15da8:	41075693          	srai	a3,a4,0x10
   15dac:	00d886b3          	add	a3,a7,a3
   15db0:	01069793          	slli	a5,a3,0x10
   15db4:	00b77733          	and	a4,a4,a1
   15db8:	00e7e7b3          	or	a5,a5,a4
   15dbc:	00460613          	addi	a2,a2,4
   15dc0:	00430313          	addi	t1,t1,4
   15dc4:	4106d693          	srai	a3,a3,0x10
   15dc8:	fef2ae23          	sw	a5,-4(t0)
   15dcc:	fbe66ae3          	bltu	a2,t5,15d80 <__mdiff+0x7c>
   15dd0:	00028893          	mv	a7,t0
   15dd4:	00030813          	mv	a6,t1
   15dd8:	05d37c63          	bleu	t4,t1,15e30 <__mdiff+0x12c>
   15ddc:	000105b7          	lui	a1,0x10
   15de0:	fff58593          	addi	a1,a1,-1 # ffff <_ftext-0x1>
   15de4:	00032703          	lw	a4,0(t1)
   15de8:	00428293          	addi	t0,t0,4
   15dec:	00430313          	addi	t1,t1,4
   15df0:	00b77633          	and	a2,a4,a1
   15df4:	00d606b3          	add	a3,a2,a3
   15df8:	4106d793          	srai	a5,a3,0x10
   15dfc:	01075713          	srli	a4,a4,0x10
   15e00:	00e78733          	add	a4,a5,a4
   15e04:	00b6f6b3          	and	a3,a3,a1
   15e08:	01071793          	slli	a5,a4,0x10
   15e0c:	00d7e7b3          	or	a5,a5,a3
   15e10:	fef2ae23          	sw	a5,-4(t0)
   15e14:	41075693          	srai	a3,a4,0x10
   15e18:	fdd366e3          	bltu	t1,t4,15de4 <__mdiff+0xe0>
   15e1c:	fff84293          	not	t0,a6
   15e20:	01d282b3          	add	t0,t0,t4
   15e24:	ffc2f293          	andi	t0,t0,-4
   15e28:	00428293          	addi	t0,t0,4
   15e2c:	005882b3          	add	t0,a7,t0
   15e30:	ffc28293          	addi	t0,t0,-4
   15e34:	00079a63          	bnez	a5,15e48 <__mdiff+0x144>
   15e38:	ffc28293          	addi	t0,t0,-4
   15e3c:	0002a783          	lw	a5,0(t0)
   15e40:	fffe0e13          	addi	t3,t3,-1
   15e44:	fe078ae3          	beqz	a5,15e38 <__mdiff+0x134>
   15e48:	01c52823          	sw	t3,16(a0)
   15e4c:	01c12083          	lw	ra,28(sp)
   15e50:	01812403          	lw	s0,24(sp)
   15e54:	01412483          	lw	s1,20(sp)
   15e58:	01012903          	lw	s2,16(sp)
   15e5c:	00c12983          	lw	s3,12(sp)
   15e60:	02010113          	addi	sp,sp,32
   15e64:	00008067          	ret
   15e68:	00040793          	mv	a5,s0
   15e6c:	00100993          	li	s3,1
   15e70:	00048413          	mv	s0,s1
   15e74:	00078493          	mv	s1,a5
   15e78:	ec9ff06f          	j	15d40 <__mdiff+0x3c>
   15e7c:	00090513          	mv	a0,s2
   15e80:	00000593          	li	a1,0
   15e84:	d60ff0ef          	jal	153e4 <_Balloc>
   15e88:	00100793          	li	a5,1
   15e8c:	00f52823          	sw	a5,16(a0)
   15e90:	00052a23          	sw	zero,20(a0)
   15e94:	fb9ff06f          	j	15e4c <__mdiff+0x148>

00015e98 <__ulp>:
   15e98:	ff010113          	addi	sp,sp,-16
   15e9c:	00a13427          	fsd	fa0,8(sp)
   15ea0:	00c12783          	lw	a5,12(sp)
   15ea4:	7ff00737          	lui	a4,0x7ff00
   15ea8:	00e7f7b3          	and	a5,a5,a4
   15eac:	fcc00737          	lui	a4,0xfcc00
   15eb0:	00e787b3          	add	a5,a5,a4
   15eb4:	02f05063          	blez	a5,15ed4 <__ulp+0x3c>
   15eb8:	00000613          	li	a2,0
   15ebc:	00078693          	mv	a3,a5
   15ec0:	00c12023          	sw	a2,0(sp)
   15ec4:	00d12223          	sw	a3,4(sp)
   15ec8:	00013507          	fld	fa0,0(sp)
   15ecc:	01010113          	addi	sp,sp,16
   15ed0:	00008067          	ret
   15ed4:	40f007b3          	neg	a5,a5
   15ed8:	4147d793          	srai	a5,a5,0x14
   15edc:	01300713          	li	a4,19
   15ee0:	00000613          	li	a2,0
   15ee4:	00000693          	li	a3,0
   15ee8:	02f75a63          	ble	a5,a4,15f1c <__ulp+0x84>
   15eec:	03200593          	li	a1,50
   15ef0:	00100713          	li	a4,1
   15ef4:	00f5c863          	blt	a1,a5,15f04 <__ulp+0x6c>
   15ef8:	03300593          	li	a1,51
   15efc:	40f587b3          	sub	a5,a1,a5
   15f00:	00f71733          	sll	a4,a4,a5
   15f04:	00070613          	mv	a2,a4
   15f08:	00c12023          	sw	a2,0(sp)
   15f0c:	00d12223          	sw	a3,4(sp)
   15f10:	00013507          	fld	fa0,0(sp)
   15f14:	01010113          	addi	sp,sp,16
   15f18:	00008067          	ret
   15f1c:	00080737          	lui	a4,0x80
   15f20:	40f756b3          	sra	a3,a4,a5
   15f24:	00c12023          	sw	a2,0(sp)
   15f28:	00d12223          	sw	a3,4(sp)
   15f2c:	00013507          	fld	fa0,0(sp)
   15f30:	01010113          	addi	sp,sp,16
   15f34:	00008067          	ret

00015f38 <__b2d>:
   15f38:	fd010113          	addi	sp,sp,-48
   15f3c:	02812423          	sw	s0,40(sp)
   15f40:	01052403          	lw	s0,16(a0)
   15f44:	02912223          	sw	s1,36(sp)
   15f48:	01450493          	addi	s1,a0,20
   15f4c:	00241413          	slli	s0,s0,0x2
   15f50:	00848433          	add	s0,s1,s0
   15f54:	03212023          	sw	s2,32(sp)
   15f58:	ffc42903          	lw	s2,-4(s0)
   15f5c:	01312e23          	sw	s3,28(sp)
   15f60:	01412c23          	sw	s4,24(sp)
   15f64:	00090513          	mv	a0,s2
   15f68:	00058a13          	mv	s4,a1
   15f6c:	02112623          	sw	ra,44(sp)
   15f70:	f58ff0ef          	jal	156c8 <__hi0bits>
   15f74:	02000793          	li	a5,32
   15f78:	40a787b3          	sub	a5,a5,a0
   15f7c:	00fa2023          	sw	a5,0(s4)
   15f80:	00a00793          	li	a5,10
   15f84:	ffc40993          	addi	s3,s0,-4
   15f88:	06a7c063          	blt	a5,a0,15fe8 <__b2d+0xb0>
   15f8c:	00b00793          	li	a5,11
   15f90:	40a787b3          	sub	a5,a5,a0
   15f94:	3ff00737          	lui	a4,0x3ff00
   15f98:	00f955b3          	srl	a1,s2,a5
   15f9c:	00e5e6b3          	or	a3,a1,a4
   15fa0:	00000713          	li	a4,0
   15fa4:	0134f663          	bleu	s3,s1,15fb0 <__b2d+0x78>
   15fa8:	ff842703          	lw	a4,-8(s0)
   15fac:	00f75733          	srl	a4,a4,a5
   15fb0:	01550793          	addi	a5,a0,21
   15fb4:	00f91533          	sll	a0,s2,a5
   15fb8:	00a76633          	or	a2,a4,a0
   15fbc:	02c12083          	lw	ra,44(sp)
   15fc0:	00c12423          	sw	a2,8(sp)
   15fc4:	00d12623          	sw	a3,12(sp)
   15fc8:	00813507          	fld	fa0,8(sp)
   15fcc:	02812403          	lw	s0,40(sp)
   15fd0:	02412483          	lw	s1,36(sp)
   15fd4:	02012903          	lw	s2,32(sp)
   15fd8:	01c12983          	lw	s3,28(sp)
   15fdc:	01812a03          	lw	s4,24(sp)
   15fe0:	03010113          	addi	sp,sp,48
   15fe4:	00008067          	ret
   15fe8:	ff550593          	addi	a1,a0,-11
   15fec:	0534f463          	bleu	s3,s1,16034 <__b2d+0xfc>
   15ff0:	ff840813          	addi	a6,s0,-8
   15ff4:	ff842703          	lw	a4,-8(s0)
   15ff8:	04058263          	beqz	a1,1603c <__b2d+0x104>
   15ffc:	02b00793          	li	a5,43
   16000:	40a78533          	sub	a0,a5,a0
   16004:	00a757b3          	srl	a5,a4,a0
   16008:	00b91933          	sll	s2,s2,a1
   1600c:	00f96933          	or	s2,s2,a5
   16010:	3ff007b7          	lui	a5,0x3ff00
   16014:	00f966b3          	or	a3,s2,a5
   16018:	00000793          	li	a5,0
   1601c:	0104f663          	bleu	a6,s1,16028 <__b2d+0xf0>
   16020:	ff442783          	lw	a5,-12(s0)
   16024:	00a7d7b3          	srl	a5,a5,a0
   16028:	00b71733          	sll	a4,a4,a1
   1602c:	00f76633          	or	a2,a4,a5
   16030:	f8dff06f          	j	15fbc <__b2d+0x84>
   16034:	00000713          	li	a4,0
   16038:	00059a63          	bnez	a1,1604c <__b2d+0x114>
   1603c:	3ff007b7          	lui	a5,0x3ff00
   16040:	00f966b3          	or	a3,s2,a5
   16044:	00070613          	mv	a2,a4
   16048:	f75ff06f          	j	15fbc <__b2d+0x84>
   1604c:	3ff007b7          	lui	a5,0x3ff00
   16050:	00b91933          	sll	s2,s2,a1
   16054:	00f966b3          	or	a3,s2,a5
   16058:	00000713          	li	a4,0
   1605c:	00000793          	li	a5,0
   16060:	fc9ff06f          	j	16028 <__b2d+0xf0>

00016064 <__d2b>:
   16064:	fc010113          	addi	sp,sp,-64
   16068:	00c13427          	fsd	fa2,8(sp)
   1606c:	03412423          	sw	s4,40(sp)
   16070:	00c12a03          	lw	s4,12(sp)
   16074:	00100593          	li	a1,1
   16078:	02812c23          	sw	s0,56(sp)
   1607c:	02912a23          	sw	s1,52(sp)
   16080:	03212823          	sw	s2,48(sp)
   16084:	03312623          	sw	s3,44(sp)
   16088:	03512223          	sw	s5,36(sp)
   1608c:	00078993          	mv	s3,a5
   16090:	00070a93          	mv	s5,a4
   16094:	001a1493          	slli	s1,s4,0x1
   16098:	02112e23          	sw	ra,60(sp)
   1609c:	00812403          	lw	s0,8(sp)
   160a0:	b44ff0ef          	jal	153e4 <_Balloc>
   160a4:	00100737          	lui	a4,0x100
   160a8:	fff70793          	addi	a5,a4,-1 # fffff <_gp+0xe2a7f>
   160ac:	0154d493          	srli	s1,s1,0x15
   160b0:	00050913          	mv	s2,a0
   160b4:	00fa7a33          	and	s4,s4,a5
   160b8:	00048463          	beqz	s1,160c0 <__d2b+0x5c>
   160bc:	00ea6a33          	or	s4,s4,a4
   160c0:	01412e23          	sw	s4,28(sp)
   160c4:	08040263          	beqz	s0,16148 <__d2b+0xe4>
   160c8:	01810513          	addi	a0,sp,24
   160cc:	00812c23          	sw	s0,24(sp)
   160d0:	e70ff0ef          	jal	15740 <__lo0bits>
   160d4:	00050793          	mv	a5,a0
   160d8:	01c12703          	lw	a4,28(sp)
   160dc:	0a051463          	bnez	a0,16184 <__d2b+0x120>
   160e0:	01812683          	lw	a3,24(sp)
   160e4:	00d92a23          	sw	a3,20(s2)
   160e8:	00e03433          	snez	s0,a4
   160ec:	00140413          	addi	s0,s0,1
   160f0:	00e92c23          	sw	a4,24(s2)
   160f4:	00892823          	sw	s0,16(s2)
   160f8:	06049863          	bnez	s1,16168 <__d2b+0x104>
   160fc:	00241713          	slli	a4,s0,0x2
   16100:	00e90733          	add	a4,s2,a4
   16104:	01072503          	lw	a0,16(a4)
   16108:	bce78793          	addi	a5,a5,-1074 # 3feffbce <_gp+0x3fee264e>
   1610c:	00faa023          	sw	a5,0(s5)
   16110:	db8ff0ef          	jal	156c8 <__hi0bits>
   16114:	00541413          	slli	s0,s0,0x5
   16118:	40a40533          	sub	a0,s0,a0
   1611c:	00a9a023          	sw	a0,0(s3)
   16120:	03c12083          	lw	ra,60(sp)
   16124:	00090513          	mv	a0,s2
   16128:	03812403          	lw	s0,56(sp)
   1612c:	03412483          	lw	s1,52(sp)
   16130:	03012903          	lw	s2,48(sp)
   16134:	02c12983          	lw	s3,44(sp)
   16138:	02812a03          	lw	s4,40(sp)
   1613c:	02412a83          	lw	s5,36(sp)
   16140:	04010113          	addi	sp,sp,64
   16144:	00008067          	ret
   16148:	01c10513          	addi	a0,sp,28
   1614c:	df4ff0ef          	jal	15740 <__lo0bits>
   16150:	01c12783          	lw	a5,28(sp)
   16154:	00100413          	li	s0,1
   16158:	00892823          	sw	s0,16(s2)
   1615c:	00f92a23          	sw	a5,20(s2)
   16160:	02050793          	addi	a5,a0,32
   16164:	f8048ce3          	beqz	s1,160fc <__d2b+0x98>
   16168:	bcd48493          	addi	s1,s1,-1075
   1616c:	03500713          	li	a4,53
   16170:	00f484b3          	add	s1,s1,a5
   16174:	40f707b3          	sub	a5,a4,a5
   16178:	009aa023          	sw	s1,0(s5)
   1617c:	00f9a023          	sw	a5,0(s3)
   16180:	fa1ff06f          	j	16120 <__d2b+0xbc>
   16184:	02000693          	li	a3,32
   16188:	01812603          	lw	a2,24(sp)
   1618c:	40a686b3          	sub	a3,a3,a0
   16190:	00d716b3          	sll	a3,a4,a3
   16194:	00c6e6b3          	or	a3,a3,a2
   16198:	00a75733          	srl	a4,a4,a0
   1619c:	00d92a23          	sw	a3,20(s2)
   161a0:	00e12e23          	sw	a4,28(sp)
   161a4:	f45ff06f          	j	160e8 <__d2b+0x84>

000161a8 <__ratio>:
   161a8:	fd010113          	addi	sp,sp,-48
   161ac:	02812423          	sw	s0,40(sp)
   161b0:	00058413          	mv	s0,a1
   161b4:	01810593          	addi	a1,sp,24
   161b8:	02112623          	sw	ra,44(sp)
   161bc:	02912223          	sw	s1,36(sp)
   161c0:	00050493          	mv	s1,a0
   161c4:	d75ff0ef          	jal	15f38 <__b2d>
   161c8:	00040513          	mv	a0,s0
   161cc:	01c10593          	addi	a1,sp,28
   161d0:	00a13027          	fsd	fa0,0(sp)
   161d4:	d65ff0ef          	jal	15f38 <__b2d>
   161d8:	01042683          	lw	a3,16(s0)
   161dc:	0104a783          	lw	a5,16(s1)
   161e0:	01812703          	lw	a4,24(sp)
   161e4:	00a13427          	fsd	fa0,8(sp)
   161e8:	40d787b3          	sub	a5,a5,a3
   161ec:	00579693          	slli	a3,a5,0x5
   161f0:	01c12783          	lw	a5,28(sp)
   161f4:	00012603          	lw	a2,0(sp)
   161f8:	00812503          	lw	a0,8(sp)
   161fc:	40f707b3          	sub	a5,a4,a5
   16200:	00d787b3          	add	a5,a5,a3
   16204:	00c12583          	lw	a1,12(sp)
   16208:	00412683          	lw	a3,4(sp)
   1620c:	02f05a63          	blez	a5,16240 <__ratio+0x98>
   16210:	01479793          	slli	a5,a5,0x14
   16214:	00d786b3          	add	a3,a5,a3
   16218:	00c12023          	sw	a2,0(sp)
   1621c:	00d12223          	sw	a3,4(sp)
   16220:	00013507          	fld	fa0,0(sp)
   16224:	00813607          	fld	fa2,8(sp)
   16228:	51c030ef          	jal	19744 <__divdf3>
   1622c:	02c12083          	lw	ra,44(sp)
   16230:	02812403          	lw	s0,40(sp)
   16234:	02412483          	lw	s1,36(sp)
   16238:	03010113          	addi	sp,sp,48
   1623c:	00008067          	ret
   16240:	01479793          	slli	a5,a5,0x14
   16244:	40f585b3          	sub	a1,a1,a5
   16248:	00a12423          	sw	a0,8(sp)
   1624c:	00b12623          	sw	a1,12(sp)
   16250:	fd1ff06f          	j	16220 <__ratio+0x78>

00016254 <_mprec_log10>:
   16254:	01700793          	li	a5,23
   16258:	00a7de63          	ble	a0,a5,16274 <_mprec_log10+0x20>
   1625c:	8401b507          	fld	fa0,-1984(gp) # 1cdc0 <__wctomb+0x28>
   16260:	8481b007          	fld	ft0,-1976(gp) # 1cdc8 <__wctomb+0x30>
   16264:	fff50513          	addi	a0,a0,-1
   16268:	12057553          	fmul.d	fa0,fa0,ft0
   1626c:	fe051ce3          	bnez	a0,16264 <_mprec_log10+0x10>
   16270:	00008067          	ret
   16274:	0001b7b7          	lui	a5,0x1b
   16278:	e6878793          	addi	a5,a5,-408 # 1ae68 <p05.2448>
   1627c:	00351513          	slli	a0,a0,0x3
   16280:	00a78533          	add	a0,a5,a0
   16284:	01053507          	fld	fa0,16(a0)
   16288:	00008067          	ret

0001628c <__copybits>:
   1628c:	01062683          	lw	a3,16(a2)
   16290:	fff58593          	addi	a1,a1,-1
   16294:	4055d813          	srai	a6,a1,0x5
   16298:	00180813          	addi	a6,a6,1
   1629c:	01460793          	addi	a5,a2,20
   162a0:	00269693          	slli	a3,a3,0x2
   162a4:	00281813          	slli	a6,a6,0x2
   162a8:	00d786b3          	add	a3,a5,a3
   162ac:	01050833          	add	a6,a0,a6
   162b0:	02d7f863          	bleu	a3,a5,162e0 <__copybits+0x54>
   162b4:	00050713          	mv	a4,a0
   162b8:	00478793          	addi	a5,a5,4
   162bc:	ffc7a583          	lw	a1,-4(a5)
   162c0:	00470713          	addi	a4,a4,4
   162c4:	feb72e23          	sw	a1,-4(a4)
   162c8:	fed7e8e3          	bltu	a5,a3,162b8 <__copybits+0x2c>
   162cc:	40c687b3          	sub	a5,a3,a2
   162d0:	feb78793          	addi	a5,a5,-21
   162d4:	ffc7f793          	andi	a5,a5,-4
   162d8:	00478793          	addi	a5,a5,4
   162dc:	00f50533          	add	a0,a0,a5
   162e0:	01057863          	bleu	a6,a0,162f0 <__copybits+0x64>
   162e4:	00450513          	addi	a0,a0,4
   162e8:	fe052e23          	sw	zero,-4(a0)
   162ec:	ff056ce3          	bltu	a0,a6,162e4 <__copybits+0x58>
   162f0:	00008067          	ret

000162f4 <__any_on>:
   162f4:	01052783          	lw	a5,16(a0)
   162f8:	4055d713          	srai	a4,a1,0x5
   162fc:	01450693          	addi	a3,a0,20
   16300:	02e7da63          	ble	a4,a5,16334 <__any_on+0x40>
   16304:	00279793          	slli	a5,a5,0x2
   16308:	00f687b3          	add	a5,a3,a5
   1630c:	06f6f263          	bleu	a5,a3,16370 <__any_on+0x7c>
   16310:	ffc7a503          	lw	a0,-4(a5)
   16314:	ffc78793          	addi	a5,a5,-4
   16318:	00051a63          	bnez	a0,1632c <__any_on+0x38>
   1631c:	04f6f863          	bleu	a5,a3,1636c <__any_on+0x78>
   16320:	ffc78793          	addi	a5,a5,-4
   16324:	0007a703          	lw	a4,0(a5)
   16328:	fe070ae3          	beqz	a4,1631c <__any_on+0x28>
   1632c:	00100513          	li	a0,1
   16330:	00008067          	ret
   16334:	02f75663          	ble	a5,a4,16360 <__any_on+0x6c>
   16338:	00271793          	slli	a5,a4,0x2
   1633c:	01f5f593          	andi	a1,a1,31
   16340:	00f687b3          	add	a5,a3,a5
   16344:	fc0584e3          	beqz	a1,1630c <__any_on+0x18>
   16348:	0007a603          	lw	a2,0(a5)
   1634c:	00100513          	li	a0,1
   16350:	00b65733          	srl	a4,a2,a1
   16354:	00b715b3          	sll	a1,a4,a1
   16358:	fac58ae3          	beq	a1,a2,1630c <__any_on+0x18>
   1635c:	00008067          	ret
   16360:	00271793          	slli	a5,a4,0x2
   16364:	00f687b3          	add	a5,a3,a5
   16368:	fa5ff06f          	j	1630c <__any_on+0x18>
   1636c:	00008067          	ret
   16370:	00000513          	li	a0,0
   16374:	00008067          	ret

00016378 <__fpclassifyd>:
   16378:	ff010113          	addi	sp,sp,-16
   1637c:	00a13427          	fsd	fa0,8(sp)
   16380:	00812703          	lw	a4,8(sp)
   16384:	00c12783          	lw	a5,12(sp)
   16388:	00200513          	li	a0,2
   1638c:	00f766b3          	or	a3,a4,a5
   16390:	00069663          	bnez	a3,1639c <__fpclassifyd+0x24>
   16394:	01010113          	addi	sp,sp,16
   16398:	00008067          	ret
   1639c:	800006b7          	lui	a3,0x80000
   163a0:	04d78863          	beq	a5,a3,163f0 <__fpclassifyd+0x78>
   163a4:	fff006b7          	lui	a3,0xfff00
   163a8:	00d786b3          	add	a3,a5,a3
   163ac:	7fe00637          	lui	a2,0x7fe00
   163b0:	00400513          	li	a0,4
   163b4:	fec6e0e3          	bltu	a3,a2,16394 <__fpclassifyd+0x1c>
   163b8:	7ff006b7          	lui	a3,0x7ff00
   163bc:	00d786b3          	add	a3,a5,a3
   163c0:	fcc6eae3          	bltu	a3,a2,16394 <__fpclassifyd+0x1c>
   163c4:	800006b7          	lui	a3,0x80000
   163c8:	fff6c693          	not	a3,a3
   163cc:	00d7f7b3          	and	a5,a5,a3
   163d0:	001006b7          	lui	a3,0x100
   163d4:	00300513          	li	a0,3
   163d8:	fad7eee3          	bltu	a5,a3,16394 <__fpclassifyd+0x1c>
   163dc:	7ff006b7          	lui	a3,0x7ff00
   163e0:	00000513          	li	a0,0
   163e4:	fad798e3          	bne	a5,a3,16394 <__fpclassifyd+0x1c>
   163e8:	00173513          	seqz	a0,a4
   163ec:	fa9ff06f          	j	16394 <__fpclassifyd+0x1c>
   163f0:	fa0702e3          	beqz	a4,16394 <__fpclassifyd+0x1c>
   163f4:	fd1ff06f          	j	163c4 <__fpclassifyd+0x4c>

000163f8 <__sread>:
   163f8:	00e59503          	lh	a0,14(a1)
   163fc:	ff010113          	addi	sp,sp,-16
   16400:	00812423          	sw	s0,8(sp)
   16404:	00058413          	mv	s0,a1
   16408:	00060593          	mv	a1,a2
   1640c:	00068613          	mv	a2,a3
   16410:	00112623          	sw	ra,12(sp)
   16414:	648020ef          	jal	18a5c <read>
   16418:	02054063          	bltz	a0,16438 <__sread+0x40>
   1641c:	05042783          	lw	a5,80(s0)
   16420:	00c12083          	lw	ra,12(sp)
   16424:	00a787b3          	add	a5,a5,a0
   16428:	04f42823          	sw	a5,80(s0)
   1642c:	00812403          	lw	s0,8(sp)
   16430:	01010113          	addi	sp,sp,16
   16434:	00008067          	ret
   16438:	00c45703          	lhu	a4,12(s0)
   1643c:	fffff7b7          	lui	a5,0xfffff
   16440:	00c12083          	lw	ra,12(sp)
   16444:	fff78793          	addi	a5,a5,-1 # ffffefff <_gp+0xfffe1a7f>
   16448:	00f777b3          	and	a5,a4,a5
   1644c:	00f41623          	sh	a5,12(s0)
   16450:	00812403          	lw	s0,8(sp)
   16454:	01010113          	addi	sp,sp,16
   16458:	00008067          	ret

0001645c <__seofread>:
   1645c:	00000513          	li	a0,0
   16460:	00008067          	ret

00016464 <__swrite>:
   16464:	00c59703          	lh	a4,12(a1)
   16468:	ff010113          	addi	sp,sp,-16
   1646c:	00812423          	sw	s0,8(sp)
   16470:	10077793          	andi	a5,a4,256
   16474:	00912223          	sw	s1,4(sp)
   16478:	01212023          	sw	s2,0(sp)
   1647c:	00112623          	sw	ra,12(sp)
   16480:	00058413          	mv	s0,a1
   16484:	00060913          	mv	s2,a2
   16488:	00068493          	mv	s1,a3
   1648c:	00078e63          	beqz	a5,164a8 <__swrite+0x44>
   16490:	00e59503          	lh	a0,14(a1)
   16494:	00200713          	li	a4,2
   16498:	00000613          	li	a2,0
   1649c:	00000693          	li	a3,0
   164a0:	59c020ef          	jal	18a3c <lseek>
   164a4:	00c41703          	lh	a4,12(s0)
   164a8:	fffff7b7          	lui	a5,0xfffff
   164ac:	fff78793          	addi	a5,a5,-1 # ffffefff <_gp+0xfffe1a7f>
   164b0:	00f777b3          	and	a5,a4,a5
   164b4:	00e41503          	lh	a0,14(s0)
   164b8:	00f41623          	sh	a5,12(s0)
   164bc:	00090593          	mv	a1,s2
   164c0:	00048613          	mv	a2,s1
   164c4:	00c12083          	lw	ra,12(sp)
   164c8:	00812403          	lw	s0,8(sp)
   164cc:	00412483          	lw	s1,4(sp)
   164d0:	00012903          	lw	s2,0(sp)
   164d4:	01010113          	addi	sp,sp,16
   164d8:	5980206f          	j	18a70 <write>

000164dc <__sseek>:
   164dc:	00e59503          	lh	a0,14(a1)
   164e0:	ff010113          	addi	sp,sp,-16
   164e4:	00812423          	sw	s0,8(sp)
   164e8:	00112623          	sw	ra,12(sp)
   164ec:	00058413          	mv	s0,a1
   164f0:	54c020ef          	jal	18a3c <lseek>
   164f4:	fff00793          	li	a5,-1
   164f8:	00c45703          	lhu	a4,12(s0)
   164fc:	02f50263          	beq	a0,a5,16520 <__sseek+0x44>
   16500:	00c12083          	lw	ra,12(sp)
   16504:	000017b7          	lui	a5,0x1
   16508:	00f767b3          	or	a5,a4,a5
   1650c:	04a42823          	sw	a0,80(s0)
   16510:	00f41623          	sh	a5,12(s0)
   16514:	00812403          	lw	s0,8(sp)
   16518:	01010113          	addi	sp,sp,16
   1651c:	00008067          	ret
   16520:	fea590e3          	bne	a1,a0,16500 <__sseek+0x24>
   16524:	fffff7b7          	lui	a5,0xfffff
   16528:	00c12083          	lw	ra,12(sp)
   1652c:	fff78793          	addi	a5,a5,-1 # ffffefff <_gp+0xfffe1a7f>
   16530:	00f777b3          	and	a5,a4,a5
   16534:	00f41623          	sh	a5,12(s0)
   16538:	00812403          	lw	s0,8(sp)
   1653c:	01010113          	addi	sp,sp,16
   16540:	00008067          	ret

00016544 <__sclose>:
   16544:	00e59503          	lh	a0,14(a1)
   16548:	5bc0206f          	j	18b04 <close>

0001654c <strcmp>:
   1654c:	00b56733          	or	a4,a0,a1
   16550:	fff00393          	li	t2,-1
   16554:	00377713          	andi	a4,a4,3
   16558:	0c071063          	bnez	a4,16618 <strcmp+0xcc>
   1655c:	7f7f8e37          	lui	t3,0x7f7f8
   16560:	f7fe0e13          	addi	t3,t3,-129 # 7f7f7f7f <_gp+0x7f7da9ff>
   16564:	00052603          	lw	a2,0(a0)
   16568:	0005a683          	lw	a3,0(a1)
   1656c:	01c672b3          	and	t0,a2,t3
   16570:	01c66333          	or	t1,a2,t3
   16574:	01c282b3          	add	t0,t0,t3
   16578:	0062e2b3          	or	t0,t0,t1
   1657c:	0c729263          	bne	t0,t2,16640 <strcmp+0xf4>
   16580:	04d61663          	bne	a2,a3,165cc <strcmp+0x80>
   16584:	00452603          	lw	a2,4(a0)
   16588:	0045a683          	lw	a3,4(a1)
   1658c:	01c672b3          	and	t0,a2,t3
   16590:	01c66333          	or	t1,a2,t3
   16594:	01c282b3          	add	t0,t0,t3
   16598:	0062e2b3          	or	t0,t0,t1
   1659c:	08729e63          	bne	t0,t2,16638 <strcmp+0xec>
   165a0:	02d61663          	bne	a2,a3,165cc <strcmp+0x80>
   165a4:	00852603          	lw	a2,8(a0)
   165a8:	0085a683          	lw	a3,8(a1)
   165ac:	01c672b3          	and	t0,a2,t3
   165b0:	01c66333          	or	t1,a2,t3
   165b4:	01c282b3          	add	t0,t0,t3
   165b8:	0062e2b3          	or	t0,t0,t1
   165bc:	08729863          	bne	t0,t2,1664c <strcmp+0x100>
   165c0:	00c50513          	addi	a0,a0,12
   165c4:	00c58593          	addi	a1,a1,12
   165c8:	f8d60ee3          	beq	a2,a3,16564 <strcmp+0x18>
   165cc:	01061713          	slli	a4,a2,0x10
   165d0:	01069793          	slli	a5,a3,0x10
   165d4:	00f71e63          	bne	a4,a5,165f0 <strcmp+0xa4>
   165d8:	01065713          	srli	a4,a2,0x10
   165dc:	0106d793          	srli	a5,a3,0x10
   165e0:	40f70533          	sub	a0,a4,a5
   165e4:	0ff57593          	andi	a1,a0,255
   165e8:	02059063          	bnez	a1,16608 <strcmp+0xbc>
   165ec:	00008067          	ret
   165f0:	01075713          	srli	a4,a4,0x10
   165f4:	0107d793          	srli	a5,a5,0x10
   165f8:	40f70533          	sub	a0,a4,a5
   165fc:	0ff57593          	andi	a1,a0,255
   16600:	00059463          	bnez	a1,16608 <strcmp+0xbc>
   16604:	00008067          	ret
   16608:	0ff77713          	andi	a4,a4,255
   1660c:	0ff7f793          	andi	a5,a5,255
   16610:	40f70533          	sub	a0,a4,a5
   16614:	00008067          	ret
   16618:	00054603          	lbu	a2,0(a0)
   1661c:	0005c683          	lbu	a3,0(a1)
   16620:	00150513          	addi	a0,a0,1
   16624:	00158593          	addi	a1,a1,1
   16628:	00d61463          	bne	a2,a3,16630 <strcmp+0xe4>
   1662c:	fe0616e3          	bnez	a2,16618 <strcmp+0xcc>
   16630:	40d60533          	sub	a0,a2,a3
   16634:	00008067          	ret
   16638:	00450513          	addi	a0,a0,4
   1663c:	00458593          	addi	a1,a1,4
   16640:	fcd61ce3          	bne	a2,a3,16618 <strcmp+0xcc>
   16644:	00000513          	li	a0,0
   16648:	00008067          	ret
   1664c:	00850513          	addi	a0,a0,8
   16650:	00858593          	addi	a1,a1,8
   16654:	fcd612e3          	bne	a2,a3,16618 <strcmp+0xcc>
   16658:	00000513          	li	a0,0
   1665c:	00008067          	ret

00016660 <strlen>:
   16660:	01e51793          	slli	a5,a0,0x1e
   16664:	00050693          	mv	a3,a0
   16668:	04079c63          	bnez	a5,166c0 <strlen+0x60>
   1666c:	7f7f8637          	lui	a2,0x7f7f8
   16670:	f7f60613          	addi	a2,a2,-129 # 7f7f7f7f <_gp+0x7f7da9ff>
   16674:	fff00593          	li	a1,-1
   16678:	00468693          	addi	a3,a3,4 # 7ff00004 <_gp+0x7fee2a84>
   1667c:	ffc6a703          	lw	a4,-4(a3)
   16680:	00c777b3          	and	a5,a4,a2
   16684:	00c787b3          	add	a5,a5,a2
   16688:	00c76733          	or	a4,a4,a2
   1668c:	00f767b3          	or	a5,a4,a5
   16690:	feb784e3          	beq	a5,a1,16678 <strlen+0x18>
   16694:	ffc6c703          	lbu	a4,-4(a3)
   16698:	40a687b3          	sub	a5,a3,a0
   1669c:	ffd6c603          	lbu	a2,-3(a3)
   166a0:	ffe6c683          	lbu	a3,-2(a3)
   166a4:	02070e63          	beqz	a4,166e0 <strlen+0x80>
   166a8:	02060863          	beqz	a2,166d8 <strlen+0x78>
   166ac:	fff78513          	addi	a0,a5,-1
   166b0:	02068c63          	beqz	a3,166e8 <strlen+0x88>
   166b4:	00008067          	ret
   166b8:	01e69793          	slli	a5,a3,0x1e
   166bc:	fa0788e3          	beqz	a5,1666c <strlen+0xc>
   166c0:	0006c783          	lbu	a5,0(a3)
   166c4:	00168693          	addi	a3,a3,1
   166c8:	fe0798e3          	bnez	a5,166b8 <strlen+0x58>
   166cc:	40a68533          	sub	a0,a3,a0
   166d0:	fff50513          	addi	a0,a0,-1
   166d4:	00008067          	ret
   166d8:	ffd78513          	addi	a0,a5,-3
   166dc:	00008067          	ret
   166e0:	ffc78513          	addi	a0,a5,-4
   166e4:	00008067          	ret
   166e8:	ffe78513          	addi	a0,a5,-2
   166ec:	00008067          	ret

000166f0 <__sprint_r.part.0>:
   166f0:	0645a783          	lw	a5,100(a1)
   166f4:	fd010113          	addi	sp,sp,-48
   166f8:	01412c23          	sw	s4,24(sp)
   166fc:	01279713          	slli	a4,a5,0x12
   16700:	01612823          	sw	s6,16(sp)
   16704:	02112623          	sw	ra,44(sp)
   16708:	02812423          	sw	s0,40(sp)
   1670c:	02912223          	sw	s1,36(sp)
   16710:	03212023          	sw	s2,32(sp)
   16714:	01312e23          	sw	s3,28(sp)
   16718:	01512a23          	sw	s5,20(sp)
   1671c:	01712623          	sw	s7,12(sp)
   16720:	00058a13          	mv	s4,a1
   16724:	00060b13          	mv	s6,a2
   16728:	0a075463          	bgez	a4,167d0 <__sprint_r.part.0+0xe0>
   1672c:	00862783          	lw	a5,8(a2)
   16730:	00050a93          	mv	s5,a0
   16734:	00062b83          	lw	s7,0(a2)
   16738:	fff00993          	li	s3,-1
   1673c:	08078663          	beqz	a5,167c8 <__sprint_r.part.0+0xd8>
   16740:	004ba903          	lw	s2,4(s7)
   16744:	000ba483          	lw	s1,0(s7)
   16748:	00000413          	li	s0,0
   1674c:	00295913          	srli	s2,s2,0x2
   16750:	01204863          	bgtz	s2,16760 <__sprint_r.part.0+0x70>
   16754:	0600006f          	j	167b4 <__sprint_r.part.0+0xc4>
   16758:	00448493          	addi	s1,s1,4
   1675c:	04890a63          	beq	s2,s0,167b0 <__sprint_r.part.0+0xc0>
   16760:	0004a583          	lw	a1,0(s1)
   16764:	000a8513          	mv	a0,s5
   16768:	000a0613          	mv	a2,s4
   1676c:	200010ef          	jal	1796c <_fputwc_r>
   16770:	00140413          	addi	s0,s0,1
   16774:	ff3512e3          	bne	a0,s3,16758 <__sprint_r.part.0+0x68>
   16778:	00098513          	mv	a0,s3
   1677c:	02c12083          	lw	ra,44(sp)
   16780:	000b2423          	sw	zero,8(s6)
   16784:	000b2223          	sw	zero,4(s6)
   16788:	02812403          	lw	s0,40(sp)
   1678c:	02412483          	lw	s1,36(sp)
   16790:	02012903          	lw	s2,32(sp)
   16794:	01c12983          	lw	s3,28(sp)
   16798:	01812a03          	lw	s4,24(sp)
   1679c:	01412a83          	lw	s5,20(sp)
   167a0:	01012b03          	lw	s6,16(sp)
   167a4:	00c12b83          	lw	s7,12(sp)
   167a8:	03010113          	addi	sp,sp,48
   167ac:	00008067          	ret
   167b0:	008b2783          	lw	a5,8(s6)
   167b4:	00291913          	slli	s2,s2,0x2
   167b8:	412787b3          	sub	a5,a5,s2
   167bc:	00fb2423          	sw	a5,8(s6)
   167c0:	008b8b93          	addi	s7,s7,8
   167c4:	f6079ee3          	bnez	a5,16740 <__sprint_r.part.0+0x50>
   167c8:	00000513          	li	a0,0
   167cc:	fb1ff06f          	j	1677c <__sprint_r.part.0+0x8c>
   167d0:	368010ef          	jal	17b38 <__sfvwrite_r>
   167d4:	fa9ff06f          	j	1677c <__sprint_r.part.0+0x8c>

000167d8 <__sprint_r>:
   167d8:	00862703          	lw	a4,8(a2)
   167dc:	00070463          	beqz	a4,167e4 <__sprint_r+0xc>
   167e0:	f11ff06f          	j	166f0 <__sprint_r.part.0>
   167e4:	00062223          	sw	zero,4(a2)
   167e8:	00000513          	li	a0,0
   167ec:	00008067          	ret

000167f0 <_vfiprintf_r>:
   167f0:	b1010113          	addi	sp,sp,-1264
   167f4:	4d412c23          	sw	s4,1240(sp)
   167f8:	4d512a23          	sw	s5,1236(sp)
   167fc:	4d912223          	sw	s9,1220(sp)
   16800:	4e112623          	sw	ra,1260(sp)
   16804:	4e812423          	sw	s0,1256(sp)
   16808:	4e912223          	sw	s1,1252(sp)
   1680c:	4f212023          	sw	s2,1248(sp)
   16810:	4d312e23          	sw	s3,1244(sp)
   16814:	4d612823          	sw	s6,1232(sp)
   16818:	4d712623          	sw	s7,1228(sp)
   1681c:	4d812423          	sw	s8,1224(sp)
   16820:	4da12023          	sw	s10,1216(sp)
   16824:	4bb12e23          	sw	s11,1212(sp)
   16828:	00050a13          	mv	s4,a0
   1682c:	00058c93          	mv	s9,a1
   16830:	00060a93          	mv	s5,a2
   16834:	00d12a23          	sw	a3,20(sp)
   16838:	00050663          	beqz	a0,16844 <_vfiprintf_r+0x54>
   1683c:	03852783          	lw	a5,56(a0)
   16840:	0e0780e3          	beqz	a5,17120 <_vfiprintf_r+0x930>
   16844:	00cc9703          	lh	a4,12(s9)
   16848:	01071793          	slli	a5,a4,0x10
   1684c:	0107d793          	srli	a5,a5,0x10
   16850:	01279593          	slli	a1,a5,0x12
   16854:	0205c663          	bltz	a1,16880 <_vfiprintf_r+0x90>
   16858:	064ca683          	lw	a3,100(s9)
   1685c:	000027b7          	lui	a5,0x2
   16860:	00f76733          	or	a4,a4,a5
   16864:	ffffe7b7          	lui	a5,0xffffe
   16868:	fff78793          	addi	a5,a5,-1 # ffffdfff <_gp+0xfffe0a7f>
   1686c:	00f6f7b3          	and	a5,a3,a5
   16870:	06fca223          	sw	a5,100(s9)
   16874:	01071793          	slli	a5,a4,0x10
   16878:	00ec9623          	sh	a4,12(s9)
   1687c:	0107d793          	srli	a5,a5,0x10
   16880:	0087f693          	andi	a3,a5,8
   16884:	72068863          	beqz	a3,16fb4 <_vfiprintf_r+0x7c4>
   16888:	010ca683          	lw	a3,16(s9)
   1688c:	72068463          	beqz	a3,16fb4 <_vfiprintf_r+0x7c4>
   16890:	01a7f793          	andi	a5,a5,26
   16894:	00a00693          	li	a3,10
   16898:	74d78263          	beq	a5,a3,16fdc <_vfiprintf_r+0x7ec>
   1689c:	07010793          	addi	a5,sp,112
   168a0:	06f10813          	addi	a6,sp,111
   168a4:	0001b6b7          	lui	a3,0x1b
   168a8:	0b010c13          	addi	s8,sp,176
   168ac:	0f468b93          	addi	s7,a3,244 # 1b0f4 <blanks.3888>
   168b0:	410786b3          	sub	a3,a5,a6
   168b4:	02d12623          	sw	a3,44(sp)
   168b8:	00f12823          	sw	a5,16(sp)
   168bc:	01012623          	sw	a6,12(sp)
   168c0:	03812e23          	sw	s8,60(sp)
   168c4:	04012223          	sw	zero,68(sp)
   168c8:	04012023          	sw	zero,64(sp)
   168cc:	02012223          	sw	zero,36(sp)
   168d0:	00012c23          	sw	zero,24(sp)
   168d4:	000c0693          	mv	a3,s8
   168d8:	000a8913          	mv	s2,s5
   168dc:	00094783          	lbu	a5,0(s2)
   168e0:	42078ce3          	beqz	a5,17518 <_vfiprintf_r+0xd28>
   168e4:	02500613          	li	a2,37
   168e8:	42c788e3          	beq	a5,a2,17518 <_vfiprintf_r+0xd28>
   168ec:	00090793          	mv	a5,s2
   168f0:	0080006f          	j	168f8 <_vfiprintf_r+0x108>
   168f4:	00c70863          	beq	a4,a2,16904 <_vfiprintf_r+0x114>
   168f8:	00178793          	addi	a5,a5,1
   168fc:	0007c703          	lbu	a4,0(a5)
   16900:	fe071ae3          	bnez	a4,168f4 <_vfiprintf_r+0x104>
   16904:	41278433          	sub	s0,a5,s2
   16908:	00078493          	mv	s1,a5
   1690c:	02040e63          	beqz	s0,16948 <_vfiprintf_r+0x158>
   16910:	04412603          	lw	a2,68(sp)
   16914:	04012703          	lw	a4,64(sp)
   16918:	00700593          	li	a1,7
   1691c:	00c40633          	add	a2,s0,a2
   16920:	00170713          	addi	a4,a4,1
   16924:	0126a023          	sw	s2,0(a3)
   16928:	0086a223          	sw	s0,4(a3)
   1692c:	04c12223          	sw	a2,68(sp)
   16930:	04e12023          	sw	a4,64(sp)
   16934:	00868693          	addi	a3,a3,8
   16938:	06e5c263          	blt	a1,a4,1699c <_vfiprintf_r+0x1ac>
   1693c:	01812703          	lw	a4,24(sp)
   16940:	00870733          	add	a4,a4,s0
   16944:	00e12c23          	sw	a4,24(sp)
   16948:	0004c703          	lbu	a4,0(s1)
   1694c:	40070a63          	beqz	a4,16d60 <_vfiprintf_r+0x570>
   16950:	00148793          	addi	a5,s1,1
   16954:	02010ba3          	sb	zero,55(sp)
   16958:	00000513          	li	a0,0
   1695c:	fff00413          	li	s0,-1
   16960:	00000b13          	li	s6,0
   16964:	00000993          	li	s3,0
   16968:	05800613          	li	a2,88
   1696c:	00900593          	li	a1,9
   16970:	02a00293          	li	t0,42
   16974:	0007c703          	lbu	a4,0(a5)
   16978:	00178913          	addi	s2,a5,1
   1697c:	fe070793          	addi	a5,a4,-32
   16980:	32f662e3          	bltu	a2,a5,174a4 <_vfiprintf_r+0xcb4>
   16984:	0001b837          	lui	a6,0x1b
   16988:	00279793          	slli	a5,a5,0x2
   1698c:	f9080813          	addi	a6,a6,-112 # 1af90 <__mprec_bigtens+0x28>
   16990:	010787b3          	add	a5,a5,a6
   16994:	0007a783          	lw	a5,0(a5)
   16998:	00078067          	jr	a5
   1699c:	3a0612e3          	bnez	a2,17540 <_vfiprintf_r+0xd50>
   169a0:	04012023          	sw	zero,64(sp)
   169a4:	000c0693          	mv	a3,s8
   169a8:	f95ff06f          	j	1693c <_vfiprintf_r+0x14c>
   169ac:	0109e993          	ori	s3,s3,16
   169b0:	00090793          	mv	a5,s2
   169b4:	fc1ff06f          	j	16974 <_vfiprintf_r+0x184>
   169b8:	0109e993          	ori	s3,s3,16
   169bc:	01b99593          	slli	a1,s3,0x1b
   169c0:	2405dae3          	bgez	a1,17414 <_vfiprintf_r+0xc24>
   169c4:	01412703          	lw	a4,20(sp)
   169c8:	00100613          	li	a2,1
   169cc:	00072783          	lw	a5,0(a4)
   169d0:	00470713          	addi	a4,a4,4
   169d4:	00e12a23          	sw	a4,20(sp)
   169d8:	02010ba3          	sb	zero,55(sp)
   169dc:	00040493          	mv	s1,s0
   169e0:	00000593          	li	a1,0
   169e4:	00044463          	bltz	s0,169ec <_vfiprintf_r+0x1fc>
   169e8:	f7f9f993          	andi	s3,s3,-129
   169ec:	32079463          	bnez	a5,16d14 <_vfiprintf_r+0x524>
   169f0:	6a040c63          	beqz	s0,170a8 <_vfiprintf_r+0x8b8>
   169f4:	00100713          	li	a4,1
   169f8:	3ee602e3          	beq	a2,a4,175dc <_vfiprintf_r+0xdec>
   169fc:	00200713          	li	a4,2
   16a00:	6ce61a63          	bne	a2,a4,170d4 <_vfiprintf_r+0x8e4>
   16a04:	02412603          	lw	a2,36(sp)
   16a08:	07010d93          	addi	s11,sp,112
   16a0c:	00f7f713          	andi	a4,a5,15
   16a10:	00e60733          	add	a4,a2,a4
   16a14:	00074703          	lbu	a4,0(a4)
   16a18:	fffd8d93          	addi	s11,s11,-1
   16a1c:	0047d793          	srli	a5,a5,0x4
   16a20:	00ed8023          	sb	a4,0(s11)
   16a24:	fe0794e3          	bnez	a5,16a0c <_vfiprintf_r+0x21c>
   16a28:	01012783          	lw	a5,16(sp)
   16a2c:	01b12e23          	sw	s11,28(sp)
   16a30:	41b784b3          	sub	s1,a5,s11
   16a34:	00048d13          	mv	s10,s1
   16a38:	0084d463          	ble	s0,s1,16a40 <_vfiprintf_r+0x250>
   16a3c:	00040d13          	mv	s10,s0
   16a40:	00b035b3          	snez	a1,a1
   16a44:	00bd0d33          	add	s10,s10,a1
   16a48:	0029f393          	andi	t2,s3,2
   16a4c:	00038463          	beqz	t2,16a54 <_vfiprintf_r+0x264>
   16a50:	002d0d13          	addi	s10,s10,2
   16a54:	0849fa93          	andi	s5,s3,132
   16a58:	240a9263          	bnez	s5,16c9c <_vfiprintf_r+0x4ac>
   16a5c:	41ab0db3          	sub	s11,s6,s10
   16a60:	23b05e63          	blez	s11,16c9c <_vfiprintf_r+0x4ac>
   16a64:	01000e93          	li	t4,16
   16a68:	04412783          	lw	a5,68(sp)
   16a6c:	49bed2e3          	ble	s11,t4,176f0 <_vfiprintf_r+0xf00>
   16a70:	02812423          	sw	s0,40(sp)
   16a74:	04012583          	lw	a1,64(sp)
   16a78:	000d8413          	mv	s0,s11
   16a7c:	03712023          	sw	s7,32(sp)
   16a80:	00090d93          	mv	s11,s2
   16a84:	00700f13          	li	t5,7
   16a88:	00038913          	mv	s2,t2
   16a8c:	0180006f          	j	16aa4 <_vfiprintf_r+0x2b4>
   16a90:	00258613          	addi	a2,a1,2
   16a94:	00868693          	addi	a3,a3,8
   16a98:	00070593          	mv	a1,a4
   16a9c:	ff040413          	addi	s0,s0,-16
   16aa0:	028edc63          	ble	s0,t4,16ad8 <_vfiprintf_r+0x2e8>
   16aa4:	01078793          	addi	a5,a5,16
   16aa8:	00158713          	addi	a4,a1,1
   16aac:	0176a023          	sw	s7,0(a3)
   16ab0:	01d6a223          	sw	t4,4(a3)
   16ab4:	04f12223          	sw	a5,68(sp)
   16ab8:	04e12023          	sw	a4,64(sp)
   16abc:	fcef5ae3          	ble	a4,t5,16a90 <_vfiprintf_r+0x2a0>
   16ac0:	1a079263          	bnez	a5,16c64 <_vfiprintf_r+0x474>
   16ac4:	ff040413          	addi	s0,s0,-16
   16ac8:	00000593          	li	a1,0
   16acc:	00100613          	li	a2,1
   16ad0:	000c0693          	mv	a3,s8
   16ad4:	fc8ec8e3          	blt	t4,s0,16aa4 <_vfiprintf_r+0x2b4>
   16ad8:	00090393          	mv	t2,s2
   16adc:	000d8913          	mv	s2,s11
   16ae0:	00040d93          	mv	s11,s0
   16ae4:	02812403          	lw	s0,40(sp)
   16ae8:	02012803          	lw	a6,32(sp)
   16aec:	00fd87b3          	add	a5,s11,a5
   16af0:	00700713          	li	a4,7
   16af4:	0106a023          	sw	a6,0(a3)
   16af8:	01b6a223          	sw	s11,4(a3)
   16afc:	04f12223          	sw	a5,68(sp)
   16b00:	04c12023          	sw	a2,64(sp)
   16b04:	62c74263          	blt	a4,a2,17128 <_vfiprintf_r+0x938>
   16b08:	03714703          	lbu	a4,55(sp)
   16b0c:	00868693          	addi	a3,a3,8
   16b10:	00160593          	addi	a1,a2,1
   16b14:	18071e63          	bnez	a4,16cb0 <_vfiprintf_r+0x4c0>
   16b18:	02038a63          	beqz	t2,16b4c <_vfiprintf_r+0x35c>
   16b1c:	03810713          	addi	a4,sp,56
   16b20:	00e6a023          	sw	a4,0(a3)
   16b24:	00200713          	li	a4,2
   16b28:	00278793          	addi	a5,a5,2
   16b2c:	00e6a223          	sw	a4,4(a3)
   16b30:	00700713          	li	a4,7
   16b34:	04f12223          	sw	a5,68(sp)
   16b38:	04b12023          	sw	a1,64(sp)
   16b3c:	54b74c63          	blt	a4,a1,17094 <_vfiprintf_r+0x8a4>
   16b40:	00058613          	mv	a2,a1
   16b44:	00868693          	addi	a3,a3,8
   16b48:	00158593          	addi	a1,a1,1
   16b4c:	08000713          	li	a4,128
   16b50:	38ea8a63          	beq	s5,a4,16ee4 <_vfiprintf_r+0x6f4>
   16b54:	40940433          	sub	s0,s0,s1
   16b58:	08805663          	blez	s0,16be4 <_vfiprintf_r+0x3f4>
   16b5c:	01000713          	li	a4,16
   16b60:	308758e3          	ble	s0,a4,17670 <_vfiprintf_r+0xe80>
   16b64:	0001b837          	lui	a6,0x1b
   16b68:	10480d93          	addi	s11,a6,260 # 1b104 <zeroes.3889>
   16b6c:	00070a93          	mv	s5,a4
   16b70:	00700393          	li	t2,7
   16b74:	0180006f          	j	16b8c <_vfiprintf_r+0x39c>
   16b78:	00260593          	addi	a1,a2,2
   16b7c:	00868693          	addi	a3,a3,8
   16b80:	00070613          	mv	a2,a4
   16b84:	ff040413          	addi	s0,s0,-16
   16b88:	028adc63          	ble	s0,s5,16bc0 <_vfiprintf_r+0x3d0>
   16b8c:	01078793          	addi	a5,a5,16
   16b90:	00160713          	addi	a4,a2,1
   16b94:	01b6a023          	sw	s11,0(a3)
   16b98:	0156a223          	sw	s5,4(a3)
   16b9c:	04f12223          	sw	a5,68(sp)
   16ba0:	04e12023          	sw	a4,64(sp)
   16ba4:	fce3dae3          	ble	a4,t2,16b78 <_vfiprintf_r+0x388>
   16ba8:	12079e63          	bnez	a5,16ce4 <_vfiprintf_r+0x4f4>
   16bac:	ff040413          	addi	s0,s0,-16
   16bb0:	00000613          	li	a2,0
   16bb4:	00100593          	li	a1,1
   16bb8:	000c0693          	mv	a3,s8
   16bbc:	fc8ac8e3          	blt	s5,s0,16b8c <_vfiprintf_r+0x39c>
   16bc0:	008787b3          	add	a5,a5,s0
   16bc4:	00700713          	li	a4,7
   16bc8:	01b6a023          	sw	s11,0(a3)
   16bcc:	0086a223          	sw	s0,4(a3)
   16bd0:	04f12223          	sw	a5,68(sp)
   16bd4:	04b12023          	sw	a1,64(sp)
   16bd8:	1eb74663          	blt	a4,a1,16dc4 <_vfiprintf_r+0x5d4>
   16bdc:	00868693          	addi	a3,a3,8
   16be0:	00158593          	addi	a1,a1,1
   16be4:	01c12703          	lw	a4,28(sp)
   16be8:	009787b3          	add	a5,a5,s1
   16bec:	0096a223          	sw	s1,4(a3)
   16bf0:	00e6a023          	sw	a4,0(a3)
   16bf4:	00700713          	li	a4,7
   16bf8:	04f12223          	sw	a5,68(sp)
   16bfc:	04b12023          	sw	a1,64(sp)
   16c00:	1eb75463          	ble	a1,a4,16de8 <_vfiprintf_r+0x5f8>
   16c04:	10079ee3          	bnez	a5,17520 <_vfiprintf_r+0xd30>
   16c08:	01d99813          	slli	a6,s3,0x1d
   16c0c:	04012023          	sw	zero,64(sp)
   16c10:	54084063          	bltz	a6,17150 <_vfiprintf_r+0x960>
   16c14:	016d5463          	ble	s6,s10,16c1c <_vfiprintf_r+0x42c>
   16c18:	000b0d13          	mv	s10,s6
   16c1c:	01812683          	lw	a3,24(sp)
   16c20:	01a686b3          	add	a3,a3,s10
   16c24:	00d12c23          	sw	a3,24(sp)
   16c28:	04012023          	sw	zero,64(sp)
   16c2c:	000c0693          	mv	a3,s8
   16c30:	cadff06f          	j	168dc <_vfiprintf_r+0xec>
   16c34:	0109e993          	ori	s3,s3,16
   16c38:	01b99593          	slli	a1,s3,0x1b
   16c3c:	01412783          	lw	a5,20(sp)
   16c40:	6805ca63          	bltz	a1,172d4 <_vfiprintf_r+0xae4>
   16c44:	01999813          	slli	a6,s3,0x19
   16c48:	200850e3          	bgez	a6,17648 <_vfiprintf_r+0xe58>
   16c4c:	01412703          	lw	a4,20(sp)
   16c50:	0007d783          	lhu	a5,0(a5)
   16c54:	00000613          	li	a2,0
   16c58:	00470713          	addi	a4,a4,4
   16c5c:	00e12a23          	sw	a4,20(sp)
   16c60:	d79ff06f          	j	169d8 <_vfiprintf_r+0x1e8>
   16c64:	000a0513          	mv	a0,s4
   16c68:	000c8593          	mv	a1,s9
   16c6c:	03c10613          	addi	a2,sp,60
   16c70:	01d12423          	sw	t4,8(sp)
   16c74:	01e12223          	sw	t5,4(sp)
   16c78:	a79ff0ef          	jal	166f0 <__sprint_r.part.0>
   16c7c:	00812e83          	lw	t4,8(sp)
   16c80:	00412f03          	lw	t5,4(sp)
   16c84:	0e051a63          	bnez	a0,16d78 <_vfiprintf_r+0x588>
   16c88:	04012583          	lw	a1,64(sp)
   16c8c:	04412783          	lw	a5,68(sp)
   16c90:	000c0693          	mv	a3,s8
   16c94:	00158613          	addi	a2,a1,1
   16c98:	e05ff06f          	j	16a9c <_vfiprintf_r+0x2ac>
   16c9c:	04012603          	lw	a2,64(sp)
   16ca0:	04412783          	lw	a5,68(sp)
   16ca4:	00160593          	addi	a1,a2,1
   16ca8:	03714703          	lbu	a4,55(sp)
   16cac:	e60706e3          	beqz	a4,16b18 <_vfiprintf_r+0x328>
   16cb0:	00100713          	li	a4,1
   16cb4:	03710613          	addi	a2,sp,55
   16cb8:	00e787b3          	add	a5,a5,a4
   16cbc:	00c6a023          	sw	a2,0(a3)
   16cc0:	00700613          	li	a2,7
   16cc4:	00e6a223          	sw	a4,4(a3)
   16cc8:	04f12223          	sw	a5,68(sp)
   16ccc:	04b12023          	sw	a1,64(sp)
   16cd0:	3ab64063          	blt	a2,a1,17070 <_vfiprintf_r+0x880>
   16cd4:	00058613          	mv	a2,a1
   16cd8:	00868693          	addi	a3,a3,8
   16cdc:	00158593          	addi	a1,a1,1
   16ce0:	e39ff06f          	j	16b18 <_vfiprintf_r+0x328>
   16ce4:	000a0513          	mv	a0,s4
   16ce8:	000c8593          	mv	a1,s9
   16cec:	03c10613          	addi	a2,sp,60
   16cf0:	00712223          	sw	t2,4(sp)
   16cf4:	9fdff0ef          	jal	166f0 <__sprint_r.part.0>
   16cf8:	00412383          	lw	t2,4(sp)
   16cfc:	06051e63          	bnez	a0,16d78 <_vfiprintf_r+0x588>
   16d00:	04012603          	lw	a2,64(sp)
   16d04:	04412783          	lw	a5,68(sp)
   16d08:	000c0693          	mv	a3,s8
   16d0c:	00160593          	addi	a1,a2,1
   16d10:	e75ff06f          	j	16b84 <_vfiprintf_r+0x394>
   16d14:	00100713          	li	a4,1
   16d18:	cee612e3          	bne	a2,a4,169fc <_vfiprintf_r+0x20c>
   16d1c:	00900293          	li	t0,9
   16d20:	07010613          	addi	a2,sp,112
   16d24:	00a00513          	li	a0,10
   16d28:	00f2fe63          	bleu	a5,t0,16d44 <_vfiprintf_r+0x554>
   16d2c:	02a7f733          	remu	a4,a5,a0
   16d30:	fff60613          	addi	a2,a2,-1
   16d34:	02a7d7b3          	divu	a5,a5,a0
   16d38:	03070713          	addi	a4,a4,48
   16d3c:	00e60023          	sb	a4,0(a2)
   16d40:	fef2e6e3          	bltu	t0,a5,16d2c <_vfiprintf_r+0x53c>
   16d44:	fff60813          	addi	a6,a2,-1
   16d48:	03078793          	addi	a5,a5,48
   16d4c:	01012e23          	sw	a6,28(sp)
   16d50:	fef60fa3          	sb	a5,-1(a2)
   16d54:	01012703          	lw	a4,16(sp)
   16d58:	410704b3          	sub	s1,a4,a6
   16d5c:	cd9ff06f          	j	16a34 <_vfiprintf_r+0x244>
   16d60:	04412783          	lw	a5,68(sp)
   16d64:	00078a63          	beqz	a5,16d78 <_vfiprintf_r+0x588>
   16d68:	000a0513          	mv	a0,s4
   16d6c:	000c8593          	mv	a1,s9
   16d70:	03c10613          	addi	a2,sp,60
   16d74:	97dff0ef          	jal	166f0 <__sprint_r.part.0>
   16d78:	00ccd783          	lhu	a5,12(s9)
   16d7c:	0407f793          	andi	a5,a5,64
   16d80:	12079a63          	bnez	a5,16eb4 <_vfiprintf_r+0x6c4>
   16d84:	01812503          	lw	a0,24(sp)
   16d88:	4ec12083          	lw	ra,1260(sp)
   16d8c:	4e812403          	lw	s0,1256(sp)
   16d90:	4e412483          	lw	s1,1252(sp)
   16d94:	4e012903          	lw	s2,1248(sp)
   16d98:	4dc12983          	lw	s3,1244(sp)
   16d9c:	4d812a03          	lw	s4,1240(sp)
   16da0:	4d412a83          	lw	s5,1236(sp)
   16da4:	4d012b03          	lw	s6,1232(sp)
   16da8:	4cc12b83          	lw	s7,1228(sp)
   16dac:	4c812c03          	lw	s8,1224(sp)
   16db0:	4c412c83          	lw	s9,1220(sp)
   16db4:	4c012d03          	lw	s10,1216(sp)
   16db8:	4bc12d83          	lw	s11,1212(sp)
   16dbc:	4f010113          	addi	sp,sp,1264
   16dc0:	00008067          	ret
   16dc4:	7e079863          	bnez	a5,175b4 <_vfiprintf_r+0xdc4>
   16dc8:	01c12683          	lw	a3,28(sp)
   16dcc:	00100793          	li	a5,1
   16dd0:	04f12023          	sw	a5,64(sp)
   16dd4:	0ad12823          	sw	a3,176(sp)
   16dd8:	0a912a23          	sw	s1,180(sp)
   16ddc:	04912223          	sw	s1,68(sp)
   16de0:	00048793          	mv	a5,s1
   16de4:	000c0693          	mv	a3,s8
   16de8:	00868693          	addi	a3,a3,8
   16dec:	01d99593          	slli	a1,s3,0x1d
   16df0:	0805d663          	bgez	a1,16e7c <_vfiprintf_r+0x68c>
   16df4:	41ab0433          	sub	s0,s6,s10
   16df8:	08805263          	blez	s0,16e7c <_vfiprintf_r+0x68c>
   16dfc:	01000d93          	li	s11,16
   16e00:	128ddae3          	ble	s0,s11,17734 <_vfiprintf_r+0xf44>
   16e04:	04012603          	lw	a2,64(sp)
   16e08:	03712023          	sw	s7,32(sp)
   16e0c:	00700493          	li	s1,7
   16e10:	0180006f          	j	16e28 <_vfiprintf_r+0x638>
   16e14:	00260593          	addi	a1,a2,2
   16e18:	00868693          	addi	a3,a3,8
   16e1c:	00070613          	mv	a2,a4
   16e20:	ff040413          	addi	s0,s0,-16
   16e24:	028ddc63          	ble	s0,s11,16e5c <_vfiprintf_r+0x66c>
   16e28:	01078793          	addi	a5,a5,16
   16e2c:	00160713          	addi	a4,a2,1
   16e30:	0176a023          	sw	s7,0(a3)
   16e34:	01b6a223          	sw	s11,4(a3)
   16e38:	04f12223          	sw	a5,68(sp)
   16e3c:	04e12023          	sw	a4,64(sp)
   16e40:	fce4dae3          	ble	a4,s1,16e14 <_vfiprintf_r+0x624>
   16e44:	06079c63          	bnez	a5,16ebc <_vfiprintf_r+0x6cc>
   16e48:	ff040413          	addi	s0,s0,-16
   16e4c:	00000613          	li	a2,0
   16e50:	00100593          	li	a1,1
   16e54:	000c0693          	mv	a3,s8
   16e58:	fc8dc8e3          	blt	s11,s0,16e28 <_vfiprintf_r+0x638>
   16e5c:	02012703          	lw	a4,32(sp)
   16e60:	008787b3          	add	a5,a5,s0
   16e64:	0086a223          	sw	s0,4(a3)
   16e68:	00e6a023          	sw	a4,0(a3)
   16e6c:	00700713          	li	a4,7
   16e70:	04f12223          	sw	a5,68(sp)
   16e74:	04b12023          	sw	a1,64(sp)
   16e78:	5eb74c63          	blt	a4,a1,17470 <_vfiprintf_r+0xc80>
   16e7c:	016d5463          	ble	s6,s10,16e84 <_vfiprintf_r+0x694>
   16e80:	000b0d13          	mv	s10,s6
   16e84:	01812803          	lw	a6,24(sp)
   16e88:	01a80833          	add	a6,a6,s10
   16e8c:	01012c23          	sw	a6,24(sp)
   16e90:	d8078ce3          	beqz	a5,16c28 <_vfiprintf_r+0x438>
   16e94:	000a0513          	mv	a0,s4
   16e98:	000c8593          	mv	a1,s9
   16e9c:	03c10613          	addi	a2,sp,60
   16ea0:	851ff0ef          	jal	166f0 <__sprint_r.part.0>
   16ea4:	ec051ae3          	bnez	a0,16d78 <_vfiprintf_r+0x588>
   16ea8:	04012023          	sw	zero,64(sp)
   16eac:	000c0693          	mv	a3,s8
   16eb0:	a2dff06f          	j	168dc <_vfiprintf_r+0xec>
   16eb4:	fff00513          	li	a0,-1
   16eb8:	ed1ff06f          	j	16d88 <_vfiprintf_r+0x598>
   16ebc:	000a0513          	mv	a0,s4
   16ec0:	000c8593          	mv	a1,s9
   16ec4:	03c10613          	addi	a2,sp,60
   16ec8:	829ff0ef          	jal	166f0 <__sprint_r.part.0>
   16ecc:	ea0516e3          	bnez	a0,16d78 <_vfiprintf_r+0x588>
   16ed0:	04012603          	lw	a2,64(sp)
   16ed4:	04412783          	lw	a5,68(sp)
   16ed8:	000c0693          	mv	a3,s8
   16edc:	00160593          	addi	a1,a2,1
   16ee0:	f41ff06f          	j	16e20 <_vfiprintf_r+0x630>
   16ee4:	41ab0ab3          	sub	s5,s6,s10
   16ee8:	c75056e3          	blez	s5,16b54 <_vfiprintf_r+0x364>
   16eec:	01000393          	li	t2,16
   16ef0:	0753d4e3          	ble	s5,t2,17758 <_vfiprintf_r+0xf68>
   16ef4:	0001b5b7          	lui	a1,0x1b
   16ef8:	10458d93          	addi	s11,a1,260 # 1b104 <zeroes.3889>
   16efc:	00700e13          	li	t3,7
   16f00:	0180006f          	j	16f18 <_vfiprintf_r+0x728>
   16f04:	00260513          	addi	a0,a2,2
   16f08:	00868693          	addi	a3,a3,8
   16f0c:	00070613          	mv	a2,a4
   16f10:	ff0a8a93          	addi	s5,s5,-16
   16f14:	0353dc63          	ble	s5,t2,16f4c <_vfiprintf_r+0x75c>
   16f18:	01078793          	addi	a5,a5,16
   16f1c:	00160713          	addi	a4,a2,1
   16f20:	01b6a023          	sw	s11,0(a3)
   16f24:	0076a223          	sw	t2,4(a3)
   16f28:	04f12223          	sw	a5,68(sp)
   16f2c:	04e12023          	sw	a4,64(sp)
   16f30:	fcee5ae3          	ble	a4,t3,16f04 <_vfiprintf_r+0x714>
   16f34:	04079463          	bnez	a5,16f7c <_vfiprintf_r+0x78c>
   16f38:	ff0a8a93          	addi	s5,s5,-16
   16f3c:	00000613          	li	a2,0
   16f40:	00100513          	li	a0,1
   16f44:	000c0693          	mv	a3,s8
   16f48:	fd53c8e3          	blt	t2,s5,16f18 <_vfiprintf_r+0x728>
   16f4c:	015787b3          	add	a5,a5,s5
   16f50:	00700713          	li	a4,7
   16f54:	01b6a023          	sw	s11,0(a3)
   16f58:	0156a223          	sw	s5,4(a3)
   16f5c:	04f12223          	sw	a5,68(sp)
   16f60:	04a12023          	sw	a0,64(sp)
   16f64:	52a75863          	ble	a0,a4,17494 <_vfiprintf_r+0xca4>
   16f68:	76079063          	bnez	a5,176c8 <_vfiprintf_r+0xed8>
   16f6c:	00000613          	li	a2,0
   16f70:	00100593          	li	a1,1
   16f74:	000c0693          	mv	a3,s8
   16f78:	bddff06f          	j	16b54 <_vfiprintf_r+0x364>
   16f7c:	000a0513          	mv	a0,s4
   16f80:	000c8593          	mv	a1,s9
   16f84:	03c10613          	addi	a2,sp,60
   16f88:	00712223          	sw	t2,4(sp)
   16f8c:	01c12423          	sw	t3,8(sp)
   16f90:	f60ff0ef          	jal	166f0 <__sprint_r.part.0>
   16f94:	00412383          	lw	t2,4(sp)
   16f98:	00812e03          	lw	t3,8(sp)
   16f9c:	dc051ee3          	bnez	a0,16d78 <_vfiprintf_r+0x588>
   16fa0:	04012603          	lw	a2,64(sp)
   16fa4:	04412783          	lw	a5,68(sp)
   16fa8:	000c0693          	mv	a3,s8
   16fac:	00160513          	addi	a0,a2,1
   16fb0:	f61ff06f          	j	16f10 <_vfiprintf_r+0x720>
   16fb4:	000a0513          	mv	a0,s4
   16fb8:	000c8593          	mv	a1,s9
   16fbc:	d98fb0ef          	jal	12554 <__swsetup_r>
   16fc0:	ee051ae3          	bnez	a0,16eb4 <_vfiprintf_r+0x6c4>
   16fc4:	00cc9703          	lh	a4,12(s9)
   16fc8:	00a00693          	li	a3,10
   16fcc:	01071793          	slli	a5,a4,0x10
   16fd0:	0107d793          	srli	a5,a5,0x10
   16fd4:	01a7f793          	andi	a5,a5,26
   16fd8:	8cd792e3          	bne	a5,a3,1689c <_vfiprintf_r+0xac>
   16fdc:	00ec9783          	lh	a5,14(s9)
   16fe0:	8a07cee3          	bltz	a5,1689c <_vfiprintf_r+0xac>
   16fe4:	064ca383          	lw	t2,100(s9)
   16fe8:	01cca283          	lw	t0,28(s9)
   16fec:	024ca883          	lw	a7,36(s9)
   16ff0:	01412683          	lw	a3,20(sp)
   16ff4:	ffd77713          	andi	a4,a4,-3
   16ff8:	40000813          	li	a6,1024
   16ffc:	000a8613          	mv	a2,s5
   17000:	04e11a23          	sh	a4,84(sp)
   17004:	000a0513          	mv	a0,s4
   17008:	0b010713          	addi	a4,sp,176
   1700c:	04810593          	addi	a1,sp,72
   17010:	0a712623          	sw	t2,172(sp)
   17014:	04f11b23          	sh	a5,86(sp)
   17018:	06512223          	sw	t0,100(sp)
   1701c:	07112623          	sw	a7,108(sp)
   17020:	04e12423          	sw	a4,72(sp)
   17024:	04e12c23          	sw	a4,88(sp)
   17028:	05012823          	sw	a6,80(sp)
   1702c:	05012e23          	sw	a6,92(sp)
   17030:	06012023          	sw	zero,96(sp)
   17034:	fbcff0ef          	jal	167f0 <_vfiprintf_r>
   17038:	00050a93          	mv	s5,a0
   1703c:	00054a63          	bltz	a0,17050 <_vfiprintf_r+0x860>
   17040:	000a0513          	mv	a0,s4
   17044:	04810593          	addi	a1,sp,72
   17048:	bd5fc0ef          	jal	13c1c <_fflush_r>
   1704c:	72051c63          	bnez	a0,17784 <_vfiprintf_r+0xf94>
   17050:	05415783          	lhu	a5,84(sp)
   17054:	0407f793          	andi	a5,a5,64
   17058:	00078863          	beqz	a5,17068 <_vfiprintf_r+0x878>
   1705c:	00ccd783          	lhu	a5,12(s9)
   17060:	0407e793          	ori	a5,a5,64
   17064:	00fc9623          	sh	a5,12(s9)
   17068:	000a8513          	mv	a0,s5
   1706c:	d1dff06f          	j	16d88 <_vfiprintf_r+0x598>
   17070:	4e079663          	bnez	a5,1755c <_vfiprintf_r+0xd6c>
   17074:	3e038663          	beqz	t2,17460 <_vfiprintf_r+0xc70>
   17078:	03810693          	addi	a3,sp,56
   1707c:	00200793          	li	a5,2
   17080:	0ad12823          	sw	a3,176(sp)
   17084:	0af12a23          	sw	a5,180(sp)
   17088:	00070593          	mv	a1,a4
   1708c:	000c0693          	mv	a3,s8
   17090:	ab1ff06f          	j	16b40 <_vfiprintf_r+0x350>
   17094:	4e079c63          	bnez	a5,1758c <_vfiprintf_r+0xd9c>
   17098:	00000613          	li	a2,0
   1709c:	00100593          	li	a1,1
   170a0:	000c0693          	mv	a3,s8
   170a4:	aa9ff06f          	j	16b4c <_vfiprintf_r+0x35c>
   170a8:	07010813          	addi	a6,sp,112
   170ac:	01012e23          	sw	a6,28(sp)
   170b0:	980612e3          	bnez	a2,16a34 <_vfiprintf_r+0x244>
   170b4:	01f99793          	slli	a5,s3,0x1f
   170b8:	9607dee3          	bgez	a5,16a34 <_vfiprintf_r+0x244>
   170bc:	03000793          	li	a5,48
   170c0:	06f10813          	addi	a6,sp,111
   170c4:	06f107a3          	sb	a5,111(sp)
   170c8:	02c12483          	lw	s1,44(sp)
   170cc:	01012e23          	sw	a6,28(sp)
   170d0:	965ff06f          	j	16a34 <_vfiprintf_r+0x244>
   170d4:	07010613          	addi	a2,sp,112
   170d8:	0077f713          	andi	a4,a5,7
   170dc:	fff60613          	addi	a2,a2,-1
   170e0:	03070713          	addi	a4,a4,48
   170e4:	0037d793          	srli	a5,a5,0x3
   170e8:	00e60023          	sb	a4,0(a2)
   170ec:	fe0796e3          	bnez	a5,170d8 <_vfiprintf_r+0x8e8>
   170f0:	01f99793          	slli	a5,s3,0x1f
   170f4:	00c12e23          	sw	a2,28(sp)
   170f8:	3807d863          	bgez	a5,17488 <_vfiprintf_r+0xc98>
   170fc:	03000793          	li	a5,48
   17100:	58f70c63          	beq	a4,a5,17698 <_vfiprintf_r+0xea8>
   17104:	01c12803          	lw	a6,28(sp)
   17108:	fff80813          	addi	a6,a6,-1
   1710c:	01012e23          	sw	a6,28(sp)
   17110:	fef60fa3          	sb	a5,-1(a2)
   17114:	01012703          	lw	a4,16(sp)
   17118:	410704b3          	sub	s1,a4,a6
   1711c:	919ff06f          	j	16a34 <_vfiprintf_r+0x244>
   17120:	8f0fd0ef          	jal	14210 <__sinit>
   17124:	f20ff06f          	j	16844 <_vfiprintf_r+0x54>
   17128:	3a079263          	bnez	a5,174cc <_vfiprintf_r+0xcdc>
   1712c:	03714703          	lbu	a4,55(sp)
   17130:	4c070863          	beqz	a4,17600 <_vfiprintf_r+0xe10>
   17134:	00100793          	li	a5,1
   17138:	03710713          	addi	a4,sp,55
   1713c:	00078593          	mv	a1,a5
   17140:	0ae12823          	sw	a4,176(sp)
   17144:	0af12a23          	sw	a5,180(sp)
   17148:	000c0693          	mv	a3,s8
   1714c:	b89ff06f          	j	16cd4 <_vfiprintf_r+0x4e4>
   17150:	41ab0433          	sub	s0,s6,s10
   17154:	000c0693          	mv	a3,s8
   17158:	ca8042e3          	bgtz	s0,16dfc <_vfiprintf_r+0x60c>
   1715c:	016d5463          	ble	s6,s10,17164 <_vfiprintf_r+0x974>
   17160:	000b0d13          	mv	s10,s6
   17164:	01812703          	lw	a4,24(sp)
   17168:	01a70733          	add	a4,a4,s10
   1716c:	00e12c23          	sw	a4,24(sp)
   17170:	ab9ff06f          	j	16c28 <_vfiprintf_r+0x438>
   17174:	01412703          	lw	a4,20(sp)
   17178:	00090793          	mv	a5,s2
   1717c:	00072b03          	lw	s6,0(a4)
   17180:	00470713          	addi	a4,a4,4
   17184:	00e12a23          	sw	a4,20(sp)
   17188:	fe0b5663          	bgez	s6,16974 <_vfiprintf_r+0x184>
   1718c:	41600b33          	neg	s6,s6
   17190:	0049e993          	ori	s3,s3,4
   17194:	00090793          	mv	a5,s2
   17198:	fdcff06f          	j	16974 <_vfiprintf_r+0x184>
   1719c:	00090793          	mv	a5,s2
   171a0:	02b00513          	li	a0,43
   171a4:	fd0ff06f          	j	16974 <_vfiprintf_r+0x184>
   171a8:	0001b7b7          	lui	a5,0x1b
   171ac:	27878793          	addi	a5,a5,632 # 1b278 <__clz_tab+0x138>
   171b0:	02f12223          	sw	a5,36(sp)
   171b4:	01b99793          	slli	a5,s3,0x1b
   171b8:	02a10ba3          	sb	a0,55(sp)
   171bc:	1407d463          	bgez	a5,17304 <_vfiprintf_r+0xb14>
   171c0:	01412803          	lw	a6,20(sp)
   171c4:	00082783          	lw	a5,0(a6)
   171c8:	00480813          	addi	a6,a6,4
   171cc:	01012a23          	sw	a6,20(sp)
   171d0:	01f99593          	slli	a1,s3,0x1f
   171d4:	00200613          	li	a2,2
   171d8:	8005d0e3          	bgez	a1,169d8 <_vfiprintf_r+0x1e8>
   171dc:	fe078e63          	beqz	a5,169d8 <_vfiprintf_r+0x1e8>
   171e0:	03000593          	li	a1,48
   171e4:	02b10c23          	sb	a1,56(sp)
   171e8:	02e10ca3          	sb	a4,57(sp)
   171ec:	00c9e9b3          	or	s3,s3,a2
   171f0:	fe8ff06f          	j	169d8 <_vfiprintf_r+0x1e8>
   171f4:	01412703          	lw	a4,20(sp)
   171f8:	00100d13          	li	s10,1
   171fc:	02010ba3          	sb	zero,55(sp)
   17200:	00072783          	lw	a5,0(a4)
   17204:	00470713          	addi	a4,a4,4
   17208:	00e12a23          	sw	a4,20(sp)
   1720c:	04f10423          	sb	a5,72(sp)
   17210:	04810793          	addi	a5,sp,72
   17214:	000d0493          	mv	s1,s10
   17218:	00f12e23          	sw	a5,28(sp)
   1721c:	00000413          	li	s0,0
   17220:	829ff06f          	j	16a48 <_vfiprintf_r+0x258>
   17224:	00090793          	mv	a5,s2
   17228:	f4051663          	bnez	a0,16974 <_vfiprintf_r+0x184>
   1722c:	02000513          	li	a0,32
   17230:	f44ff06f          	j	16974 <_vfiprintf_r+0x184>
   17234:	0019e993          	ori	s3,s3,1
   17238:	00090793          	mv	a5,s2
   1723c:	f38ff06f          	j	16974 <_vfiprintf_r+0x184>
   17240:	00094703          	lbu	a4,0(s2)
   17244:	00190793          	addi	a5,s2,1
   17248:	52570063          	beq	a4,t0,17768 <_vfiprintf_r+0xf78>
   1724c:	fd070813          	addi	a6,a4,-48
   17250:	00078913          	mv	s2,a5
   17254:	00000413          	li	s0,0
   17258:	f305e263          	bltu	a1,a6,1697c <_vfiprintf_r+0x18c>
   1725c:	00190913          	addi	s2,s2,1
   17260:	fff94703          	lbu	a4,-1(s2)
   17264:	00141793          	slli	a5,s0,0x1
   17268:	00341413          	slli	s0,s0,0x3
   1726c:	00878433          	add	s0,a5,s0
   17270:	00880433          	add	s0,a6,s0
   17274:	fd070813          	addi	a6,a4,-48
   17278:	ff05f2e3          	bleu	a6,a1,1725c <_vfiprintf_r+0xa6c>
   1727c:	f0045063          	bgez	s0,1697c <_vfiprintf_r+0x18c>
   17280:	fff00413          	li	s0,-1
   17284:	ef8ff06f          	j	1697c <_vfiprintf_r+0x18c>
   17288:	0409e993          	ori	s3,s3,64
   1728c:	00090793          	mv	a5,s2
   17290:	ee4ff06f          	j	16974 <_vfiprintf_r+0x184>
   17294:	01b99813          	slli	a6,s3,0x1b
   17298:	02a10ba3          	sb	a0,55(sp)
   1729c:	01412783          	lw	a5,20(sp)
   172a0:	14085c63          	bgez	a6,173f8 <_vfiprintf_r+0xc08>
   172a4:	01412703          	lw	a4,20(sp)
   172a8:	0007a783          	lw	a5,0(a5)
   172ac:	00470713          	addi	a4,a4,4
   172b0:	00e12a23          	sw	a4,20(sp)
   172b4:	3207c863          	bltz	a5,175e4 <_vfiprintf_r+0xdf4>
   172b8:	03714583          	lbu	a1,55(sp)
   172bc:	00040493          	mv	s1,s0
   172c0:	00100613          	li	a2,1
   172c4:	f20ff06f          	j	169e4 <_vfiprintf_r+0x1f4>
   172c8:	0809e993          	ori	s3,s3,128
   172cc:	00090793          	mv	a5,s2
   172d0:	ea4ff06f          	j	16974 <_vfiprintf_r+0x184>
   172d4:	01412703          	lw	a4,20(sp)
   172d8:	00000613          	li	a2,0
   172dc:	00470713          	addi	a4,a4,4
   172e0:	00e12a23          	sw	a4,20(sp)
   172e4:	0007a783          	lw	a5,0(a5)
   172e8:	ef0ff06f          	j	169d8 <_vfiprintf_r+0x1e8>
   172ec:	0001b7b7          	lui	a5,0x1b
   172f0:	28c78793          	addi	a5,a5,652 # 1b28c <__clz_tab+0x14c>
   172f4:	02f12223          	sw	a5,36(sp)
   172f8:	01b99793          	slli	a5,s3,0x1b
   172fc:	02a10ba3          	sb	a0,55(sp)
   17300:	ec07c0e3          	bltz	a5,171c0 <_vfiprintf_r+0x9d0>
   17304:	01999593          	slli	a1,s3,0x19
   17308:	01412803          	lw	a6,20(sp)
   1730c:	3205d663          	bgez	a1,17638 <_vfiprintf_r+0xe48>
   17310:	00085783          	lhu	a5,0(a6)
   17314:	00480813          	addi	a6,a6,4
   17318:	01012a23          	sw	a6,20(sp)
   1731c:	eb5ff06f          	j	171d0 <_vfiprintf_r+0x9e0>
   17320:	01412703          	lw	a4,20(sp)
   17324:	01412783          	lw	a5,20(sp)
   17328:	02010ba3          	sb	zero,55(sp)
   1732c:	00072703          	lw	a4,0(a4)
   17330:	00478a93          	addi	s5,a5,4
   17334:	00e12e23          	sw	a4,28(sp)
   17338:	3c070463          	beqz	a4,17700 <_vfiprintf_r+0xf10>
   1733c:	01c12503          	lw	a0,28(sp)
   17340:	36044463          	bltz	s0,176a8 <_vfiprintf_r+0xeb8>
   17344:	00000593          	li	a1,0
   17348:	00040613          	mv	a2,s0
   1734c:	00d12423          	sw	a3,8(sp)
   17350:	da1fd0ef          	jal	150f0 <memchr>
   17354:	00812683          	lw	a3,8(sp)
   17358:	3e050663          	beqz	a0,17744 <_vfiprintf_r+0xf54>
   1735c:	01c12803          	lw	a6,28(sp)
   17360:	410504b3          	sub	s1,a0,a6
   17364:	30944263          	blt	s0,s1,17668 <_vfiprintf_r+0xe78>
   17368:	03714583          	lbu	a1,55(sp)
   1736c:	01512a23          	sw	s5,20(sp)
   17370:	00000413          	li	s0,0
   17374:	ec0ff06f          	j	16a34 <_vfiprintf_r+0x244>
   17378:	01412703          	lw	a4,20(sp)
   1737c:	01412803          	lw	a6,20(sp)
   17380:	0029e993          	ori	s3,s3,2
   17384:	00072783          	lw	a5,0(a4)
   17388:	03000713          	li	a4,48
   1738c:	02e10c23          	sb	a4,56(sp)
   17390:	07800713          	li	a4,120
   17394:	02e10ca3          	sb	a4,57(sp)
   17398:	0001b737          	lui	a4,0x1b
   1739c:	00480813          	addi	a6,a6,4
   173a0:	28c70713          	addi	a4,a4,652 # 1b28c <__clz_tab+0x14c>
   173a4:	01012a23          	sw	a6,20(sp)
   173a8:	02e12223          	sw	a4,36(sp)
   173ac:	00200613          	li	a2,2
   173b0:	e28ff06f          	j	169d8 <_vfiprintf_r+0x1e8>
   173b4:	01b99593          	slli	a1,s3,0x1b
   173b8:	02a10ba3          	sb	a0,55(sp)
   173bc:	1405c063          	bltz	a1,174fc <_vfiprintf_r+0xd0c>
   173c0:	01999593          	slli	a1,s3,0x19
   173c4:	1205dc63          	bgez	a1,174fc <_vfiprintf_r+0xd0c>
   173c8:	01412703          	lw	a4,20(sp)
   173cc:	01812803          	lw	a6,24(sp)
   173d0:	00072783          	lw	a5,0(a4)
   173d4:	00470713          	addi	a4,a4,4
   173d8:	00e12a23          	sw	a4,20(sp)
   173dc:	01079023          	sh	a6,0(a5)
   173e0:	cfcff06f          	j	168dc <_vfiprintf_r+0xec>
   173e4:	0109e993          	ori	s3,s3,16
   173e8:	01b99813          	slli	a6,s3,0x1b
   173ec:	02a10ba3          	sb	a0,55(sp)
   173f0:	01412783          	lw	a5,20(sp)
   173f4:	ea0848e3          	bltz	a6,172a4 <_vfiprintf_r+0xab4>
   173f8:	01999813          	slli	a6,s3,0x19
   173fc:	22085463          	bgez	a6,17624 <_vfiprintf_r+0xe34>
   17400:	01412703          	lw	a4,20(sp)
   17404:	00079783          	lh	a5,0(a5)
   17408:	00470713          	addi	a4,a4,4
   1740c:	00e12a23          	sw	a4,20(sp)
   17410:	ea5ff06f          	j	172b4 <_vfiprintf_r+0xac4>
   17414:	01999793          	slli	a5,s3,0x19
   17418:	da07d663          	bgez	a5,169c4 <_vfiprintf_r+0x1d4>
   1741c:	01412803          	lw	a6,20(sp)
   17420:	00100613          	li	a2,1
   17424:	00085783          	lhu	a5,0(a6)
   17428:	00480813          	addi	a6,a6,4
   1742c:	01012a23          	sw	a6,20(sp)
   17430:	da8ff06f          	j	169d8 <_vfiprintf_r+0x1e8>
   17434:	00000b13          	li	s6,0
   17438:	fd070813          	addi	a6,a4,-48
   1743c:	00190913          	addi	s2,s2,1
   17440:	fff94703          	lbu	a4,-1(s2)
   17444:	001b1793          	slli	a5,s6,0x1
   17448:	003b1b13          	slli	s6,s6,0x3
   1744c:	01678b33          	add	s6,a5,s6
   17450:	010b0b33          	add	s6,s6,a6
   17454:	fd070813          	addi	a6,a4,-48
   17458:	ff05f2e3          	bleu	a6,a1,1743c <_vfiprintf_r+0xc4c>
   1745c:	d20ff06f          	j	1697c <_vfiprintf_r+0x18c>
   17460:	00000613          	li	a2,0
   17464:	00070593          	mv	a1,a4
   17468:	000c0693          	mv	a3,s8
   1746c:	ee0ff06f          	j	16b4c <_vfiprintf_r+0x35c>
   17470:	20079663          	bnez	a5,1767c <_vfiprintf_r+0xe8c>
   17474:	1f6d4663          	blt	s10,s6,17660 <_vfiprintf_r+0xe70>
   17478:	01812783          	lw	a5,24(sp)
   1747c:	01a787b3          	add	a5,a5,s10
   17480:	00f12c23          	sw	a5,24(sp)
   17484:	fa4ff06f          	j	16c28 <_vfiprintf_r+0x438>
   17488:	01012803          	lw	a6,16(sp)
   1748c:	40c804b3          	sub	s1,a6,a2
   17490:	da4ff06f          	j	16a34 <_vfiprintf_r+0x244>
   17494:	00868693          	addi	a3,a3,8
   17498:	00150593          	addi	a1,a0,1
   1749c:	00050613          	mv	a2,a0
   174a0:	eb4ff06f          	j	16b54 <_vfiprintf_r+0x364>
   174a4:	02a10ba3          	sb	a0,55(sp)
   174a8:	8a070ce3          	beqz	a4,16d60 <_vfiprintf_r+0x570>
   174ac:	00100d13          	li	s10,1
   174b0:	04e10423          	sb	a4,72(sp)
   174b4:	04810713          	addi	a4,sp,72
   174b8:	02010ba3          	sb	zero,55(sp)
   174bc:	000d0493          	mv	s1,s10
   174c0:	00e12e23          	sw	a4,28(sp)
   174c4:	00000413          	li	s0,0
   174c8:	d80ff06f          	j	16a48 <_vfiprintf_r+0x258>
   174cc:	000a0513          	mv	a0,s4
   174d0:	000c8593          	mv	a1,s9
   174d4:	03c10613          	addi	a2,sp,60
   174d8:	00712223          	sw	t2,4(sp)
   174dc:	a14ff0ef          	jal	166f0 <__sprint_r.part.0>
   174e0:	00412383          	lw	t2,4(sp)
   174e4:	88051ae3          	bnez	a0,16d78 <_vfiprintf_r+0x588>
   174e8:	04012603          	lw	a2,64(sp)
   174ec:	04412783          	lw	a5,68(sp)
   174f0:	000c0693          	mv	a3,s8
   174f4:	00160593          	addi	a1,a2,1
   174f8:	fb0ff06f          	j	16ca8 <_vfiprintf_r+0x4b8>
   174fc:	01412703          	lw	a4,20(sp)
   17500:	01812803          	lw	a6,24(sp)
   17504:	00072783          	lw	a5,0(a4)
   17508:	00470713          	addi	a4,a4,4
   1750c:	00e12a23          	sw	a4,20(sp)
   17510:	0107a023          	sw	a6,0(a5)
   17514:	bc8ff06f          	j	168dc <_vfiprintf_r+0xec>
   17518:	00090493          	mv	s1,s2
   1751c:	c2cff06f          	j	16948 <_vfiprintf_r+0x158>
   17520:	000a0513          	mv	a0,s4
   17524:	000c8593          	mv	a1,s9
   17528:	03c10613          	addi	a2,sp,60
   1752c:	9c4ff0ef          	jal	166f0 <__sprint_r.part.0>
   17530:	840514e3          	bnez	a0,16d78 <_vfiprintf_r+0x588>
   17534:	04412783          	lw	a5,68(sp)
   17538:	000c0693          	mv	a3,s8
   1753c:	8b1ff06f          	j	16dec <_vfiprintf_r+0x5fc>
   17540:	000a0513          	mv	a0,s4
   17544:	000c8593          	mv	a1,s9
   17548:	03c10613          	addi	a2,sp,60
   1754c:	9a4ff0ef          	jal	166f0 <__sprint_r.part.0>
   17550:	820514e3          	bnez	a0,16d78 <_vfiprintf_r+0x588>
   17554:	000c0693          	mv	a3,s8
   17558:	be4ff06f          	j	1693c <_vfiprintf_r+0x14c>
   1755c:	000a0513          	mv	a0,s4
   17560:	000c8593          	mv	a1,s9
   17564:	03c10613          	addi	a2,sp,60
   17568:	00712223          	sw	t2,4(sp)
   1756c:	984ff0ef          	jal	166f0 <__sprint_r.part.0>
   17570:	00412383          	lw	t2,4(sp)
   17574:	800512e3          	bnez	a0,16d78 <_vfiprintf_r+0x588>
   17578:	04012603          	lw	a2,64(sp)
   1757c:	04412783          	lw	a5,68(sp)
   17580:	000c0693          	mv	a3,s8
   17584:	00160593          	addi	a1,a2,1
   17588:	d90ff06f          	j	16b18 <_vfiprintf_r+0x328>
   1758c:	000a0513          	mv	a0,s4
   17590:	000c8593          	mv	a1,s9
   17594:	03c10613          	addi	a2,sp,60
   17598:	958ff0ef          	jal	166f0 <__sprint_r.part.0>
   1759c:	fc051e63          	bnez	a0,16d78 <_vfiprintf_r+0x588>
   175a0:	04012603          	lw	a2,64(sp)
   175a4:	04412783          	lw	a5,68(sp)
   175a8:	000c0693          	mv	a3,s8
   175ac:	00160593          	addi	a1,a2,1
   175b0:	d9cff06f          	j	16b4c <_vfiprintf_r+0x35c>
   175b4:	000a0513          	mv	a0,s4
   175b8:	000c8593          	mv	a1,s9
   175bc:	03c10613          	addi	a2,sp,60
   175c0:	930ff0ef          	jal	166f0 <__sprint_r.part.0>
   175c4:	fa051a63          	bnez	a0,16d78 <_vfiprintf_r+0x588>
   175c8:	04012583          	lw	a1,64(sp)
   175cc:	04412783          	lw	a5,68(sp)
   175d0:	000c0693          	mv	a3,s8
   175d4:	00158593          	addi	a1,a1,1
   175d8:	e0cff06f          	j	16be4 <_vfiprintf_r+0x3f4>
   175dc:	07010613          	addi	a2,sp,112
   175e0:	f64ff06f          	j	16d44 <_vfiprintf_r+0x554>
   175e4:	02d00713          	li	a4,45
   175e8:	40f007b3          	neg	a5,a5
   175ec:	02e10ba3          	sb	a4,55(sp)
   175f0:	00040493          	mv	s1,s0
   175f4:	02d00593          	li	a1,45
   175f8:	00100613          	li	a2,1
   175fc:	be8ff06f          	j	169e4 <_vfiprintf_r+0x1f4>
   17600:	00000613          	li	a2,0
   17604:	00100593          	li	a1,1
   17608:	000c0693          	mv	a3,s8
   1760c:	d4038063          	beqz	t2,16b4c <_vfiprintf_r+0x35c>
   17610:	00200793          	li	a5,2
   17614:	03810713          	addi	a4,sp,56
   17618:	00ec2023          	sw	a4,0(s8)
   1761c:	00fc2223          	sw	a5,4(s8)
   17620:	d20ff06f          	j	16b40 <_vfiprintf_r+0x350>
   17624:	01412803          	lw	a6,20(sp)
   17628:	0007a783          	lw	a5,0(a5)
   1762c:	00480813          	addi	a6,a6,4
   17630:	01012a23          	sw	a6,20(sp)
   17634:	c81ff06f          	j	172b4 <_vfiprintf_r+0xac4>
   17638:	00082783          	lw	a5,0(a6)
   1763c:	00480813          	addi	a6,a6,4
   17640:	01012a23          	sw	a6,20(sp)
   17644:	b8dff06f          	j	171d0 <_vfiprintf_r+0x9e0>
   17648:	01412803          	lw	a6,20(sp)
   1764c:	00000613          	li	a2,0
   17650:	00480813          	addi	a6,a6,4
   17654:	01012a23          	sw	a6,20(sp)
   17658:	0007a783          	lw	a5,0(a5)
   1765c:	b7cff06f          	j	169d8 <_vfiprintf_r+0x1e8>
   17660:	000b0d13          	mv	s10,s6
   17664:	e15ff06f          	j	17478 <_vfiprintf_r+0xc88>
   17668:	00040493          	mv	s1,s0
   1766c:	cfdff06f          	j	17368 <_vfiprintf_r+0xb78>
   17670:	0001b737          	lui	a4,0x1b
   17674:	10470d93          	addi	s11,a4,260 # 1b104 <zeroes.3889>
   17678:	d48ff06f          	j	16bc0 <_vfiprintf_r+0x3d0>
   1767c:	000a0513          	mv	a0,s4
   17680:	000c8593          	mv	a1,s9
   17684:	03c10613          	addi	a2,sp,60
   17688:	868ff0ef          	jal	166f0 <__sprint_r.part.0>
   1768c:	ee051663          	bnez	a0,16d78 <_vfiprintf_r+0x588>
   17690:	04412783          	lw	a5,68(sp)
   17694:	fe8ff06f          	j	16e7c <_vfiprintf_r+0x68c>
   17698:	01012703          	lw	a4,16(sp)
   1769c:	01c12783          	lw	a5,28(sp)
   176a0:	40f704b3          	sub	s1,a4,a5
   176a4:	b90ff06f          	j	16a34 <_vfiprintf_r+0x244>
   176a8:	00d12423          	sw	a3,8(sp)
   176ac:	fb5fe0ef          	jal	16660 <strlen>
   176b0:	00050493          	mv	s1,a0
   176b4:	03714583          	lbu	a1,55(sp)
   176b8:	01512a23          	sw	s5,20(sp)
   176bc:	00000413          	li	s0,0
   176c0:	00812683          	lw	a3,8(sp)
   176c4:	b70ff06f          	j	16a34 <_vfiprintf_r+0x244>
   176c8:	000a0513          	mv	a0,s4
   176cc:	000c8593          	mv	a1,s9
   176d0:	03c10613          	addi	a2,sp,60
   176d4:	81cff0ef          	jal	166f0 <__sprint_r.part.0>
   176d8:	ea051063          	bnez	a0,16d78 <_vfiprintf_r+0x588>
   176dc:	04012603          	lw	a2,64(sp)
   176e0:	04412783          	lw	a5,68(sp)
   176e4:	000c0693          	mv	a3,s8
   176e8:	00160593          	addi	a1,a2,1
   176ec:	c68ff06f          	j	16b54 <_vfiprintf_r+0x364>
   176f0:	04012603          	lw	a2,64(sp)
   176f4:	03712023          	sw	s7,32(sp)
   176f8:	00160613          	addi	a2,a2,1
   176fc:	becff06f          	j	16ae8 <_vfiprintf_r+0x2f8>
   17700:	00600793          	li	a5,6
   17704:	0087f463          	bleu	s0,a5,1770c <_vfiprintf_r+0xf1c>
   17708:	00078413          	mv	s0,a5
   1770c:	fff44d13          	not	s10,s0
   17710:	0001bdb7          	lui	s11,0x1b
   17714:	41fd5d13          	srai	s10,s10,0x1f
   17718:	2a0d8d93          	addi	s11,s11,672 # 1b2a0 <__clz_tab+0x160>
   1771c:	00040493          	mv	s1,s0
   17720:	01a47d33          	and	s10,s0,s10
   17724:	01512a23          	sw	s5,20(sp)
   17728:	01b12e23          	sw	s11,28(sp)
   1772c:	00000413          	li	s0,0
   17730:	b18ff06f          	j	16a48 <_vfiprintf_r+0x258>
   17734:	04012583          	lw	a1,64(sp)
   17738:	03712023          	sw	s7,32(sp)
   1773c:	00158593          	addi	a1,a1,1
   17740:	f1cff06f          	j	16e5c <_vfiprintf_r+0x66c>
   17744:	00040493          	mv	s1,s0
   17748:	03714583          	lbu	a1,55(sp)
   1774c:	01512a23          	sw	s5,20(sp)
   17750:	00000413          	li	s0,0
   17754:	ae0ff06f          	j	16a34 <_vfiprintf_r+0x244>
   17758:	0001b637          	lui	a2,0x1b
   1775c:	00058513          	mv	a0,a1
   17760:	10460d93          	addi	s11,a2,260 # 1b104 <zeroes.3889>
   17764:	fe8ff06f          	j	16f4c <_vfiprintf_r+0x75c>
   17768:	01412803          	lw	a6,20(sp)
   1776c:	00082403          	lw	s0,0(a6)
   17770:	00480813          	addi	a6,a6,4
   17774:	01012a23          	sw	a6,20(sp)
   17778:	9e045e63          	bgez	s0,16974 <_vfiprintf_r+0x184>
   1777c:	fff00413          	li	s0,-1
   17780:	9f4ff06f          	j	16974 <_vfiprintf_r+0x184>
   17784:	fff00a93          	li	s5,-1
   17788:	8c9ff06f          	j	17050 <_vfiprintf_r+0x860>

0001778c <vfiprintf>:
   1778c:	00050713          	mv	a4,a0
   17790:	8081a503          	lw	a0,-2040(gp) # 1cd88 <_impure_ptr>
   17794:	00058793          	mv	a5,a1
   17798:	00060693          	mv	a3,a2
   1779c:	00070593          	mv	a1,a4
   177a0:	00078613          	mv	a2,a5
   177a4:	84cff06f          	j	167f0 <_vfiprintf_r>

000177a8 <_calloc_r>:
   177a8:	02c585b3          	mul	a1,a1,a2
   177ac:	ff010113          	addi	sp,sp,-16
   177b0:	00812423          	sw	s0,8(sp)
   177b4:	00112623          	sw	ra,12(sp)
   177b8:	a08fd0ef          	jal	149c0 <_malloc_r>
   177bc:	00050413          	mv	s0,a0
   177c0:	08050c63          	beqz	a0,17858 <_calloc_r+0xb0>
   177c4:	ffc52603          	lw	a2,-4(a0)
   177c8:	02400713          	li	a4,36
   177cc:	ffc67613          	andi	a2,a2,-4
   177d0:	ffc60613          	addi	a2,a2,-4
   177d4:	06c76063          	bltu	a4,a2,17834 <_calloc_r+0x8c>
   177d8:	01300693          	li	a3,19
   177dc:	00050793          	mv	a5,a0
   177e0:	02c6e263          	bltu	a3,a2,17804 <_calloc_r+0x5c>
   177e4:	0007a023          	sw	zero,0(a5)
   177e8:	0007a223          	sw	zero,4(a5)
   177ec:	0007a423          	sw	zero,8(a5)
   177f0:	00040513          	mv	a0,s0
   177f4:	00c12083          	lw	ra,12(sp)
   177f8:	00812403          	lw	s0,8(sp)
   177fc:	01010113          	addi	sp,sp,16
   17800:	00008067          	ret
   17804:	01b00793          	li	a5,27
   17808:	00052023          	sw	zero,0(a0)
   1780c:	00052223          	sw	zero,4(a0)
   17810:	04c7f063          	bleu	a2,a5,17850 <_calloc_r+0xa8>
   17814:	00052423          	sw	zero,8(a0)
   17818:	00052623          	sw	zero,12(a0)
   1781c:	01050793          	addi	a5,a0,16
   17820:	fce612e3          	bne	a2,a4,177e4 <_calloc_r+0x3c>
   17824:	00052823          	sw	zero,16(a0)
   17828:	01850793          	addi	a5,a0,24
   1782c:	00052a23          	sw	zero,20(a0)
   17830:	fb5ff06f          	j	177e4 <_calloc_r+0x3c>
   17834:	00000593          	li	a1,0
   17838:	ac9fd0ef          	jal	15300 <memset>
   1783c:	00c12083          	lw	ra,12(sp)
   17840:	00040513          	mv	a0,s0
   17844:	00812403          	lw	s0,8(sp)
   17848:	01010113          	addi	sp,sp,16
   1784c:	00008067          	ret
   17850:	00850793          	addi	a5,a0,8
   17854:	f91ff06f          	j	177e4 <_calloc_r+0x3c>
   17858:	00000513          	li	a0,0
   1785c:	f99ff06f          	j	177f4 <_calloc_r+0x4c>

00017860 <_fclose_r>:
   17860:	0c058663          	beqz	a1,1792c <_fclose_r+0xcc>
   17864:	ff010113          	addi	sp,sp,-16
   17868:	00912223          	sw	s1,4(sp)
   1786c:	00050493          	mv	s1,a0
   17870:	00812423          	sw	s0,8(sp)
   17874:	00112623          	sw	ra,12(sp)
   17878:	01212023          	sw	s2,0(sp)
   1787c:	00058413          	mv	s0,a1
   17880:	9a1fc0ef          	jal	14220 <__sfp_lock_acquire>
   17884:	00048663          	beqz	s1,17890 <_fclose_r+0x30>
   17888:	0384a783          	lw	a5,56(s1)
   1788c:	0a078463          	beqz	a5,17934 <_fclose_r+0xd4>
   17890:	00c41783          	lh	a5,12(s0)
   17894:	08078663          	beqz	a5,17920 <_fclose_r+0xc0>
   17898:	00048513          	mv	a0,s1
   1789c:	00040593          	mv	a1,s0
   178a0:	b7cfc0ef          	jal	13c1c <_fflush_r>
   178a4:	02c42783          	lw	a5,44(s0)
   178a8:	00050913          	mv	s2,a0
   178ac:	00078a63          	beqz	a5,178c0 <_fclose_r+0x60>
   178b0:	01c42583          	lw	a1,28(s0)
   178b4:	00048513          	mv	a0,s1
   178b8:	000780e7          	jalr	a5
   178bc:	08054e63          	bltz	a0,17958 <_fclose_r+0xf8>
   178c0:	00c45783          	lhu	a5,12(s0)
   178c4:	0807f793          	andi	a5,a5,128
   178c8:	08079063          	bnez	a5,17948 <_fclose_r+0xe8>
   178cc:	03042583          	lw	a1,48(s0)
   178d0:	00058c63          	beqz	a1,178e8 <_fclose_r+0x88>
   178d4:	04040793          	addi	a5,s0,64
   178d8:	00f58663          	beq	a1,a5,178e4 <_fclose_r+0x84>
   178dc:	00048513          	mv	a0,s1
   178e0:	a71fc0ef          	jal	14350 <_free_r>
   178e4:	02042823          	sw	zero,48(s0)
   178e8:	04442583          	lw	a1,68(s0)
   178ec:	00058863          	beqz	a1,178fc <_fclose_r+0x9c>
   178f0:	00048513          	mv	a0,s1
   178f4:	a5dfc0ef          	jal	14350 <_free_r>
   178f8:	04042223          	sw	zero,68(s0)
   178fc:	00041623          	sh	zero,12(s0)
   17900:	925fc0ef          	jal	14224 <__sfp_lock_release>
   17904:	00090513          	mv	a0,s2
   17908:	00c12083          	lw	ra,12(sp)
   1790c:	00812403          	lw	s0,8(sp)
   17910:	00412483          	lw	s1,4(sp)
   17914:	00012903          	lw	s2,0(sp)
   17918:	01010113          	addi	sp,sp,16
   1791c:	00008067          	ret
   17920:	905fc0ef          	jal	14224 <__sfp_lock_release>
   17924:	00000513          	li	a0,0
   17928:	fe1ff06f          	j	17908 <_fclose_r+0xa8>
   1792c:	00000513          	li	a0,0
   17930:	00008067          	ret
   17934:	00048513          	mv	a0,s1
   17938:	8d9fc0ef          	jal	14210 <__sinit>
   1793c:	00c41783          	lh	a5,12(s0)
   17940:	f4079ce3          	bnez	a5,17898 <_fclose_r+0x38>
   17944:	fddff06f          	j	17920 <_fclose_r+0xc0>
   17948:	01042583          	lw	a1,16(s0)
   1794c:	00048513          	mv	a0,s1
   17950:	a01fc0ef          	jal	14350 <_free_r>
   17954:	f79ff06f          	j	178cc <_fclose_r+0x6c>
   17958:	fff00913          	li	s2,-1
   1795c:	f65ff06f          	j	178c0 <_fclose_r+0x60>

00017960 <fclose>:
   17960:	00050593          	mv	a1,a0
   17964:	8081a503          	lw	a0,-2040(gp) # 1cd88 <_impure_ptr>
   17968:	ef9ff06f          	j	17860 <_fclose_r>

0001796c <_fputwc_r>:
   1796c:	00c61783          	lh	a5,12(a2)
   17970:	fd010113          	addi	sp,sp,-48
   17974:	02812423          	sw	s0,40(sp)
   17978:	01279693          	slli	a3,a5,0x12
   1797c:	01312e23          	sw	s3,28(sp)
   17980:	01412c23          	sw	s4,24(sp)
   17984:	02112623          	sw	ra,44(sp)
   17988:	02912223          	sw	s1,36(sp)
   1798c:	03212023          	sw	s2,32(sp)
   17990:	01512a23          	sw	s5,20(sp)
   17994:	00060413          	mv	s0,a2
   17998:	00050a13          	mv	s4,a0
   1799c:	00058993          	mv	s3,a1
   179a0:	00002737          	lui	a4,0x2
   179a4:	0006cc63          	bltz	a3,179bc <_fputwc_r+0x50>
   179a8:	06462683          	lw	a3,100(a2)
   179ac:	00e7e7b3          	or	a5,a5,a4
   179b0:	00f61623          	sh	a5,12(a2)
   179b4:	00e6e733          	or	a4,a3,a4
   179b8:	06e62223          	sw	a4,100(a2)
   179bc:	80c1a903          	lw	s2,-2036(gp) # 1cd8c <__mb_cur_max>
   179c0:	00100793          	li	a5,1
   179c4:	0ef90e63          	beq	s2,a5,17ac0 <_fputwc_r+0x154>
   179c8:	000a0513          	mv	a0,s4
   179cc:	00c10593          	addi	a1,sp,12
   179d0:	00098613          	mv	a2,s3
   179d4:	05c40693          	addi	a3,s0,92
   179d8:	639000ef          	jal	18810 <_wcrtomb_r>
   179dc:	fff00793          	li	a5,-1
   179e0:	00050913          	mv	s2,a0
   179e4:	08f50a63          	beq	a0,a5,17a78 <_fputwc_r+0x10c>
   179e8:	0e050863          	beqz	a0,17ad8 <_fputwc_r+0x16c>
   179ec:	00c14583          	lbu	a1,12(sp)
   179f0:	00000493          	li	s1,0
   179f4:	00a00a93          	li	s5,10
   179f8:	02c0006f          	j	17a24 <_fputwc_r+0xb8>
   179fc:	00042783          	lw	a5,0(s0)
   17a00:	00b78023          	sb	a1,0(a5)
   17a04:	00042783          	lw	a5,0(s0)
   17a08:	00178793          	addi	a5,a5,1
   17a0c:	00f42023          	sw	a5,0(s0)
   17a10:	00148493          	addi	s1,s1,1
   17a14:	00c10713          	addi	a4,sp,12
   17a18:	009707b3          	add	a5,a4,s1
   17a1c:	0b24fe63          	bleu	s2,s1,17ad8 <_fputwc_r+0x16c>
   17a20:	0007c583          	lbu	a1,0(a5)
   17a24:	00842783          	lw	a5,8(s0)
   17a28:	fff78793          	addi	a5,a5,-1
   17a2c:	00f42423          	sw	a5,8(s0)
   17a30:	fc07d6e3          	bgez	a5,179fc <_fputwc_r+0x90>
   17a34:	01842683          	lw	a3,24(s0)
   17a38:	06d7c863          	blt	a5,a3,17aa8 <_fputwc_r+0x13c>
   17a3c:	00042783          	lw	a5,0(s0)
   17a40:	00b78023          	sb	a1,0(a5)
   17a44:	00042783          	lw	a5,0(s0)
   17a48:	0007c703          	lbu	a4,0(a5)
   17a4c:	00178793          	addi	a5,a5,1
   17a50:	fb571ee3          	bne	a4,s5,17a0c <_fputwc_r+0xa0>
   17a54:	000a0513          	mv	a0,s4
   17a58:	000a8593          	mv	a1,s5
   17a5c:	00040613          	mv	a2,s0
   17a60:	429000ef          	jal	18688 <__swbuf_r>
   17a64:	00150513          	addi	a0,a0,1
   17a68:	00153513          	seqz	a0,a0
   17a6c:	fa0502e3          	beqz	a0,17a10 <_fputwc_r+0xa4>
   17a70:	fff00513          	li	a0,-1
   17a74:	0100006f          	j	17a84 <_fputwc_r+0x118>
   17a78:	00c45783          	lhu	a5,12(s0)
   17a7c:	0407e793          	ori	a5,a5,64
   17a80:	00f41623          	sh	a5,12(s0)
   17a84:	02c12083          	lw	ra,44(sp)
   17a88:	02812403          	lw	s0,40(sp)
   17a8c:	02412483          	lw	s1,36(sp)
   17a90:	02012903          	lw	s2,32(sp)
   17a94:	01c12983          	lw	s3,28(sp)
   17a98:	01812a03          	lw	s4,24(sp)
   17a9c:	01412a83          	lw	s5,20(sp)
   17aa0:	03010113          	addi	sp,sp,48
   17aa4:	00008067          	ret
   17aa8:	000a0513          	mv	a0,s4
   17aac:	00040613          	mv	a2,s0
   17ab0:	3d9000ef          	jal	18688 <__swbuf_r>
   17ab4:	00150513          	addi	a0,a0,1
   17ab8:	00153513          	seqz	a0,a0
   17abc:	fb1ff06f          	j	17a6c <_fputwc_r+0x100>
   17ac0:	fff98713          	addi	a4,s3,-1
   17ac4:	0fe00793          	li	a5,254
   17ac8:	f0e7e0e3          	bltu	a5,a4,179c8 <_fputwc_r+0x5c>
   17acc:	0ff9f593          	andi	a1,s3,255
   17ad0:	00b10623          	sb	a1,12(sp)
   17ad4:	f1dff06f          	j	179f0 <_fputwc_r+0x84>
   17ad8:	00098513          	mv	a0,s3
   17adc:	fa9ff06f          	j	17a84 <_fputwc_r+0x118>

00017ae0 <fputwc>:
   17ae0:	fe010113          	addi	sp,sp,-32
   17ae4:	00812c23          	sw	s0,24(sp)
   17ae8:	8081a783          	lw	a5,-2040(gp) # 1cd88 <_impure_ptr>
   17aec:	00912a23          	sw	s1,20(sp)
   17af0:	00112e23          	sw	ra,28(sp)
   17af4:	00050493          	mv	s1,a0
   17af8:	00058613          	mv	a2,a1
   17afc:	02078063          	beqz	a5,17b1c <fputwc+0x3c>
   17b00:	0387a703          	lw	a4,56(a5)
   17b04:	00071c63          	bnez	a4,17b1c <fputwc+0x3c>
   17b08:	00078513          	mv	a0,a5
   17b0c:	00b12623          	sw	a1,12(sp)
   17b10:	f00fc0ef          	jal	14210 <__sinit>
   17b14:	8081a783          	lw	a5,-2040(gp) # 1cd88 <_impure_ptr>
   17b18:	00c12603          	lw	a2,12(sp)
   17b1c:	00048593          	mv	a1,s1
   17b20:	01c12083          	lw	ra,28(sp)
   17b24:	01812403          	lw	s0,24(sp)
   17b28:	01412483          	lw	s1,20(sp)
   17b2c:	00078513          	mv	a0,a5
   17b30:	02010113          	addi	sp,sp,32
   17b34:	e39ff06f          	j	1796c <_fputwc_r>

00017b38 <__sfvwrite_r>:
   17b38:	00862783          	lw	a5,8(a2)
   17b3c:	1a078863          	beqz	a5,17cec <__sfvwrite_r+0x1b4>
   17b40:	00c5d703          	lhu	a4,12(a1)
   17b44:	fd010113          	addi	sp,sp,-48
   17b48:	02812423          	sw	s0,40(sp)
   17b4c:	00877793          	andi	a5,a4,8
   17b50:	01312e23          	sw	s3,28(sp)
   17b54:	01612823          	sw	s6,16(sp)
   17b58:	02112623          	sw	ra,44(sp)
   17b5c:	02912223          	sw	s1,36(sp)
   17b60:	03212023          	sw	s2,32(sp)
   17b64:	01412c23          	sw	s4,24(sp)
   17b68:	01512a23          	sw	s5,20(sp)
   17b6c:	01712623          	sw	s7,12(sp)
   17b70:	01812423          	sw	s8,8(sp)
   17b74:	01912223          	sw	s9,4(sp)
   17b78:	01a12023          	sw	s10,0(sp)
   17b7c:	00058413          	mv	s0,a1
   17b80:	00050b13          	mv	s6,a0
   17b84:	00060993          	mv	s3,a2
   17b88:	0a078063          	beqz	a5,17c28 <__sfvwrite_r+0xf0>
   17b8c:	0105a783          	lw	a5,16(a1)
   17b90:	08078c63          	beqz	a5,17c28 <__sfvwrite_r+0xf0>
   17b94:	00277793          	andi	a5,a4,2
   17b98:	0009a483          	lw	s1,0(s3)
   17b9c:	0a078663          	beqz	a5,17c48 <__sfvwrite_r+0x110>
   17ba0:	00000a13          	li	s4,0
   17ba4:	00000913          	li	s2,0
   17ba8:	40000a93          	li	s5,1024
   17bac:	000a0613          	mv	a2,s4
   17bb0:	000b0513          	mv	a0,s6
   17bb4:	12090463          	beqz	s2,17cdc <__sfvwrite_r+0x1a4>
   17bb8:	00090693          	mv	a3,s2
   17bbc:	01c42583          	lw	a1,28(s0)
   17bc0:	012af463          	bleu	s2,s5,17bc8 <__sfvwrite_r+0x90>
   17bc4:	40000693          	li	a3,1024
   17bc8:	02442783          	lw	a5,36(s0)
   17bcc:	000780e7          	jalr	a5
   17bd0:	14a05263          	blez	a0,17d14 <__sfvwrite_r+0x1dc>
   17bd4:	0089a783          	lw	a5,8(s3)
   17bd8:	00aa0a33          	add	s4,s4,a0
   17bdc:	40a90933          	sub	s2,s2,a0
   17be0:	40a78533          	sub	a0,a5,a0
   17be4:	00a9a423          	sw	a0,8(s3)
   17be8:	fc0512e3          	bnez	a0,17bac <__sfvwrite_r+0x74>
   17bec:	00000513          	li	a0,0
   17bf0:	02c12083          	lw	ra,44(sp)
   17bf4:	02812403          	lw	s0,40(sp)
   17bf8:	02412483          	lw	s1,36(sp)
   17bfc:	02012903          	lw	s2,32(sp)
   17c00:	01c12983          	lw	s3,28(sp)
   17c04:	01812a03          	lw	s4,24(sp)
   17c08:	01412a83          	lw	s5,20(sp)
   17c0c:	01012b03          	lw	s6,16(sp)
   17c10:	00c12b83          	lw	s7,12(sp)
   17c14:	00812c03          	lw	s8,8(sp)
   17c18:	00412c83          	lw	s9,4(sp)
   17c1c:	00012d03          	lw	s10,0(sp)
   17c20:	03010113          	addi	sp,sp,48
   17c24:	00008067          	ret
   17c28:	000b0513          	mv	a0,s6
   17c2c:	00040593          	mv	a1,s0
   17c30:	925fa0ef          	jal	12554 <__swsetup_r>
   17c34:	38051063          	bnez	a0,17fb4 <__sfvwrite_r+0x47c>
   17c38:	00c45703          	lhu	a4,12(s0)
   17c3c:	0009a483          	lw	s1,0(s3)
   17c40:	00277793          	andi	a5,a4,2
   17c44:	f4079ee3          	bnez	a5,17ba0 <__sfvwrite_r+0x68>
   17c48:	01f71793          	slli	a5,a4,0x1f
   17c4c:	0c07ce63          	bltz	a5,17d28 <__sfvwrite_r+0x1f0>
   17c50:	00000a93          	li	s5,0
   17c54:	00000913          	li	s2,0
   17c58:	06090a63          	beqz	s2,17ccc <__sfvwrite_r+0x194>
   17c5c:	20077793          	andi	a5,a4,512
   17c60:	00842a03          	lw	s4,8(s0)
   17c64:	1a078663          	beqz	a5,17e10 <__sfvwrite_r+0x2d8>
   17c68:	000a0b93          	mv	s7,s4
   17c6c:	21496463          	bltu	s2,s4,17e74 <__sfvwrite_r+0x33c>
   17c70:	48077793          	andi	a5,a4,1152
   17c74:	26079463          	bnez	a5,17edc <__sfvwrite_r+0x3a4>
   17c78:	00042503          	lw	a0,0(s0)
   17c7c:	000a0c13          	mv	s8,s4
   17c80:	00090a13          	mv	s4,s2
   17c84:	000b8613          	mv	a2,s7
   17c88:	000a8593          	mv	a1,s5
   17c8c:	344000ef          	jal	17fd0 <memmove>
   17c90:	00842683          	lw	a3,8(s0)
   17c94:	00042783          	lw	a5,0(s0)
   17c98:	00090713          	mv	a4,s2
   17c9c:	418686b3          	sub	a3,a3,s8
   17ca0:	01778633          	add	a2,a5,s7
   17ca4:	00d42423          	sw	a3,8(s0)
   17ca8:	00c42023          	sw	a2,0(s0)
   17cac:	0089a783          	lw	a5,8(s3)
   17cb0:	00ea8ab3          	add	s5,s5,a4
   17cb4:	40e90933          	sub	s2,s2,a4
   17cb8:	414787b3          	sub	a5,a5,s4
   17cbc:	00f9a423          	sw	a5,8(s3)
   17cc0:	f20786e3          	beqz	a5,17bec <__sfvwrite_r+0xb4>
   17cc4:	00c45703          	lhu	a4,12(s0)
   17cc8:	f8091ae3          	bnez	s2,17c5c <__sfvwrite_r+0x124>
   17ccc:	0004aa83          	lw	s5,0(s1)
   17cd0:	0044a903          	lw	s2,4(s1)
   17cd4:	00848493          	addi	s1,s1,8
   17cd8:	f81ff06f          	j	17c58 <__sfvwrite_r+0x120>
   17cdc:	0004aa03          	lw	s4,0(s1)
   17ce0:	0044a903          	lw	s2,4(s1)
   17ce4:	00848493          	addi	s1,s1,8
   17ce8:	ec5ff06f          	j	17bac <__sfvwrite_r+0x74>
   17cec:	00000513          	li	a0,0
   17cf0:	00008067          	ret
   17cf4:	3c4000ef          	jal	180b8 <_realloc_r>
   17cf8:	00050c13          	mv	s8,a0
   17cfc:	24051a63          	bnez	a0,17f50 <__sfvwrite_r+0x418>
   17d00:	01042583          	lw	a1,16(s0)
   17d04:	000b0513          	mv	a0,s6
   17d08:	e48fc0ef          	jal	14350 <_free_r>
   17d0c:	00c00793          	li	a5,12
   17d10:	00fb2023          	sw	a5,0(s6)
   17d14:	00c45783          	lhu	a5,12(s0)
   17d18:	fff00513          	li	a0,-1
   17d1c:	0407e793          	ori	a5,a5,64
   17d20:	00f41623          	sh	a5,12(s0)
   17d24:	ecdff06f          	j	17bf0 <__sfvwrite_r+0xb8>
   17d28:	00000a13          	li	s4,0
   17d2c:	00000c93          	li	s9,0
   17d30:	00000d13          	li	s10,0
   17d34:	00000913          	li	s2,0
   17d38:	06090c63          	beqz	s2,17db0 <__sfvwrite_r+0x278>
   17d3c:	160c8e63          	beqz	s9,17eb8 <__sfvwrite_r+0x380>
   17d40:	000a0b93          	mv	s7,s4
   17d44:	01497463          	bleu	s4,s2,17d4c <__sfvwrite_r+0x214>
   17d48:	00090b93          	mv	s7,s2
   17d4c:	00042503          	lw	a0,0(s0)
   17d50:	01042703          	lw	a4,16(s0)
   17d54:	000b8a93          	mv	s5,s7
   17d58:	00842783          	lw	a5,8(s0)
   17d5c:	01442683          	lw	a3,20(s0)
   17d60:	00a77663          	bleu	a0,a4,17d6c <__sfvwrite_r+0x234>
   17d64:	00d78c33          	add	s8,a5,a3
   17d68:	057c4e63          	blt	s8,s7,17dc4 <__sfvwrite_r+0x28c>
   17d6c:	0edbc063          	blt	s7,a3,17e4c <__sfvwrite_r+0x314>
   17d70:	02442783          	lw	a5,36(s0)
   17d74:	01c42583          	lw	a1,28(s0)
   17d78:	000b0513          	mv	a0,s6
   17d7c:	000d0613          	mv	a2,s10
   17d80:	000780e7          	jalr	a5
   17d84:	00050a93          	mv	s5,a0
   17d88:	f8a056e3          	blez	a0,17d14 <__sfvwrite_r+0x1dc>
   17d8c:	415a0a33          	sub	s4,s4,s5
   17d90:	060a0463          	beqz	s4,17df8 <__sfvwrite_r+0x2c0>
   17d94:	0089a783          	lw	a5,8(s3)
   17d98:	015d0d33          	add	s10,s10,s5
   17d9c:	41590933          	sub	s2,s2,s5
   17da0:	41578ab3          	sub	s5,a5,s5
   17da4:	0159a423          	sw	s5,8(s3)
   17da8:	e40a82e3          	beqz	s5,17bec <__sfvwrite_r+0xb4>
   17dac:	f80918e3          	bnez	s2,17d3c <__sfvwrite_r+0x204>
   17db0:	0004ad03          	lw	s10,0(s1)
   17db4:	0044a903          	lw	s2,4(s1)
   17db8:	00000c93          	li	s9,0
   17dbc:	00848493          	addi	s1,s1,8
   17dc0:	f79ff06f          	j	17d38 <__sfvwrite_r+0x200>
   17dc4:	000d0593          	mv	a1,s10
   17dc8:	000c0613          	mv	a2,s8
   17dcc:	204000ef          	jal	17fd0 <memmove>
   17dd0:	00042783          	lw	a5,0(s0)
   17dd4:	000b0513          	mv	a0,s6
   17dd8:	00040593          	mv	a1,s0
   17ddc:	018787b3          	add	a5,a5,s8
   17de0:	00f42023          	sw	a5,0(s0)
   17de4:	e39fb0ef          	jal	13c1c <_fflush_r>
   17de8:	f20516e3          	bnez	a0,17d14 <__sfvwrite_r+0x1dc>
   17dec:	000c0a93          	mv	s5,s8
   17df0:	415a0a33          	sub	s4,s4,s5
   17df4:	fa0a10e3          	bnez	s4,17d94 <__sfvwrite_r+0x25c>
   17df8:	000b0513          	mv	a0,s6
   17dfc:	00040593          	mv	a1,s0
   17e00:	e1dfb0ef          	jal	13c1c <_fflush_r>
   17e04:	f00518e3          	bnez	a0,17d14 <__sfvwrite_r+0x1dc>
   17e08:	00000c93          	li	s9,0
   17e0c:	f89ff06f          	j	17d94 <__sfvwrite_r+0x25c>
   17e10:	00042503          	lw	a0,0(s0)
   17e14:	01042783          	lw	a5,16(s0)
   17e18:	00a7f463          	bleu	a0,a5,17e20 <__sfvwrite_r+0x2e8>
   17e1c:	152a6e63          	bltu	s4,s2,17f78 <__sfvwrite_r+0x440>
   17e20:	01442683          	lw	a3,20(s0)
   17e24:	06d96263          	bltu	s2,a3,17e88 <__sfvwrite_r+0x350>
   17e28:	02442783          	lw	a5,36(s0)
   17e2c:	01c42583          	lw	a1,28(s0)
   17e30:	000b0513          	mv	a0,s6
   17e34:	000a8613          	mv	a2,s5
   17e38:	000780e7          	jalr	a5
   17e3c:	00050a13          	mv	s4,a0
   17e40:	eca05ae3          	blez	a0,17d14 <__sfvwrite_r+0x1dc>
   17e44:	000a0713          	mv	a4,s4
   17e48:	e65ff06f          	j	17cac <__sfvwrite_r+0x174>
   17e4c:	000b8613          	mv	a2,s7
   17e50:	000d0593          	mv	a1,s10
   17e54:	17c000ef          	jal	17fd0 <memmove>
   17e58:	00842703          	lw	a4,8(s0)
   17e5c:	00042783          	lw	a5,0(s0)
   17e60:	41770733          	sub	a4,a4,s7
   17e64:	01778bb3          	add	s7,a5,s7
   17e68:	00e42423          	sw	a4,8(s0)
   17e6c:	01742023          	sw	s7,0(s0)
   17e70:	f1dff06f          	j	17d8c <__sfvwrite_r+0x254>
   17e74:	00042503          	lw	a0,0(s0)
   17e78:	00090c13          	mv	s8,s2
   17e7c:	00090a13          	mv	s4,s2
   17e80:	00090b93          	mv	s7,s2
   17e84:	e01ff06f          	j	17c84 <__sfvwrite_r+0x14c>
   17e88:	000a8593          	mv	a1,s5
   17e8c:	00090613          	mv	a2,s2
   17e90:	140000ef          	jal	17fd0 <memmove>
   17e94:	00842703          	lw	a4,8(s0)
   17e98:	00042783          	lw	a5,0(s0)
   17e9c:	00090a13          	mv	s4,s2
   17ea0:	41270733          	sub	a4,a4,s2
   17ea4:	012787b3          	add	a5,a5,s2
   17ea8:	00e42423          	sw	a4,8(s0)
   17eac:	00f42023          	sw	a5,0(s0)
   17eb0:	00090713          	mv	a4,s2
   17eb4:	df9ff06f          	j	17cac <__sfvwrite_r+0x174>
   17eb8:	000d0513          	mv	a0,s10
   17ebc:	00a00593          	li	a1,10
   17ec0:	00090613          	mv	a2,s2
   17ec4:	a2cfd0ef          	jal	150f0 <memchr>
   17ec8:	0e050063          	beqz	a0,17fa8 <__sfvwrite_r+0x470>
   17ecc:	00150a13          	addi	s4,a0,1
   17ed0:	41aa0a33          	sub	s4,s4,s10
   17ed4:	00100c93          	li	s9,1
   17ed8:	e69ff06f          	j	17d40 <__sfvwrite_r+0x208>
   17edc:	01442a03          	lw	s4,20(s0)
   17ee0:	01042583          	lw	a1,16(s0)
   17ee4:	00042b83          	lw	s7,0(s0)
   17ee8:	001a1793          	slli	a5,s4,0x1
   17eec:	01478a33          	add	s4,a5,s4
   17ef0:	01fa5793          	srli	a5,s4,0x1f
   17ef4:	40bb8bb3          	sub	s7,s7,a1
   17ef8:	01478a33          	add	s4,a5,s4
   17efc:	001b8793          	addi	a5,s7,1
   17f00:	401a5a13          	srai	s4,s4,0x1
   17f04:	012787b3          	add	a5,a5,s2
   17f08:	000a0613          	mv	a2,s4
   17f0c:	00fa7663          	bleu	a5,s4,17f18 <__sfvwrite_r+0x3e0>
   17f10:	00078a13          	mv	s4,a5
   17f14:	00078613          	mv	a2,a5
   17f18:	40077713          	andi	a4,a4,1024
   17f1c:	000b0513          	mv	a0,s6
   17f20:	dc070ae3          	beqz	a4,17cf4 <__sfvwrite_r+0x1bc>
   17f24:	00060593          	mv	a1,a2
   17f28:	a99fc0ef          	jal	149c0 <_malloc_r>
   17f2c:	00050c13          	mv	s8,a0
   17f30:	dc050ee3          	beqz	a0,17d0c <__sfvwrite_r+0x1d4>
   17f34:	01042583          	lw	a1,16(s0)
   17f38:	000b8613          	mv	a2,s7
   17f3c:	a90fd0ef          	jal	151cc <memcpy>
   17f40:	00c45783          	lhu	a5,12(s0)
   17f44:	b7f7f793          	andi	a5,a5,-1153
   17f48:	0807e793          	ori	a5,a5,128
   17f4c:	00f41623          	sh	a5,12(s0)
   17f50:	017c0533          	add	a0,s8,s7
   17f54:	417a0bb3          	sub	s7,s4,s7
   17f58:	01842823          	sw	s8,16(s0)
   17f5c:	01442a23          	sw	s4,20(s0)
   17f60:	01742423          	sw	s7,8(s0)
   17f64:	00a42023          	sw	a0,0(s0)
   17f68:	00090c13          	mv	s8,s2
   17f6c:	00090a13          	mv	s4,s2
   17f70:	00090b93          	mv	s7,s2
   17f74:	d11ff06f          	j	17c84 <__sfvwrite_r+0x14c>
   17f78:	000a8593          	mv	a1,s5
   17f7c:	000a0613          	mv	a2,s4
   17f80:	050000ef          	jal	17fd0 <memmove>
   17f84:	00042783          	lw	a5,0(s0)
   17f88:	000b0513          	mv	a0,s6
   17f8c:	00040593          	mv	a1,s0
   17f90:	014787b3          	add	a5,a5,s4
   17f94:	00f42023          	sw	a5,0(s0)
   17f98:	c85fb0ef          	jal	13c1c <_fflush_r>
   17f9c:	d6051ce3          	bnez	a0,17d14 <__sfvwrite_r+0x1dc>
   17fa0:	000a0713          	mv	a4,s4
   17fa4:	d09ff06f          	j	17cac <__sfvwrite_r+0x174>
   17fa8:	00190a13          	addi	s4,s2,1
   17fac:	00100c93          	li	s9,1
   17fb0:	d91ff06f          	j	17d40 <__sfvwrite_r+0x208>
   17fb4:	00c45783          	lhu	a5,12(s0)
   17fb8:	fff00513          	li	a0,-1
   17fbc:	0407e793          	ori	a5,a5,64
   17fc0:	00f41623          	sh	a5,12(s0)
   17fc4:	00900793          	li	a5,9
   17fc8:	00fb2023          	sw	a5,0(s6)
   17fcc:	c25ff06f          	j	17bf0 <__sfvwrite_r+0xb8>

00017fd0 <memmove>:
   17fd0:	00060693          	mv	a3,a2
   17fd4:	02a5f863          	bleu	a0,a1,18004 <memmove+0x34>
   17fd8:	00c58733          	add	a4,a1,a2
   17fdc:	02e57463          	bleu	a4,a0,18004 <memmove+0x34>
   17fe0:	00c507b3          	add	a5,a0,a2
   17fe4:	40c785b3          	sub	a1,a5,a2
   17fe8:	04060263          	beqz	a2,1802c <memmove+0x5c>
   17fec:	fff70713          	addi	a4,a4,-1 # 1fff <_ftext-0xe001>
   17ff0:	00074683          	lbu	a3,0(a4)
   17ff4:	fff78793          	addi	a5,a5,-1
   17ff8:	00d78023          	sb	a3,0(a5)
   17ffc:	feb798e3          	bne	a5,a1,17fec <memmove+0x1c>
   18000:	00008067          	ret
   18004:	00f00893          	li	a7,15
   18008:	00050793          	mv	a5,a0
   1800c:	02c8e263          	bltu	a7,a2,18030 <memmove+0x60>
   18010:	00068e63          	beqz	a3,1802c <memmove+0x5c>
   18014:	00d786b3          	add	a3,a5,a3
   18018:	00158593          	addi	a1,a1,1
   1801c:	fff5c703          	lbu	a4,-1(a1)
   18020:	00178793          	addi	a5,a5,1
   18024:	fee78fa3          	sb	a4,-1(a5)
   18028:	fed798e3          	bne	a5,a3,18018 <memmove+0x48>
   1802c:	00008067          	ret
   18030:	00b56733          	or	a4,a0,a1
   18034:	01e71813          	slli	a6,a4,0x1e
   18038:	fc081ce3          	bnez	a6,18010 <memmove+0x40>
   1803c:	00060693          	mv	a3,a2
   18040:	00058713          	mv	a4,a1
   18044:	00072803          	lw	a6,0(a4)
   18048:	01078793          	addi	a5,a5,16
   1804c:	01070713          	addi	a4,a4,16
   18050:	ff07a823          	sw	a6,-16(a5)
   18054:	ff472803          	lw	a6,-12(a4)
   18058:	ff068693          	addi	a3,a3,-16
   1805c:	ff07aa23          	sw	a6,-12(a5)
   18060:	ff872803          	lw	a6,-8(a4)
   18064:	ff07ac23          	sw	a6,-8(a5)
   18068:	ffc72803          	lw	a6,-4(a4)
   1806c:	ff07ae23          	sw	a6,-4(a5)
   18070:	fcd8eae3          	bltu	a7,a3,18044 <memmove+0x74>
   18074:	ff060713          	addi	a4,a2,-16
   18078:	ff077713          	andi	a4,a4,-16
   1807c:	01070713          	addi	a4,a4,16
   18080:	00f67613          	andi	a2,a2,15
   18084:	00300813          	li	a6,3
   18088:	00e507b3          	add	a5,a0,a4
   1808c:	00e585b3          	add	a1,a1,a4
   18090:	00060693          	mv	a3,a2
   18094:	f6c87ee3          	bleu	a2,a6,18010 <memmove+0x40>
   18098:	00458593          	addi	a1,a1,4
   1809c:	ffc5a703          	lw	a4,-4(a1)
   180a0:	00478793          	addi	a5,a5,4
   180a4:	ffc60613          	addi	a2,a2,-4
   180a8:	fee7ae23          	sw	a4,-4(a5)
   180ac:	00060693          	mv	a3,a2
   180b0:	fec844e3          	blt	a6,a2,18098 <memmove+0xc8>
   180b4:	f5dff06f          	j	18010 <memmove+0x40>

000180b8 <_realloc_r>:
   180b8:	fd010113          	addi	sp,sp,-48
   180bc:	02912223          	sw	s1,36(sp)
   180c0:	01712623          	sw	s7,12(sp)
   180c4:	02112623          	sw	ra,44(sp)
   180c8:	02812423          	sw	s0,40(sp)
   180cc:	03212023          	sw	s2,32(sp)
   180d0:	01312e23          	sw	s3,28(sp)
   180d4:	01412c23          	sw	s4,24(sp)
   180d8:	01512a23          	sw	s5,20(sp)
   180dc:	01612823          	sw	s6,16(sp)
   180e0:	01812423          	sw	s8,8(sp)
   180e4:	00058b93          	mv	s7,a1
   180e8:	00060493          	mv	s1,a2
   180ec:	2c058c63          	beqz	a1,183c4 <_realloc_r+0x30c>
   180f0:	00050913          	mv	s2,a0
   180f4:	ae8fd0ef          	jal	153dc <__malloc_lock>
   180f8:	ffcba783          	lw	a5,-4(s7)
   180fc:	00b48413          	addi	s0,s1,11
   18100:	01600713          	li	a4,22
   18104:	ff8b8a13          	addi	s4,s7,-8
   18108:	ffc7f993          	andi	s3,a5,-4
   1810c:	0e877a63          	bleu	s0,a4,18200 <_realloc_r+0x148>
   18110:	ff847413          	andi	s0,s0,-8
   18114:	00040713          	mv	a4,s0
   18118:	1e044863          	bltz	s0,18308 <_realloc_r+0x250>
   1811c:	1e946663          	bltu	s0,s1,18308 <_realloc_r+0x250>
   18120:	0ee9d663          	ble	a4,s3,1820c <_realloc_r+0x154>
   18124:	0001dab7          	lui	s5,0x1d
   18128:	978a8a93          	addi	s5,s5,-1672 # 1c978 <__malloc_av_>
   1812c:	008aa603          	lw	a2,8(s5)
   18130:	013a06b3          	add	a3,s4,s3
   18134:	2ed60063          	beq	a2,a3,18414 <_realloc_r+0x35c>
   18138:	0046a603          	lw	a2,4(a3)
   1813c:	ffe67813          	andi	a6,a2,-2
   18140:	01068833          	add	a6,a3,a6
   18144:	00482583          	lw	a1,4(a6)
   18148:	01f59513          	slli	a0,a1,0x1f
   1814c:	12054463          	bltz	a0,18274 <_realloc_r+0x1bc>
   18150:	ffc67613          	andi	a2,a2,-4
   18154:	01360633          	add	a2,a2,s3
   18158:	2ae65063          	ble	a4,a2,183f8 <_realloc_r+0x340>
   1815c:	01f79513          	slli	a0,a5,0x1f
   18160:	1e054663          	bltz	a0,1834c <_realloc_r+0x294>
   18164:	ff8bab03          	lw	s6,-8(s7)
   18168:	416a0b33          	sub	s6,s4,s6
   1816c:	004b2783          	lw	a5,4(s6)
   18170:	ffc7f793          	andi	a5,a5,-4
   18174:	00f60ab3          	add	s5,a2,a5
   18178:	10eaca63          	blt	s5,a4,1828c <_realloc_r+0x1d4>
   1817c:	00c6a783          	lw	a5,12(a3)
   18180:	0086a703          	lw	a4,8(a3)
   18184:	ffc98613          	addi	a2,s3,-4
   18188:	008b0493          	addi	s1,s6,8
   1818c:	00f72623          	sw	a5,12(a4)
   18190:	00e7a423          	sw	a4,8(a5)
   18194:	008b2703          	lw	a4,8(s6)
   18198:	00cb2783          	lw	a5,12(s6)
   1819c:	00f72623          	sw	a5,12(a4)
   181a0:	00e7a423          	sw	a4,8(a5)
   181a4:	02400793          	li	a5,36
   181a8:	38c7ee63          	bltu	a5,a2,18544 <_realloc_r+0x48c>
   181ac:	01300713          	li	a4,19
   181b0:	00048793          	mv	a5,s1
   181b4:	02c77263          	bleu	a2,a4,181d8 <_realloc_r+0x120>
   181b8:	000ba783          	lw	a5,0(s7)
   181bc:	00fb2423          	sw	a5,8(s6)
   181c0:	004ba783          	lw	a5,4(s7)
   181c4:	00fb2623          	sw	a5,12(s6)
   181c8:	01b00793          	li	a5,27
   181cc:	3cc7e463          	bltu	a5,a2,18594 <_realloc_r+0x4dc>
   181d0:	010b0793          	addi	a5,s6,16
   181d4:	008b8b93          	addi	s7,s7,8
   181d8:	000ba703          	lw	a4,0(s7)
   181dc:	000a8993          	mv	s3,s5
   181e0:	000b0a13          	mv	s4,s6
   181e4:	00e7a023          	sw	a4,0(a5)
   181e8:	004ba703          	lw	a4,4(s7)
   181ec:	00e7a223          	sw	a4,4(a5)
   181f0:	008ba703          	lw	a4,8(s7)
   181f4:	00e7a423          	sw	a4,8(a5)
   181f8:	004b2783          	lw	a5,4(s6)
   181fc:	0140006f          	j	18210 <_realloc_r+0x158>
   18200:	01000713          	li	a4,16
   18204:	00070413          	mv	s0,a4
   18208:	f15ff06f          	j	1811c <_realloc_r+0x64>
   1820c:	000b8493          	mv	s1,s7
   18210:	40898733          	sub	a4,s3,s0
   18214:	00f00693          	li	a3,15
   18218:	0017f793          	andi	a5,a5,1
   1821c:	0ee6ee63          	bltu	a3,a4,18318 <_realloc_r+0x260>
   18220:	0137e7b3          	or	a5,a5,s3
   18224:	00fa2223          	sw	a5,4(s4)
   18228:	013a0633          	add	a2,s4,s3
   1822c:	00462783          	lw	a5,4(a2)
   18230:	0017e793          	ori	a5,a5,1
   18234:	00f62223          	sw	a5,4(a2)
   18238:	00090513          	mv	a0,s2
   1823c:	9a4fd0ef          	jal	153e0 <__malloc_unlock>
   18240:	00048513          	mv	a0,s1
   18244:	02c12083          	lw	ra,44(sp)
   18248:	02812403          	lw	s0,40(sp)
   1824c:	02412483          	lw	s1,36(sp)
   18250:	02012903          	lw	s2,32(sp)
   18254:	01c12983          	lw	s3,28(sp)
   18258:	01812a03          	lw	s4,24(sp)
   1825c:	01412a83          	lw	s5,20(sp)
   18260:	01012b03          	lw	s6,16(sp)
   18264:	00c12b83          	lw	s7,12(sp)
   18268:	00812c03          	lw	s8,8(sp)
   1826c:	03010113          	addi	sp,sp,48
   18270:	00008067          	ret
   18274:	01f79593          	slli	a1,a5,0x1f
   18278:	0c05ca63          	bltz	a1,1834c <_realloc_r+0x294>
   1827c:	ff8bab03          	lw	s6,-8(s7)
   18280:	416a0b33          	sub	s6,s4,s6
   18284:	004b2783          	lw	a5,4(s6)
   18288:	ffc7f793          	andi	a5,a5,-4
   1828c:	01378ab3          	add	s5,a5,s3
   18290:	0aeace63          	blt	s5,a4,1834c <_realloc_r+0x294>
   18294:	00cb2703          	lw	a4,12(s6)
   18298:	008b2683          	lw	a3,8(s6)
   1829c:	ffc98613          	addi	a2,s3,-4
   182a0:	02400593          	li	a1,36
   182a4:	00e6a623          	sw	a4,12(a3)
   182a8:	008b0493          	addi	s1,s6,8
   182ac:	00d72423          	sw	a3,8(a4)
   182b0:	28c5ea63          	bltu	a1,a2,18544 <_realloc_r+0x48c>
   182b4:	01300693          	li	a3,19
   182b8:	00048713          	mv	a4,s1
   182bc:	02c6f263          	bleu	a2,a3,182e0 <_realloc_r+0x228>
   182c0:	000ba783          	lw	a5,0(s7)
   182c4:	00fb2423          	sw	a5,8(s6)
   182c8:	004ba783          	lw	a5,4(s7)
   182cc:	00fb2623          	sw	a5,12(s6)
   182d0:	01b00793          	li	a5,27
   182d4:	30c7e063          	bltu	a5,a2,185d4 <_realloc_r+0x51c>
   182d8:	010b0713          	addi	a4,s6,16
   182dc:	008b8b93          	addi	s7,s7,8
   182e0:	000ba683          	lw	a3,0(s7)
   182e4:	000a8993          	mv	s3,s5
   182e8:	000b0a13          	mv	s4,s6
   182ec:	00d72023          	sw	a3,0(a4)
   182f0:	004ba783          	lw	a5,4(s7)
   182f4:	00f72223          	sw	a5,4(a4)
   182f8:	008ba783          	lw	a5,8(s7)
   182fc:	00f72423          	sw	a5,8(a4)
   18300:	004b2783          	lw	a5,4(s6)
   18304:	f0dff06f          	j	18210 <_realloc_r+0x158>
   18308:	00c00793          	li	a5,12
   1830c:	00f92023          	sw	a5,0(s2)
   18310:	00000513          	li	a0,0
   18314:	f31ff06f          	j	18244 <_realloc_r+0x18c>
   18318:	008a05b3          	add	a1,s4,s0
   1831c:	0087e433          	or	s0,a5,s0
   18320:	00176793          	ori	a5,a4,1
   18324:	008a2223          	sw	s0,4(s4)
   18328:	00e58733          	add	a4,a1,a4
   1832c:	00f5a223          	sw	a5,4(a1)
   18330:	00472783          	lw	a5,4(a4)
   18334:	00090513          	mv	a0,s2
   18338:	00858593          	addi	a1,a1,8
   1833c:	0017e793          	ori	a5,a5,1
   18340:	00f72223          	sw	a5,4(a4)
   18344:	80cfc0ef          	jal	14350 <_free_r>
   18348:	ef1ff06f          	j	18238 <_realloc_r+0x180>
   1834c:	00048593          	mv	a1,s1
   18350:	00090513          	mv	a0,s2
   18354:	e6cfc0ef          	jal	149c0 <_malloc_r>
   18358:	00050493          	mv	s1,a0
   1835c:	30050063          	beqz	a0,1865c <_realloc_r+0x5a4>
   18360:	ffcba783          	lw	a5,-4(s7)
   18364:	ff850693          	addi	a3,a0,-8
   18368:	ffe7f713          	andi	a4,a5,-2
   1836c:	00ea0733          	add	a4,s4,a4
   18370:	20e68863          	beq	a3,a4,18580 <_realloc_r+0x4c8>
   18374:	ffc98613          	addi	a2,s3,-4
   18378:	02400793          	li	a5,36
   1837c:	1ac7ee63          	bltu	a5,a2,18538 <_realloc_r+0x480>
   18380:	01300713          	li	a4,19
   18384:	14c76e63          	bltu	a4,a2,184e0 <_realloc_r+0x428>
   18388:	00050793          	mv	a5,a0
   1838c:	000b8713          	mv	a4,s7
   18390:	00072683          	lw	a3,0(a4)
   18394:	00d7a023          	sw	a3,0(a5)
   18398:	00472683          	lw	a3,4(a4)
   1839c:	00d7a223          	sw	a3,4(a5)
   183a0:	00872703          	lw	a4,8(a4)
   183a4:	00e7a423          	sw	a4,8(a5)
   183a8:	000b8593          	mv	a1,s7
   183ac:	00090513          	mv	a0,s2
   183b0:	fa1fb0ef          	jal	14350 <_free_r>
   183b4:	00090513          	mv	a0,s2
   183b8:	828fd0ef          	jal	153e0 <__malloc_unlock>
   183bc:	00048513          	mv	a0,s1
   183c0:	e85ff06f          	j	18244 <_realloc_r+0x18c>
   183c4:	02c12083          	lw	ra,44(sp)
   183c8:	02812403          	lw	s0,40(sp)
   183cc:	02412483          	lw	s1,36(sp)
   183d0:	02012903          	lw	s2,32(sp)
   183d4:	01c12983          	lw	s3,28(sp)
   183d8:	01812a03          	lw	s4,24(sp)
   183dc:	01412a83          	lw	s5,20(sp)
   183e0:	01012b03          	lw	s6,16(sp)
   183e4:	00c12b83          	lw	s7,12(sp)
   183e8:	00812c03          	lw	s8,8(sp)
   183ec:	00060593          	mv	a1,a2
   183f0:	03010113          	addi	sp,sp,48
   183f4:	dccfc06f          	j	149c0 <_malloc_r>
   183f8:	00c6a703          	lw	a4,12(a3)
   183fc:	0086a683          	lw	a3,8(a3)
   18400:	000b8493          	mv	s1,s7
   18404:	00060993          	mv	s3,a2
   18408:	00e6a623          	sw	a4,12(a3)
   1840c:	00d72423          	sw	a3,8(a4)
   18410:	e01ff06f          	j	18210 <_realloc_r+0x158>
   18414:	00462683          	lw	a3,4(a2)
   18418:	01040613          	addi	a2,s0,16
   1841c:	ffc6f693          	andi	a3,a3,-4
   18420:	013686b3          	add	a3,a3,s3
   18424:	0ec6d063          	ble	a2,a3,18504 <_realloc_r+0x44c>
   18428:	01f79593          	slli	a1,a5,0x1f
   1842c:	f205c0e3          	bltz	a1,1834c <_realloc_r+0x294>
   18430:	ff8bab03          	lw	s6,-8(s7)
   18434:	416a0b33          	sub	s6,s4,s6
   18438:	004b2783          	lw	a5,4(s6)
   1843c:	ffc7f793          	andi	a5,a5,-4
   18440:	00f68c33          	add	s8,a3,a5
   18444:	e4cc44e3          	blt	s8,a2,1828c <_realloc_r+0x1d4>
   18448:	00cb2783          	lw	a5,12(s6)
   1844c:	008b2703          	lw	a4,8(s6)
   18450:	ffc98613          	addi	a2,s3,-4
   18454:	02400693          	li	a3,36
   18458:	00f72623          	sw	a5,12(a4)
   1845c:	008b0493          	addi	s1,s6,8
   18460:	00e7a423          	sw	a4,8(a5)
   18464:	1cc6e463          	bltu	a3,a2,1862c <_realloc_r+0x574>
   18468:	01300713          	li	a4,19
   1846c:	00048793          	mv	a5,s1
   18470:	02c77263          	bleu	a2,a4,18494 <_realloc_r+0x3dc>
   18474:	000ba783          	lw	a5,0(s7)
   18478:	00fb2423          	sw	a5,8(s6)
   1847c:	004ba783          	lw	a5,4(s7)
   18480:	00fb2623          	sw	a5,12(s6)
   18484:	01b00793          	li	a5,27
   18488:	1ac7ea63          	bltu	a5,a2,1863c <_realloc_r+0x584>
   1848c:	010b0793          	addi	a5,s6,16
   18490:	008b8b93          	addi	s7,s7,8
   18494:	000ba703          	lw	a4,0(s7)
   18498:	00e7a023          	sw	a4,0(a5)
   1849c:	004ba703          	lw	a4,4(s7)
   184a0:	00e7a223          	sw	a4,4(a5)
   184a4:	008ba703          	lw	a4,8(s7)
   184a8:	00e7a423          	sw	a4,8(a5)
   184ac:	408c07b3          	sub	a5,s8,s0
   184b0:	008b0733          	add	a4,s6,s0
   184b4:	0017e793          	ori	a5,a5,1
   184b8:	00eaa423          	sw	a4,8(s5)
   184bc:	00f72223          	sw	a5,4(a4)
   184c0:	004b2783          	lw	a5,4(s6)
   184c4:	00090513          	mv	a0,s2
   184c8:	0017f793          	andi	a5,a5,1
   184cc:	00f46433          	or	s0,s0,a5
   184d0:	008b2223          	sw	s0,4(s6)
   184d4:	f0dfc0ef          	jal	153e0 <__malloc_unlock>
   184d8:	00048513          	mv	a0,s1
   184dc:	d69ff06f          	j	18244 <_realloc_r+0x18c>
   184e0:	000ba703          	lw	a4,0(s7)
   184e4:	00e52023          	sw	a4,0(a0)
   184e8:	004ba703          	lw	a4,4(s7)
   184ec:	00e52223          	sw	a4,4(a0)
   184f0:	01b00713          	li	a4,27
   184f4:	06c76663          	bltu	a4,a2,18560 <_realloc_r+0x4a8>
   184f8:	00850793          	addi	a5,a0,8
   184fc:	008b8713          	addi	a4,s7,8
   18500:	e91ff06f          	j	18390 <_realloc_r+0x2d8>
   18504:	408686b3          	sub	a3,a3,s0
   18508:	008a0a33          	add	s4,s4,s0
   1850c:	0016e693          	ori	a3,a3,1
   18510:	014aa423          	sw	s4,8(s5)
   18514:	00da2223          	sw	a3,4(s4)
   18518:	ffcba783          	lw	a5,-4(s7)
   1851c:	00090513          	mv	a0,s2
   18520:	0017f793          	andi	a5,a5,1
   18524:	00f46433          	or	s0,s0,a5
   18528:	fe8bae23          	sw	s0,-4(s7)
   1852c:	eb5fc0ef          	jal	153e0 <__malloc_unlock>
   18530:	000b8513          	mv	a0,s7
   18534:	d11ff06f          	j	18244 <_realloc_r+0x18c>
   18538:	000b8593          	mv	a1,s7
   1853c:	a95ff0ef          	jal	17fd0 <memmove>
   18540:	e69ff06f          	j	183a8 <_realloc_r+0x2f0>
   18544:	00048513          	mv	a0,s1
   18548:	000b8593          	mv	a1,s7
   1854c:	a85ff0ef          	jal	17fd0 <memmove>
   18550:	000a8993          	mv	s3,s5
   18554:	004b2783          	lw	a5,4(s6)
   18558:	000b0a13          	mv	s4,s6
   1855c:	cb5ff06f          	j	18210 <_realloc_r+0x158>
   18560:	008ba703          	lw	a4,8(s7)
   18564:	00e52423          	sw	a4,8(a0)
   18568:	00cba703          	lw	a4,12(s7)
   1856c:	00e52623          	sw	a4,12(a0)
   18570:	04f60463          	beq	a2,a5,185b8 <_realloc_r+0x500>
   18574:	01050793          	addi	a5,a0,16
   18578:	010b8713          	addi	a4,s7,16
   1857c:	e15ff06f          	j	18390 <_realloc_r+0x2d8>
   18580:	ffc52703          	lw	a4,-4(a0)
   18584:	000b8493          	mv	s1,s7
   18588:	ffc77713          	andi	a4,a4,-4
   1858c:	00e989b3          	add	s3,s3,a4
   18590:	c81ff06f          	j	18210 <_realloc_r+0x158>
   18594:	008ba783          	lw	a5,8(s7)
   18598:	00fb2823          	sw	a5,16(s6)
   1859c:	00cba783          	lw	a5,12(s7)
   185a0:	00fb2a23          	sw	a5,20(s6)
   185a4:	02400793          	li	a5,36
   185a8:	04f60663          	beq	a2,a5,185f4 <_realloc_r+0x53c>
   185ac:	018b0793          	addi	a5,s6,24
   185b0:	010b8b93          	addi	s7,s7,16
   185b4:	c25ff06f          	j	181d8 <_realloc_r+0x120>
   185b8:	010ba683          	lw	a3,16(s7)
   185bc:	01850793          	addi	a5,a0,24
   185c0:	018b8713          	addi	a4,s7,24
   185c4:	00d52823          	sw	a3,16(a0)
   185c8:	014ba683          	lw	a3,20(s7)
   185cc:	00d52a23          	sw	a3,20(a0)
   185d0:	dc1ff06f          	j	18390 <_realloc_r+0x2d8>
   185d4:	008ba783          	lw	a5,8(s7)
   185d8:	00fb2823          	sw	a5,16(s6)
   185dc:	00cba783          	lw	a5,12(s7)
   185e0:	00fb2a23          	sw	a5,20(s6)
   185e4:	02b60663          	beq	a2,a1,18610 <_realloc_r+0x558>
   185e8:	018b0713          	addi	a4,s6,24
   185ec:	010b8b93          	addi	s7,s7,16
   185f0:	cf1ff06f          	j	182e0 <_realloc_r+0x228>
   185f4:	010ba703          	lw	a4,16(s7)
   185f8:	020b0793          	addi	a5,s6,32
   185fc:	018b8b93          	addi	s7,s7,24
   18600:	00eb2c23          	sw	a4,24(s6)
   18604:	ffcba703          	lw	a4,-4(s7)
   18608:	00eb2e23          	sw	a4,28(s6)
   1860c:	bcdff06f          	j	181d8 <_realloc_r+0x120>
   18610:	010ba783          	lw	a5,16(s7)
   18614:	020b0713          	addi	a4,s6,32
   18618:	018b8b93          	addi	s7,s7,24
   1861c:	00fb2c23          	sw	a5,24(s6)
   18620:	ffcba783          	lw	a5,-4(s7)
   18624:	00fb2e23          	sw	a5,28(s6)
   18628:	cb9ff06f          	j	182e0 <_realloc_r+0x228>
   1862c:	00048513          	mv	a0,s1
   18630:	000b8593          	mv	a1,s7
   18634:	99dff0ef          	jal	17fd0 <memmove>
   18638:	e75ff06f          	j	184ac <_realloc_r+0x3f4>
   1863c:	008ba783          	lw	a5,8(s7)
   18640:	00fb2823          	sw	a5,16(s6)
   18644:	00cba783          	lw	a5,12(s7)
   18648:	00fb2a23          	sw	a5,20(s6)
   1864c:	02d60063          	beq	a2,a3,1866c <_realloc_r+0x5b4>
   18650:	018b0793          	addi	a5,s6,24
   18654:	010b8b93          	addi	s7,s7,16
   18658:	e3dff06f          	j	18494 <_realloc_r+0x3dc>
   1865c:	00090513          	mv	a0,s2
   18660:	d81fc0ef          	jal	153e0 <__malloc_unlock>
   18664:	00000513          	li	a0,0
   18668:	bddff06f          	j	18244 <_realloc_r+0x18c>
   1866c:	010ba703          	lw	a4,16(s7)
   18670:	020b0793          	addi	a5,s6,32
   18674:	018b8b93          	addi	s7,s7,24
   18678:	00eb2c23          	sw	a4,24(s6)
   1867c:	ffcba703          	lw	a4,-4(s7)
   18680:	00eb2e23          	sw	a4,28(s6)
   18684:	e11ff06f          	j	18494 <_realloc_r+0x3dc>

00018688 <__swbuf_r>:
   18688:	ff010113          	addi	sp,sp,-16
   1868c:	00812423          	sw	s0,8(sp)
   18690:	00912223          	sw	s1,4(sp)
   18694:	01212023          	sw	s2,0(sp)
   18698:	00112623          	sw	ra,12(sp)
   1869c:	00050913          	mv	s2,a0
   186a0:	00058493          	mv	s1,a1
   186a4:	00060413          	mv	s0,a2
   186a8:	00050663          	beqz	a0,186b4 <__swbuf_r+0x2c>
   186ac:	03852783          	lw	a5,56(a0)
   186b0:	12078063          	beqz	a5,187d0 <__swbuf_r+0x148>
   186b4:	00c41683          	lh	a3,12(s0)
   186b8:	01842603          	lw	a2,24(s0)
   186bc:	01069713          	slli	a4,a3,0x10
   186c0:	01075713          	srli	a4,a4,0x10
   186c4:	00877793          	andi	a5,a4,8
   186c8:	00c42423          	sw	a2,8(s0)
   186cc:	0e078063          	beqz	a5,187ac <__swbuf_r+0x124>
   186d0:	01042783          	lw	a5,16(s0)
   186d4:	0c078c63          	beqz	a5,187ac <__swbuf_r+0x124>
   186d8:	01271613          	slli	a2,a4,0x12
   186dc:	0ff4f493          	andi	s1,s1,255
   186e0:	06065463          	bgez	a2,18748 <__swbuf_r+0xc0>
   186e4:	00042703          	lw	a4,0(s0)
   186e8:	01442683          	lw	a3,20(s0)
   186ec:	40f707b3          	sub	a5,a4,a5
   186f0:	08d7d463          	ble	a3,a5,18778 <__swbuf_r+0xf0>
   186f4:	00178793          	addi	a5,a5,1
   186f8:	00842683          	lw	a3,8(s0)
   186fc:	00170613          	addi	a2,a4,1
   18700:	00c42023          	sw	a2,0(s0)
   18704:	fff68693          	addi	a3,a3,-1
   18708:	00d42423          	sw	a3,8(s0)
   1870c:	00970023          	sb	s1,0(a4)
   18710:	01442703          	lw	a4,20(s0)
   18714:	08f70063          	beq	a4,a5,18794 <__swbuf_r+0x10c>
   18718:	00c45783          	lhu	a5,12(s0)
   1871c:	00048513          	mv	a0,s1
   18720:	01f79713          	slli	a4,a5,0x1f
   18724:	00075663          	bgez	a4,18730 <__swbuf_r+0xa8>
   18728:	00a00793          	li	a5,10
   1872c:	06f48463          	beq	s1,a5,18794 <__swbuf_r+0x10c>
   18730:	00c12083          	lw	ra,12(sp)
   18734:	00812403          	lw	s0,8(sp)
   18738:	00412483          	lw	s1,4(sp)
   1873c:	00012903          	lw	s2,0(sp)
   18740:	01010113          	addi	sp,sp,16
   18744:	00008067          	ret
   18748:	06442583          	lw	a1,100(s0)
   1874c:	ffffe737          	lui	a4,0xffffe
   18750:	fff70713          	addi	a4,a4,-1 # ffffdfff <_gp+0xfffe0a7f>
   18754:	00e5f733          	and	a4,a1,a4
   18758:	00002637          	lui	a2,0x2
   1875c:	00c6e6b3          	or	a3,a3,a2
   18760:	06e42223          	sw	a4,100(s0)
   18764:	00042703          	lw	a4,0(s0)
   18768:	00d41623          	sh	a3,12(s0)
   1876c:	01442683          	lw	a3,20(s0)
   18770:	40f707b3          	sub	a5,a4,a5
   18774:	f8d7c0e3          	blt	a5,a3,186f4 <__swbuf_r+0x6c>
   18778:	00090513          	mv	a0,s2
   1877c:	00040593          	mv	a1,s0
   18780:	c9cfb0ef          	jal	13c1c <_fflush_r>
   18784:	04051a63          	bnez	a0,187d8 <__swbuf_r+0x150>
   18788:	00042703          	lw	a4,0(s0)
   1878c:	00100793          	li	a5,1
   18790:	f69ff06f          	j	186f8 <__swbuf_r+0x70>
   18794:	00090513          	mv	a0,s2
   18798:	00040593          	mv	a1,s0
   1879c:	c80fb0ef          	jal	13c1c <_fflush_r>
   187a0:	02051c63          	bnez	a0,187d8 <__swbuf_r+0x150>
   187a4:	00048513          	mv	a0,s1
   187a8:	f89ff06f          	j	18730 <__swbuf_r+0xa8>
   187ac:	00090513          	mv	a0,s2
   187b0:	00040593          	mv	a1,s0
   187b4:	da1f90ef          	jal	12554 <__swsetup_r>
   187b8:	02051463          	bnez	a0,187e0 <__swbuf_r+0x158>
   187bc:	00c41683          	lh	a3,12(s0)
   187c0:	01042783          	lw	a5,16(s0)
   187c4:	01069713          	slli	a4,a3,0x10
   187c8:	01075713          	srli	a4,a4,0x10
   187cc:	f0dff06f          	j	186d8 <__swbuf_r+0x50>
   187d0:	a41fb0ef          	jal	14210 <__sinit>
   187d4:	ee1ff06f          	j	186b4 <__swbuf_r+0x2c>
   187d8:	fff00513          	li	a0,-1
   187dc:	f55ff06f          	j	18730 <__swbuf_r+0xa8>
   187e0:	00c45783          	lhu	a5,12(s0)
   187e4:	fff00513          	li	a0,-1
   187e8:	0407e793          	ori	a5,a5,64
   187ec:	00f41623          	sh	a5,12(s0)
   187f0:	00900793          	li	a5,9
   187f4:	00f92023          	sw	a5,0(s2)
   187f8:	f39ff06f          	j	18730 <__swbuf_r+0xa8>

000187fc <__swbuf>:
   187fc:	00050793          	mv	a5,a0
   18800:	8081a503          	lw	a0,-2040(gp) # 1cd88 <_impure_ptr>
   18804:	00058613          	mv	a2,a1
   18808:	00078593          	mv	a1,a5
   1880c:	e7dff06f          	j	18688 <__swbuf_r>

00018810 <_wcrtomb_r>:
   18810:	fd010113          	addi	sp,sp,-48
   18814:	02812423          	sw	s0,40(sp)
   18818:	02912223          	sw	s1,36(sp)
   1881c:	03212023          	sw	s2,32(sp)
   18820:	02112623          	sw	ra,44(sp)
   18824:	00050413          	mv	s0,a0
   18828:	00068493          	mv	s1,a3
   1882c:	8181a903          	lw	s2,-2024(gp) # 1cd98 <__wctomb>
   18830:	04058a63          	beqz	a1,18884 <_wcrtomb_r+0x74>
   18834:	00b12623          	sw	a1,12(sp)
   18838:	00c12423          	sw	a2,8(sp)
   1883c:	fa5fb0ef          	jal	147e0 <__locale_charset>
   18840:	00c12583          	lw	a1,12(sp)
   18844:	00812603          	lw	a2,8(sp)
   18848:	00050693          	mv	a3,a0
   1884c:	00048713          	mv	a4,s1
   18850:	00040513          	mv	a0,s0
   18854:	000900e7          	jalr	s2
   18858:	fff00793          	li	a5,-1
   1885c:	00f51863          	bne	a0,a5,1886c <_wcrtomb_r+0x5c>
   18860:	08a00793          	li	a5,138
   18864:	0004a023          	sw	zero,0(s1)
   18868:	00f42023          	sw	a5,0(s0)
   1886c:	02c12083          	lw	ra,44(sp)
   18870:	02812403          	lw	s0,40(sp)
   18874:	02412483          	lw	s1,36(sp)
   18878:	02012903          	lw	s2,32(sp)
   1887c:	03010113          	addi	sp,sp,48
   18880:	00008067          	ret
   18884:	f5dfb0ef          	jal	147e0 <__locale_charset>
   18888:	00050693          	mv	a3,a0
   1888c:	01410593          	addi	a1,sp,20
   18890:	00040513          	mv	a0,s0
   18894:	00000613          	li	a2,0
   18898:	00048713          	mv	a4,s1
   1889c:	000900e7          	jalr	s2
   188a0:	fb9ff06f          	j	18858 <_wcrtomb_r+0x48>

000188a4 <wcrtomb>:
   188a4:	fd010113          	addi	sp,sp,-48
   188a8:	02812423          	sw	s0,40(sp)
   188ac:	02912223          	sw	s1,36(sp)
   188b0:	02112623          	sw	ra,44(sp)
   188b4:	03212023          	sw	s2,32(sp)
   188b8:	01312e23          	sw	s3,28(sp)
   188bc:	01412c23          	sw	s4,24(sp)
   188c0:	01512a23          	sw	s5,20(sp)
   188c4:	00050413          	mv	s0,a0
   188c8:	00060493          	mv	s1,a2
   188cc:	06050463          	beqz	a0,18934 <wcrtomb+0x90>
   188d0:	8081aa83          	lw	s5,-2040(gp) # 1cd88 <_impure_ptr>
   188d4:	8181aa03          	lw	s4,-2024(gp) # 1cd98 <__wctomb>
   188d8:	00058993          	mv	s3,a1
   188dc:	f05fb0ef          	jal	147e0 <__locale_charset>
   188e0:	00050693          	mv	a3,a0
   188e4:	00040593          	mv	a1,s0
   188e8:	000a8513          	mv	a0,s5
   188ec:	00098613          	mv	a2,s3
   188f0:	00048713          	mv	a4,s1
   188f4:	000a00e7          	jalr	s4
   188f8:	fff00793          	li	a5,-1
   188fc:	00f51a63          	bne	a0,a5,18910 <wcrtomb+0x6c>
   18900:	8081a783          	lw	a5,-2040(gp) # 1cd88 <_impure_ptr>
   18904:	08a00713          	li	a4,138
   18908:	0004a023          	sw	zero,0(s1)
   1890c:	00e7a023          	sw	a4,0(a5)
   18910:	02c12083          	lw	ra,44(sp)
   18914:	02812403          	lw	s0,40(sp)
   18918:	02412483          	lw	s1,36(sp)
   1891c:	02012903          	lw	s2,32(sp)
   18920:	01c12983          	lw	s3,28(sp)
   18924:	01812a03          	lw	s4,24(sp)
   18928:	01412a83          	lw	s5,20(sp)
   1892c:	03010113          	addi	sp,sp,48
   18930:	00008067          	ret
   18934:	8081a983          	lw	s3,-2040(gp) # 1cd88 <_impure_ptr>
   18938:	8181a403          	lw	s0,-2024(gp) # 1cd98 <__wctomb>
   1893c:	ea5fb0ef          	jal	147e0 <__locale_charset>
   18940:	00050693          	mv	a3,a0
   18944:	00410593          	addi	a1,sp,4
   18948:	00098513          	mv	a0,s3
   1894c:	00000613          	li	a2,0
   18950:	00048713          	mv	a4,s1
   18954:	000400e7          	jalr	s0
   18958:	fa1ff06f          	j	188f8 <wcrtomb+0x54>

0001895c <__ascii_wctomb>:
   1895c:	00058c63          	beqz	a1,18974 <__ascii_wctomb+0x18>
   18960:	0ff00793          	li	a5,255
   18964:	00c7ec63          	bltu	a5,a2,1897c <__ascii_wctomb+0x20>
   18968:	00c58023          	sb	a2,0(a1)
   1896c:	00100513          	li	a0,1
   18970:	00008067          	ret
   18974:	00000513          	li	a0,0
   18978:	00008067          	ret
   1897c:	08a00793          	li	a5,138
   18980:	00f52023          	sw	a5,0(a0)
   18984:	fff00513          	li	a0,-1
   18988:	00008067          	ret

0001898c <_wctomb_r>:
   1898c:	fe010113          	addi	sp,sp,-32
   18990:	00812c23          	sw	s0,24(sp)
   18994:	8181a403          	lw	s0,-2024(gp) # 1cd98 <__wctomb>
   18998:	00112e23          	sw	ra,28(sp)
   1899c:	00912a23          	sw	s1,20(sp)
   189a0:	01212823          	sw	s2,16(sp)
   189a4:	00068493          	mv	s1,a3
   189a8:	00050913          	mv	s2,a0
   189ac:	00b12623          	sw	a1,12(sp)
   189b0:	00c12423          	sw	a2,8(sp)
   189b4:	e2dfb0ef          	jal	147e0 <__locale_charset>
   189b8:	00050693          	mv	a3,a0
   189bc:	00c12583          	lw	a1,12(sp)
   189c0:	00090513          	mv	a0,s2
   189c4:	00812603          	lw	a2,8(sp)
   189c8:	00048713          	mv	a4,s1
   189cc:	00040293          	mv	t0,s0
   189d0:	01c12083          	lw	ra,28(sp)
   189d4:	01812403          	lw	s0,24(sp)
   189d8:	01412483          	lw	s1,20(sp)
   189dc:	01012903          	lw	s2,16(sp)
   189e0:	02010113          	addi	sp,sp,32
   189e4:	00028067          	jr	t0

000189e8 <__syscall_error>:
   189e8:	ff010113          	addi	sp,sp,-16
   189ec:	00112623          	sw	ra,12(sp)
   189f0:	00812423          	sw	s0,8(sp)
   189f4:	00050413          	mv	s0,a0
   189f8:	2a8020ef          	jal	1aca0 <__errno>
   189fc:	00c12083          	lw	ra,12(sp)
   18a00:	408007b3          	neg	a5,s0
   18a04:	00f52023          	sw	a5,0(a0)
   18a08:	00812403          	lw	s0,8(sp)
   18a0c:	fff00513          	li	a0,-1
   18a10:	01010113          	addi	sp,sp,16
   18a14:	00008067          	ret

00018a18 <open>:
   18a18:	00000693          	li	a3,0
   18a1c:	40000893          	li	a7,1024
   18a20:	00000073          	scall
   18a24:	fc0542e3          	bltz	a0,189e8 <__syscall_error>
   18a28:	00008067          	ret

00018a2c <openat>:
   18a2c:	03800893          	li	a7,56
   18a30:	00000073          	scall
   18a34:	fa054ae3          	bltz	a0,189e8 <__syscall_error>
   18a38:	00008067          	ret

00018a3c <lseek>:
   18a3c:	00060593          	mv	a1,a2
   18a40:	00000693          	li	a3,0
   18a44:	00070613          	mv	a2,a4
   18a48:	03e00893          	li	a7,62
   18a4c:	00000073          	scall
   18a50:	f8054ce3          	bltz	a0,189e8 <__syscall_error>
   18a54:	41f55593          	srai	a1,a0,0x1f
   18a58:	00008067          	ret

00018a5c <read>:
   18a5c:	00000693          	li	a3,0
   18a60:	03f00893          	li	a7,63
   18a64:	00000073          	scall
   18a68:	f80540e3          	bltz	a0,189e8 <__syscall_error>
   18a6c:	00008067          	ret

00018a70 <write>:
   18a70:	00000693          	li	a3,0
   18a74:	04000893          	li	a7,64
   18a78:	00000073          	scall
   18a7c:	f60546e3          	bltz	a0,189e8 <__syscall_error>
   18a80:	00008067          	ret

00018a84 <fstat>:
   18a84:	00000613          	li	a2,0
   18a88:	00000693          	li	a3,0
   18a8c:	05000893          	li	a7,80
   18a90:	00000073          	scall
   18a94:	f4054ae3          	bltz	a0,189e8 <__syscall_error>
   18a98:	00008067          	ret

00018a9c <stat>:
   18a9c:	00000613          	li	a2,0
   18aa0:	00000693          	li	a3,0
   18aa4:	40e00893          	li	a7,1038
   18aa8:	00000073          	scall
   18aac:	f2054ee3          	bltz	a0,189e8 <__syscall_error>
   18ab0:	00008067          	ret

00018ab4 <lstat>:
   18ab4:	00000613          	li	a2,0
   18ab8:	00000693          	li	a3,0
   18abc:	40f00893          	li	a7,1039
   18ac0:	00000073          	scall
   18ac4:	f20542e3          	bltz	a0,189e8 <__syscall_error>
   18ac8:	00008067          	ret

00018acc <fstatat>:
   18acc:	04f00893          	li	a7,79
   18ad0:	00000073          	scall
   18ad4:	f0054ae3          	bltz	a0,189e8 <__syscall_error>
   18ad8:	00008067          	ret

00018adc <access>:
   18adc:	00000613          	li	a2,0
   18ae0:	00000693          	li	a3,0
   18ae4:	40900893          	li	a7,1033
   18ae8:	00000073          	scall
   18aec:	ee054ee3          	bltz	a0,189e8 <__syscall_error>
   18af0:	00008067          	ret

00018af4 <faccessat>:
   18af4:	03000893          	li	a7,48
   18af8:	00000073          	scall
   18afc:	ee0546e3          	bltz	a0,189e8 <__syscall_error>
   18b00:	00008067          	ret

00018b04 <close>:
   18b04:	00000593          	li	a1,0
   18b08:	00000613          	li	a2,0
   18b0c:	00000693          	li	a3,0
   18b10:	03900893          	li	a7,57
   18b14:	00000073          	scall
   18b18:	ec0548e3          	bltz	a0,189e8 <__syscall_error>
   18b1c:	00008067          	ret

00018b20 <link>:
   18b20:	00000613          	li	a2,0
   18b24:	00000693          	li	a3,0
   18b28:	40100893          	li	a7,1025
   18b2c:	00000073          	scall
   18b30:	ea054ce3          	bltz	a0,189e8 <__syscall_error>
   18b34:	00008067          	ret

00018b38 <unlink>:
   18b38:	00000593          	li	a1,0
   18b3c:	00000613          	li	a2,0
   18b40:	00000693          	li	a3,0
   18b44:	40200893          	li	a7,1026
   18b48:	00000073          	scall
   18b4c:	e8054ee3          	bltz	a0,189e8 <__syscall_error>
   18b50:	00008067          	ret

00018b54 <execve>:
   18b54:	ff010113          	addi	sp,sp,-16
   18b58:	00112623          	sw	ra,12(sp)
   18b5c:	144020ef          	jal	1aca0 <__errno>
   18b60:	00c12083          	lw	ra,12(sp)
   18b64:	00c00793          	li	a5,12
   18b68:	00f52023          	sw	a5,0(a0)
   18b6c:	01010113          	addi	sp,sp,16
   18b70:	fff00513          	li	a0,-1
   18b74:	00008067          	ret

00018b78 <fork>:
   18b78:	ff010113          	addi	sp,sp,-16
   18b7c:	00112623          	sw	ra,12(sp)
   18b80:	120020ef          	jal	1aca0 <__errno>
   18b84:	00c12083          	lw	ra,12(sp)
   18b88:	00b00793          	li	a5,11
   18b8c:	00f52023          	sw	a5,0(a0)
   18b90:	01010113          	addi	sp,sp,16
   18b94:	fff00513          	li	a0,-1
   18b98:	00008067          	ret

00018b9c <getpid>:
   18b9c:	00100513          	li	a0,1
   18ba0:	00008067          	ret

00018ba4 <kill>:
   18ba4:	ff010113          	addi	sp,sp,-16
   18ba8:	00112623          	sw	ra,12(sp)
   18bac:	0f4020ef          	jal	1aca0 <__errno>
   18bb0:	00c12083          	lw	ra,12(sp)
   18bb4:	01600793          	li	a5,22
   18bb8:	00f52023          	sw	a5,0(a0)
   18bbc:	01010113          	addi	sp,sp,16
   18bc0:	fff00513          	li	a0,-1
   18bc4:	00008067          	ret

00018bc8 <wait>:
   18bc8:	ff010113          	addi	sp,sp,-16
   18bcc:	00112623          	sw	ra,12(sp)
   18bd0:	0d0020ef          	jal	1aca0 <__errno>
   18bd4:	00c12083          	lw	ra,12(sp)
   18bd8:	00a00793          	li	a5,10
   18bdc:	00f52023          	sw	a5,0(a0)
   18be0:	01010113          	addi	sp,sp,16
   18be4:	fff00513          	li	a0,-1
   18be8:	00008067          	ret

00018bec <isatty>:
   18bec:	f8010113          	addi	sp,sp,-128
   18bf0:	00010593          	mv	a1,sp
   18bf4:	00000613          	li	a2,0
   18bf8:	00000693          	li	a3,0
   18bfc:	05000893          	li	a7,80
   18c00:	00000073          	scall
   18c04:	de0542e3          	bltz	a0,189e8 <__syscall_error>
   18c08:	fff00793          	li	a5,-1
   18c0c:	00f50863          	beq	a0,a5,18c1c <isatty+0x30>
   18c10:	01012503          	lw	a0,16(sp)
   18c14:	00d55513          	srli	a0,a0,0xd
   18c18:	00157513          	andi	a0,a0,1
   18c1c:	08010113          	addi	sp,sp,128
   18c20:	00008067          	ret

00018c24 <times>:
   18c24:	8e018293          	addi	t0,gp,-1824 # 1ce60 <t0.2178>
   18c28:	0002a783          	lw	a5,0(t0)
   18c2c:	0042a683          	lw	a3,4(t0)
   18c30:	ff010113          	addi	sp,sp,-16
   18c34:	00050813          	mv	a6,a0
   18c38:	00d7e7b3          	or	a5,a5,a3
   18c3c:	02079063          	bnez	a5,18c5c <times+0x38>
   18c40:	8e018513          	addi	a0,gp,-1824 # 1ce60 <t0.2178>
   18c44:	00000593          	li	a1,0
   18c48:	00000613          	li	a2,0
   18c4c:	00000693          	li	a3,0
   18c50:	0a900893          	li	a7,169
   18c54:	00000073          	scall
   18c58:	d80548e3          	bltz	a0,189e8 <__syscall_error>
   18c5c:	00010513          	mv	a0,sp
   18c60:	00000593          	li	a1,0
   18c64:	00000613          	li	a2,0
   18c68:	00000693          	li	a3,0
   18c6c:	0a900893          	li	a7,169
   18c70:	00000073          	scall
   18c74:	d6054ae3          	bltz	a0,189e8 <__syscall_error>
   18c78:	0002a703          	lw	a4,0(t0)
   18c7c:	00012783          	lw	a5,0(sp)
   18c80:	fff00513          	li	a0,-1
   18c84:	00082623          	sw	zero,12(a6)
   18c88:	40e786b3          	sub	a3,a5,a4
   18c8c:	000f47b7          	lui	a5,0xf4
   18c90:	24078793          	addi	a5,a5,576 # f4240 <_gp+0xd6cc0>
   18c94:	02f68733          	mul	a4,a3,a5
   18c98:	0082a683          	lw	a3,8(t0)
   18c9c:	00812783          	lw	a5,8(sp)
   18ca0:	00082423          	sw	zero,8(a6)
   18ca4:	00082223          	sw	zero,4(a6)
   18ca8:	40d787b3          	sub	a5,a5,a3
   18cac:	01010113          	addi	sp,sp,16
   18cb0:	00f707b3          	add	a5,a4,a5
   18cb4:	00f82023          	sw	a5,0(a6)
   18cb8:	00008067          	ret

00018cbc <gettimeofday>:
   18cbc:	00000593          	li	a1,0
   18cc0:	00000613          	li	a2,0
   18cc4:	00000693          	li	a3,0
   18cc8:	0a900893          	li	a7,169
   18ccc:	00000073          	scall
   18cd0:	d0054ce3          	bltz	a0,189e8 <__syscall_error>
   18cd4:	00008067          	ret

00018cd8 <ftime>:
   18cd8:	00000713          	li	a4,0
   18cdc:	00000793          	li	a5,0
   18ce0:	00051423          	sh	zero,8(a0)
   18ce4:	00e52023          	sw	a4,0(a0)
   18ce8:	00f52223          	sw	a5,4(a0)
   18cec:	00000513          	li	a0,0
   18cf0:	00008067          	ret

00018cf4 <utime>:
   18cf4:	fff00513          	li	a0,-1
   18cf8:	00008067          	ret

00018cfc <chown>:
   18cfc:	fff00513          	li	a0,-1
   18d00:	00008067          	ret

00018d04 <chmod>:
   18d04:	fff00513          	li	a0,-1
   18d08:	00008067          	ret

00018d0c <chdir>:
   18d0c:	fff00513          	li	a0,-1
   18d10:	00008067          	ret

00018d14 <getcwd>:
   18d14:	00000513          	li	a0,0
   18d18:	00008067          	ret

00018d1c <sysconf>:
   18d1c:	00200793          	li	a5,2
   18d20:	00f51863          	bne	a0,a5,18d30 <sysconf+0x14>
   18d24:	000f4537          	lui	a0,0xf4
   18d28:	24050513          	addi	a0,a0,576 # f4240 <_gp+0xd6cc0>
   18d2c:	00008067          	ret
   18d30:	fff00513          	li	a0,-1
   18d34:	00008067          	ret

00018d38 <sbrk>:
   18d38:	8901a703          	lw	a4,-1904(gp) # 1ce10 <heap_end.2216>
   18d3c:	00050793          	mv	a5,a0
   18d40:	00071663          	bnez	a4,18d4c <sbrk+0x14>
   18d44:	93018713          	addi	a4,gp,-1744 # 1ceb0 <_end>
   18d48:	88e1a823          	sw	a4,-1904(gp) # 1ce10 <heap_end.2216>
   18d4c:	00f70533          	add	a0,a4,a5
   18d50:	00000593          	li	a1,0
   18d54:	00000613          	li	a2,0
   18d58:	00000693          	li	a3,0
   18d5c:	0d600893          	li	a7,214
   18d60:	00000073          	scall
   18d64:	c80542e3          	bltz	a0,189e8 <__syscall_error>
   18d68:	8901a683          	lw	a3,-1904(gp) # 1ce10 <heap_end.2216>
   18d6c:	fff00713          	li	a4,-1
   18d70:	00d787b3          	add	a5,a5,a3
   18d74:	00f51663          	bne	a0,a5,18d80 <sbrk+0x48>
   18d78:	88a1a823          	sw	a0,-1904(gp) # 1ce10 <heap_end.2216>
   18d7c:	00068713          	mv	a4,a3
   18d80:	00070513          	mv	a0,a4
   18d84:	00008067          	ret

00018d88 <_exit>:
   18d88:	00000593          	li	a1,0
   18d8c:	00000613          	li	a2,0
   18d90:	00000693          	li	a3,0
   18d94:	05d00893          	li	a7,93
   18d98:	00000073          	scall
   18d9c:	c40546e3          	bltz	a0,189e8 <__syscall_error>
   18da0:	0000006f          	j	18da0 <_exit+0x18>

00018da4 <_fpadd_parts>:
   18da4:	00052783          	lw	a5,0(a0)
   18da8:	00100693          	li	a3,1
   18dac:	12f6f263          	bleu	a5,a3,18ed0 <_fpadd_parts+0x12c>
   18db0:	0005a703          	lw	a4,0(a1)
   18db4:	10e6fc63          	bleu	a4,a3,18ecc <_fpadd_parts+0x128>
   18db8:	00400693          	li	a3,4
   18dbc:	24d78063          	beq	a5,a3,18ffc <_fpadd_parts+0x258>
   18dc0:	10d70663          	beq	a4,a3,18ecc <_fpadd_parts+0x128>
   18dc4:	00200693          	li	a3,2
   18dc8:	1cd70263          	beq	a4,a3,18f8c <_fpadd_parts+0x1e8>
   18dcc:	10d78063          	beq	a5,a3,18ecc <_fpadd_parts+0x128>
   18dd0:	00852383          	lw	t2,8(a0)
   18dd4:	0085a883          	lw	a7,8(a1)
   18dd8:	03f00e13          	li	t3,63
   18ddc:	01052283          	lw	t0,16(a0)
   18de0:	411387b3          	sub	a5,t2,a7
   18de4:	41f7d713          	srai	a4,a5,0x1f
   18de8:	00f74833          	xor	a6,a4,a5
   18dec:	40e80833          	sub	a6,a6,a4
   18df0:	01452683          	lw	a3,20(a0)
   18df4:	0105a703          	lw	a4,16(a1)
   18df8:	0145a303          	lw	t1,20(a1)
   18dfc:	0d0e5c63          	ble	a6,t3,18ed4 <_fpadd_parts+0x130>
   18e00:	1e78c863          	blt	a7,t2,18ff0 <_fpadd_parts+0x24c>
   18e04:	00088393          	mv	t2,a7
   18e08:	00000293          	li	t0,0
   18e0c:	00000693          	li	a3,0
   18e10:	00452503          	lw	a0,4(a0)
   18e14:	0045a783          	lw	a5,4(a1)
   18e18:	10f50863          	beq	a0,a5,18f28 <_fpadd_parts+0x184>
   18e1c:	1c050063          	beqz	a0,18fdc <_fpadd_parts+0x238>
   18e20:	405707b3          	sub	a5,a4,t0
   18e24:	00f73733          	sltu	a4,a4,a5
   18e28:	40d306b3          	sub	a3,t1,a3
   18e2c:	40e686b3          	sub	a3,a3,a4
   18e30:	1e06c463          	bltz	a3,19018 <_fpadd_parts+0x274>
   18e34:	00062223          	sw	zero,4(a2) # 2004 <_ftext-0xdffc>
   18e38:	00762423          	sw	t2,8(a2)
   18e3c:	00f62823          	sw	a5,16(a2)
   18e40:	00d62a23          	sw	a3,20(a2)
   18e44:	fff78513          	addi	a0,a5,-1
   18e48:	fff68593          	addi	a1,a3,-1
   18e4c:	00f53733          	sltu	a4,a0,a5
   18e50:	00b70733          	add	a4,a4,a1
   18e54:	100005b7          	lui	a1,0x10000
   18e58:	0eb77863          	bleu	a1,a4,18f48 <_fpadd_parts+0x1a4>
   18e5c:	fff58593          	addi	a1,a1,-1 # fffffff <_gp+0xffe2a7f>
   18e60:	24b70e63          	beq	a4,a1,190bc <_fpadd_parts+0x318>
   18e64:	00862503          	lw	a0,8(a2)
   18e68:	100002b7          	lui	t0,0x10000
   18e6c:	fff28313          	addi	t1,t0,-1 # fffffff <_gp+0xffe2a7f>
   18e70:	fff50513          	addi	a0,a0,-1
   18e74:	ffe00393          	li	t2,-2
   18e78:	0080006f          	j	18e80 <_fpadd_parts+0xdc>
   18e7c:	14670c63          	beq	a4,t1,18fd4 <_fpadd_parts+0x230>
   18e80:	01f7d713          	srli	a4,a5,0x1f
   18e84:	00169593          	slli	a1,a3,0x1
   18e88:	00179793          	slli	a5,a5,0x1
   18e8c:	00b765b3          	or	a1,a4,a1
   18e90:	fff78813          	addi	a6,a5,-1
   18e94:	fff58893          	addi	a7,a1,-1
   18e98:	00f83733          	sltu	a4,a6,a5
   18e9c:	01170733          	add	a4,a4,a7
   18ea0:	00058693          	mv	a3,a1
   18ea4:	00050893          	mv	a7,a0
   18ea8:	fff50513          	addi	a0,a0,-1
   18eac:	fc5768e3          	bltu	a4,t0,18e7c <_fpadd_parts+0xd8>
   18eb0:	00f62823          	sw	a5,16(a2)
   18eb4:	00300793          	li	a5,3
   18eb8:	00b62a23          	sw	a1,20(a2)
   18ebc:	01162423          	sw	a7,8(a2)
   18ec0:	00f62023          	sw	a5,0(a2)
   18ec4:	00060513          	mv	a0,a2
   18ec8:	00008067          	ret
   18ecc:	00058513          	mv	a0,a1
   18ed0:	00008067          	ret
   18ed4:	18f05a63          	blez	a5,19068 <_fpadd_parts+0x2c4>
   18ed8:	01a81793          	slli	a5,a6,0x1a
   18edc:	1607d263          	bgez	a5,19040 <_fpadd_parts+0x29c>
   18ee0:	00100893          	li	a7,1
   18ee4:	01035eb3          	srl	t4,t1,a6
   18ee8:	01089e33          	sll	t3,a7,a6
   18eec:	00000f13          	li	t5,0
   18ef0:	00000813          	li	a6,0
   18ef4:	fff80793          	addi	a5,a6,-1
   18ef8:	0107b833          	sltu	a6,a5,a6
   18efc:	fffe0893          	addi	a7,t3,-1
   18f00:	01180833          	add	a6,a6,a7
   18f04:	00e7f733          	and	a4,a5,a4
   18f08:	00687833          	and	a6,a6,t1
   18f0c:	00452503          	lw	a0,4(a0)
   18f10:	0045a783          	lw	a5,4(a1)
   18f14:	01076733          	or	a4,a4,a6
   18f18:	00e03733          	snez	a4,a4
   18f1c:	01d76733          	or	a4,a4,t4
   18f20:	000f0313          	mv	t1,t5
   18f24:	eef51ce3          	bne	a0,a5,18e1c <_fpadd_parts+0x78>
   18f28:	005707b3          	add	a5,a4,t0
   18f2c:	00e7b5b3          	sltu	a1,a5,a4
   18f30:	00d306b3          	add	a3,t1,a3
   18f34:	00d586b3          	add	a3,a1,a3
   18f38:	00a62223          	sw	a0,4(a2)
   18f3c:	00762423          	sw	t2,8(a2)
   18f40:	00f62823          	sw	a5,16(a2)
   18f44:	00d62a23          	sw	a3,20(a2)
   18f48:	00300713          	li	a4,3
   18f4c:	00e62023          	sw	a4,0(a2)
   18f50:	20000737          	lui	a4,0x20000
   18f54:	02e6e863          	bltu	a3,a4,18f84 <_fpadd_parts+0x1e0>
   18f58:	00862583          	lw	a1,8(a2)
   18f5c:	01f69513          	slli	a0,a3,0x1f
   18f60:	0017d713          	srli	a4,a5,0x1
   18f64:	00e56733          	or	a4,a0,a4
   18f68:	0017f793          	andi	a5,a5,1
   18f6c:	00e7e7b3          	or	a5,a5,a4
   18f70:	0016d693          	srli	a3,a3,0x1
   18f74:	00158713          	addi	a4,a1,1
   18f78:	00f62823          	sw	a5,16(a2)
   18f7c:	00d62a23          	sw	a3,20(a2)
   18f80:	00e62423          	sw	a4,8(a2)
   18f84:	00060513          	mv	a0,a2
   18f88:	00008067          	ret
   18f8c:	f4e792e3          	bne	a5,a4,18ed0 <_fpadd_parts+0x12c>
   18f90:	00452283          	lw	t0,4(a0)
   18f94:	00852883          	lw	a7,8(a0)
   18f98:	00c52803          	lw	a6,12(a0)
   18f9c:	01052683          	lw	a3,16(a0)
   18fa0:	01452703          	lw	a4,20(a0)
   18fa4:	00562223          	sw	t0,4(a2)
   18fa8:	00f62023          	sw	a5,0(a2)
   18fac:	00452783          	lw	a5,4(a0)
   18fb0:	0045a583          	lw	a1,4(a1)
   18fb4:	00060513          	mv	a0,a2
   18fb8:	01162423          	sw	a7,8(a2)
   18fbc:	00f5f7b3          	and	a5,a1,a5
   18fc0:	01062623          	sw	a6,12(a2)
   18fc4:	00d62823          	sw	a3,16(a2)
   18fc8:	00e62a23          	sw	a4,20(a2)
   18fcc:	00f62223          	sw	a5,4(a2)
   18fd0:	00008067          	ret
   18fd4:	eb03f6e3          	bleu	a6,t2,18e80 <_fpadd_parts+0xdc>
   18fd8:	ed9ff06f          	j	18eb0 <_fpadd_parts+0x10c>
   18fdc:	40e287b3          	sub	a5,t0,a4
   18fe0:	00f2b2b3          	sltu	t0,t0,a5
   18fe4:	406686b3          	sub	a3,a3,t1
   18fe8:	405686b3          	sub	a3,a3,t0
   18fec:	e45ff06f          	j	18e30 <_fpadd_parts+0x8c>
   18ff0:	00000713          	li	a4,0
   18ff4:	00000313          	li	t1,0
   18ff8:	e19ff06f          	j	18e10 <_fpadd_parts+0x6c>
   18ffc:	ecf71ae3          	bne	a4,a5,18ed0 <_fpadd_parts+0x12c>
   19000:	00452703          	lw	a4,4(a0)
   19004:	0045a783          	lw	a5,4(a1)
   19008:	ecf704e3          	beq	a4,a5,18ed0 <_fpadd_parts+0x12c>
   1900c:	0001b537          	lui	a0,0x1b
   19010:	11850513          	addi	a0,a0,280 # 1b118 <__thenan_df>
   19014:	00008067          	ret
   19018:	40f007b3          	neg	a5,a5
   1901c:	00f03733          	snez	a4,a5
   19020:	40d006b3          	neg	a3,a3
   19024:	40e686b3          	sub	a3,a3,a4
   19028:	00100713          	li	a4,1
   1902c:	00e62223          	sw	a4,4(a2)
   19030:	00762423          	sw	t2,8(a2)
   19034:	00f62823          	sw	a5,16(a2)
   19038:	00d62a23          	sw	a3,20(a2)
   1903c:	e09ff06f          	j	18e44 <_fpadd_parts+0xa0>
   19040:	fff84893          	not	a7,a6
   19044:	00131793          	slli	a5,t1,0x1
   19048:	011797b3          	sll	a5,a5,a7
   1904c:	01075eb3          	srl	t4,a4,a6
   19050:	00100893          	li	a7,1
   19054:	01035f33          	srl	t5,t1,a6
   19058:	01d7eeb3          	or	t4,a5,t4
   1905c:	00000e13          	li	t3,0
   19060:	01089833          	sll	a6,a7,a6
   19064:	e91ff06f          	j	18ef4 <_fpadd_parts+0x150>
   19068:	da0784e3          	beqz	a5,18e10 <_fpadd_parts+0x6c>
   1906c:	02087793          	andi	a5,a6,32
   19070:	010383b3          	add	t2,t2,a6
   19074:	06078263          	beqz	a5,190d8 <_fpadd_parts+0x334>
   19078:	0106de33          	srl	t3,a3,a6
   1907c:	00000e93          	li	t4,0
   19080:	04079463          	bnez	a5,190c8 <_fpadd_parts+0x324>
   19084:	00100793          	li	a5,1
   19088:	00000893          	li	a7,0
   1908c:	01079833          	sll	a6,a5,a6
   19090:	fff80793          	addi	a5,a6,-1
   19094:	0107b833          	sltu	a6,a5,a6
   19098:	fff88893          	addi	a7,a7,-1
   1909c:	01180833          	add	a6,a6,a7
   190a0:	0057f7b3          	and	a5,a5,t0
   190a4:	00d876b3          	and	a3,a6,a3
   190a8:	00d7e2b3          	or	t0,a5,a3
   190ac:	005037b3          	snez	a5,t0
   190b0:	01c7e2b3          	or	t0,a5,t3
   190b4:	000e8693          	mv	a3,t4
   190b8:	d59ff06f          	j	18e10 <_fpadd_parts+0x6c>
   190bc:	ffe00713          	li	a4,-2
   190c0:	daa772e3          	bleu	a0,a4,18e64 <_fpadd_parts+0xc0>
   190c4:	e85ff06f          	j	18f48 <_fpadd_parts+0x1a4>
   190c8:	00100893          	li	a7,1
   190cc:	010898b3          	sll	a7,a7,a6
   190d0:	00000813          	li	a6,0
   190d4:	fbdff06f          	j	19090 <_fpadd_parts+0x2ec>
   190d8:	00169793          	slli	a5,a3,0x1
   190dc:	fff84893          	not	a7,a6
   190e0:	011797b3          	sll	a5,a5,a7
   190e4:	0102de33          	srl	t3,t0,a6
   190e8:	01c7ee33          	or	t3,a5,t3
   190ec:	0106deb3          	srl	t4,a3,a6
   190f0:	f95ff06f          	j	19084 <_fpadd_parts+0x2e0>

000190f4 <__pack_d>:
   190f4:	00052783          	lw	a5,0(a0)
   190f8:	00100893          	li	a7,1
   190fc:	ff010113          	addi	sp,sp,-16
   19100:	01052683          	lw	a3,16(a0)
   19104:	01452583          	lw	a1,20(a0)
   19108:	00452803          	lw	a6,4(a0)
   1910c:	10f8f263          	bleu	a5,a7,19210 <__pack_d+0x11c>
   19110:	00400713          	li	a4,4
   19114:	0ee78663          	beq	a5,a4,19200 <__pack_d+0x10c>
   19118:	00200713          	li	a4,2
   1911c:	06e78263          	beq	a5,a4,19180 <__pack_d+0x8c>
   19120:	00b6e7b3          	or	a5,a3,a1
   19124:	04078e63          	beqz	a5,19180 <__pack_d+0x8c>
   19128:	00852783          	lw	a5,8(a0)
   1912c:	c0200713          	li	a4,-1022
   19130:	12e7c863          	blt	a5,a4,19260 <__pack_d+0x16c>
   19134:	3ff00713          	li	a4,1023
   19138:	0cf74463          	blt	a4,a5,19200 <__pack_d+0x10c>
   1913c:	0ff6f613          	andi	a2,a3,255
   19140:	08000713          	li	a4,128
   19144:	10e60063          	beq	a2,a4,19244 <__pack_d+0x150>
   19148:	07f68713          	addi	a4,a3,127
   1914c:	00d736b3          	sltu	a3,a4,a3
   19150:	00b685b3          	add	a1,a3,a1
   19154:	00070693          	mv	a3,a4
   19158:	20000737          	lui	a4,0x20000
   1915c:	08e5f663          	bleu	a4,a1,191e8 <__pack_d+0xf4>
   19160:	3ff78793          	addi	a5,a5,1023
   19164:	01859713          	slli	a4,a1,0x18
   19168:	0086d513          	srli	a0,a3,0x8
   1916c:	00459593          	slli	a1,a1,0x4
   19170:	00a76533          	or	a0,a4,a0
   19174:	00c5d593          	srli	a1,a1,0xc
   19178:	7ff7f793          	andi	a5,a5,2047
   1917c:	0100006f          	j	1918c <__pack_d+0x98>
   19180:	00000793          	li	a5,0
   19184:	00000513          	li	a0,0
   19188:	00000593          	li	a1,0
   1918c:	00100737          	lui	a4,0x100
   19190:	00000693          	li	a3,0
   19194:	00050613          	mv	a2,a0
   19198:	fff70713          	addi	a4,a4,-1 # fffff <_gp+0xe2a7f>
   1919c:	fff00537          	lui	a0,0xfff00
   191a0:	00d57533          	and	a0,a0,a3
   191a4:	00e5f5b3          	and	a1,a1,a4
   191a8:	01479713          	slli	a4,a5,0x14
   191ac:	801007b7          	lui	a5,0x80100
   191b0:	00b565b3          	or	a1,a0,a1
   191b4:	fff78793          	addi	a5,a5,-1 # 800fffff <_gp+0x800e2a7f>
   191b8:	00f5f7b3          	and	a5,a1,a5
   191bc:	00e7e7b3          	or	a5,a5,a4
   191c0:	80000737          	lui	a4,0x80000
   191c4:	fff74713          	not	a4,a4
   191c8:	01f81813          	slli	a6,a6,0x1f
   191cc:	00e7f7b3          	and	a5,a5,a4
   191d0:	0107e6b3          	or	a3,a5,a6
   191d4:	00c12423          	sw	a2,8(sp)
   191d8:	00d12623          	sw	a3,12(sp)
   191dc:	00813507          	fld	fa0,8(sp)
   191e0:	01010113          	addi	sp,sp,16
   191e4:	00008067          	ret
   191e8:	01f59713          	slli	a4,a1,0x1f
   191ec:	0016d693          	srli	a3,a3,0x1
   191f0:	00d766b3          	or	a3,a4,a3
   191f4:	0015d593          	srli	a1,a1,0x1
   191f8:	40078793          	addi	a5,a5,1024
   191fc:	f69ff06f          	j	19164 <__pack_d+0x70>
   19200:	7ff00793          	li	a5,2047
   19204:	00000513          	li	a0,0
   19208:	00000593          	li	a1,0
   1920c:	f81ff06f          	j	1918c <__pack_d+0x98>
   19210:	00080737          	lui	a4,0x80
   19214:	0085d613          	srli	a2,a1,0x8
   19218:	fff70793          	addi	a5,a4,-1 # 7ffff <_gp+0x62a7f>
   1921c:	00f677b3          	and	a5,a2,a5
   19220:	01859513          	slli	a0,a1,0x18
   19224:	00e7e5b3          	or	a1,a5,a4
   19228:	001007b7          	lui	a5,0x100
   1922c:	fff78793          	addi	a5,a5,-1 # fffff <_gp+0xe2a7f>
   19230:	0086d693          	srli	a3,a3,0x8
   19234:	00f5f5b3          	and	a1,a1,a5
   19238:	00d56533          	or	a0,a0,a3
   1923c:	7ff00793          	li	a5,2047
   19240:	f4dff06f          	j	1918c <__pack_d+0x98>
   19244:	01769713          	slli	a4,a3,0x17
   19248:	f00758e3          	bgez	a4,19158 <__pack_d+0x64>
   1924c:	08068713          	addi	a4,a3,128
   19250:	00d736b3          	sltu	a3,a4,a3
   19254:	00b685b3          	add	a1,a3,a1
   19258:	00070693          	mv	a3,a4
   1925c:	efdff06f          	j	19158 <__pack_d+0x64>
   19260:	40f70733          	sub	a4,a4,a5
   19264:	03800793          	li	a5,56
   19268:	f0e7cce3          	blt	a5,a4,19180 <__pack_d+0x8c>
   1926c:	01a71793          	slli	a5,a4,0x1a
   19270:	0a07d263          	bgez	a5,19314 <__pack_d+0x220>
   19274:	00e5d633          	srl	a2,a1,a4
   19278:	00e898b3          	sll	a7,a7,a4
   1927c:	00000793          	li	a5,0
   19280:	00000713          	li	a4,0
   19284:	fff70513          	addi	a0,a4,-1
   19288:	00e53733          	sltu	a4,a0,a4
   1928c:	fff88893          	addi	a7,a7,-1
   19290:	011708b3          	add	a7,a4,a7
   19294:	00d576b3          	and	a3,a0,a3
   19298:	00b8f5b3          	and	a1,a7,a1
   1929c:	00b6e6b3          	or	a3,a3,a1
   192a0:	00d036b3          	snez	a3,a3
   192a4:	00c6e6b3          	or	a3,a3,a2
   192a8:	0ff6f613          	andi	a2,a3,255
   192ac:	08000713          	li	a4,128
   192b0:	07f68513          	addi	a0,a3,127
   192b4:	02e61a63          	bne	a2,a4,192e8 <__pack_d+0x1f4>
   192b8:	01769713          	slli	a4,a3,0x17
   192bc:	02074463          	bltz	a4,192e4 <__pack_d+0x1f0>
   192c0:	10000737          	lui	a4,0x10000
   192c4:	01879613          	slli	a2,a5,0x18
   192c8:	00479593          	slli	a1,a5,0x4
   192cc:	0086d513          	srli	a0,a3,0x8
   192d0:	00e7b7b3          	sltu	a5,a5,a4
   192d4:	00a66533          	or	a0,a2,a0
   192d8:	00c5d593          	srli	a1,a1,0xc
   192dc:	0017c793          	xori	a5,a5,1
   192e0:	eadff06f          	j	1918c <__pack_d+0x98>
   192e4:	08068513          	addi	a0,a3,128
   192e8:	00d536b3          	sltu	a3,a0,a3
   192ec:	00f687b3          	add	a5,a3,a5
   192f0:	10000737          	lui	a4,0x10000
   192f4:	01879693          	slli	a3,a5,0x18
   192f8:	00479593          	slli	a1,a5,0x4
   192fc:	00855513          	srli	a0,a0,0x8
   19300:	00e7b7b3          	sltu	a5,a5,a4
   19304:	00a6e533          	or	a0,a3,a0
   19308:	00c5d593          	srli	a1,a1,0xc
   1930c:	0017c793          	xori	a5,a5,1
   19310:	e7dff06f          	j	1918c <__pack_d+0x98>
   19314:	fff74613          	not	a2,a4
   19318:	00159793          	slli	a5,a1,0x1
   1931c:	00c797b3          	sll	a5,a5,a2
   19320:	00100513          	li	a0,1
   19324:	00e6d633          	srl	a2,a3,a4
   19328:	00c7e633          	or	a2,a5,a2
   1932c:	00000893          	li	a7,0
   19330:	00e5d7b3          	srl	a5,a1,a4
   19334:	00e51733          	sll	a4,a0,a4
   19338:	f4dff06f          	j	19284 <__pack_d+0x190>

0001933c <__unpack_d>:
   1933c:	00655683          	lhu	a3,6(a0) # fff00006 <_gp+0xffee2a86>
   19340:	00754703          	lbu	a4,7(a0)
   19344:	00452803          	lw	a6,4(a0)
   19348:	0046d693          	srli	a3,a3,0x4
   1934c:	001007b7          	lui	a5,0x100
   19350:	00775613          	srli	a2,a4,0x7
   19354:	fff78793          	addi	a5,a5,-1 # fffff <_gp+0xe2a7f>
   19358:	7ff6f693          	andi	a3,a3,2047
   1935c:	00052703          	lw	a4,0(a0)
   19360:	00f877b3          	and	a5,a6,a5
   19364:	00c5a223          	sw	a2,4(a1)
   19368:	04069a63          	bnez	a3,193bc <__unpack_d+0x80>
   1936c:	00f766b3          	or	a3,a4,a5
   19370:	08068463          	beqz	a3,193f8 <__unpack_d+0xbc>
   19374:	01875693          	srli	a3,a4,0x18
   19378:	00879793          	slli	a5,a5,0x8
   1937c:	00f6e7b3          	or	a5,a3,a5
   19380:	00300693          	li	a3,3
   19384:	00d5a023          	sw	a3,0(a1)
   19388:	00871713          	slli	a4,a4,0x8
   1938c:	c0200693          	li	a3,-1022
   19390:	10000537          	lui	a0,0x10000
   19394:	01f75613          	srli	a2,a4,0x1f
   19398:	00179793          	slli	a5,a5,0x1
   1939c:	00f667b3          	or	a5,a2,a5
   193a0:	00171713          	slli	a4,a4,0x1
   193a4:	fff68693          	addi	a3,a3,-1
   193a8:	fea7e6e3          	bltu	a5,a0,19394 <__unpack_d+0x58>
   193ac:	00d5a423          	sw	a3,8(a1)
   193b0:	00e5a823          	sw	a4,16(a1)
   193b4:	00f5aa23          	sw	a5,20(a1)
   193b8:	00008067          	ret
   193bc:	7ff00613          	li	a2,2047
   193c0:	04c68263          	beq	a3,a2,19404 <__unpack_d+0xc8>
   193c4:	01875613          	srli	a2,a4,0x18
   193c8:	00879793          	slli	a5,a5,0x8
   193cc:	00f667b3          	or	a5,a2,a5
   193d0:	c0168693          	addi	a3,a3,-1023
   193d4:	10000637          	lui	a2,0x10000
   193d8:	00871713          	slli	a4,a4,0x8
   193dc:	00c7e7b3          	or	a5,a5,a2
   193e0:	00d5a423          	sw	a3,8(a1)
   193e4:	00300693          	li	a3,3
   193e8:	00d5a023          	sw	a3,0(a1)
   193ec:	00e5a823          	sw	a4,16(a1)
   193f0:	00f5aa23          	sw	a5,20(a1)
   193f4:	00008067          	ret
   193f8:	00200793          	li	a5,2
   193fc:	00f5a023          	sw	a5,0(a1)
   19400:	00008067          	ret
   19404:	00f766b3          	or	a3,a4,a5
   19408:	02068e63          	beqz	a3,19444 <__unpack_d+0x108>
   1940c:	00c79693          	slli	a3,a5,0xc
   19410:	0406d063          	bgez	a3,19450 <__unpack_d+0x114>
   19414:	00100693          	li	a3,1
   19418:	00d5a023          	sw	a3,0(a1)
   1941c:	fff806b7          	lui	a3,0xfff80
   19420:	fff68693          	addi	a3,a3,-1 # fff7ffff <_gp+0xfff62a7f>
   19424:	00d7f7b3          	and	a5,a5,a3
   19428:	00879793          	slli	a5,a5,0x8
   1942c:	01875693          	srli	a3,a4,0x18
   19430:	00d7e7b3          	or	a5,a5,a3
   19434:	00871713          	slli	a4,a4,0x8
   19438:	00f5aa23          	sw	a5,20(a1)
   1943c:	00e5a823          	sw	a4,16(a1)
   19440:	00008067          	ret
   19444:	00400793          	li	a5,4
   19448:	00f5a023          	sw	a5,0(a1)
   1944c:	00008067          	ret
   19450:	0005a023          	sw	zero,0(a1)
   19454:	fc9ff06f          	j	1941c <__unpack_d+0xe0>

00019458 <__adddf3>:
   19458:	f9010113          	addi	sp,sp,-112
   1945c:	00810513          	addi	a0,sp,8
   19460:	01810593          	addi	a1,sp,24
   19464:	06112623          	sw	ra,108(sp)
   19468:	00a13427          	fsd	fa0,8(sp)
   1946c:	00c13827          	fsd	fa2,16(sp)
   19470:	ecdff0ef          	jal	1933c <__unpack_d>
   19474:	01010513          	addi	a0,sp,16
   19478:	03010593          	addi	a1,sp,48
   1947c:	ec1ff0ef          	jal	1933c <__unpack_d>
   19480:	03010593          	addi	a1,sp,48
   19484:	04810613          	addi	a2,sp,72
   19488:	01810513          	addi	a0,sp,24
   1948c:	919ff0ef          	jal	18da4 <_fpadd_parts>
   19490:	c65ff0ef          	jal	190f4 <__pack_d>
   19494:	06c12083          	lw	ra,108(sp)
   19498:	07010113          	addi	sp,sp,112
   1949c:	00008067          	ret

000194a0 <__subdf3>:
   194a0:	f9010113          	addi	sp,sp,-112
   194a4:	00810513          	addi	a0,sp,8
   194a8:	01810593          	addi	a1,sp,24
   194ac:	06112623          	sw	ra,108(sp)
   194b0:	00a13427          	fsd	fa0,8(sp)
   194b4:	00c13827          	fsd	fa2,16(sp)
   194b8:	e85ff0ef          	jal	1933c <__unpack_d>
   194bc:	01010513          	addi	a0,sp,16
   194c0:	03010593          	addi	a1,sp,48
   194c4:	e79ff0ef          	jal	1933c <__unpack_d>
   194c8:	03412783          	lw	a5,52(sp)
   194cc:	03010593          	addi	a1,sp,48
   194d0:	04810613          	addi	a2,sp,72
   194d4:	0017c793          	xori	a5,a5,1
   194d8:	01810513          	addi	a0,sp,24
   194dc:	02f12a23          	sw	a5,52(sp)
   194e0:	8c5ff0ef          	jal	18da4 <_fpadd_parts>
   194e4:	c11ff0ef          	jal	190f4 <__pack_d>
   194e8:	06c12083          	lw	ra,108(sp)
   194ec:	07010113          	addi	sp,sp,112
   194f0:	00008067          	ret

000194f4 <__muldf3>:
   194f4:	f9010113          	addi	sp,sp,-112
   194f8:	00810513          	addi	a0,sp,8
   194fc:	01810593          	addi	a1,sp,24
   19500:	06112623          	sw	ra,108(sp)
   19504:	00a13427          	fsd	fa0,8(sp)
   19508:	00c13827          	fsd	fa2,16(sp)
   1950c:	e31ff0ef          	jal	1933c <__unpack_d>
   19510:	01010513          	addi	a0,sp,16
   19514:	03010593          	addi	a1,sp,48
   19518:	e25ff0ef          	jal	1933c <__unpack_d>
   1951c:	01812703          	lw	a4,24(sp)
   19520:	00100793          	li	a5,1
   19524:	02e7e663          	bltu	a5,a4,19550 <__muldf3+0x5c>
   19528:	01c12783          	lw	a5,28(sp)
   1952c:	03412703          	lw	a4,52(sp)
   19530:	01810513          	addi	a0,sp,24
   19534:	40e787b3          	sub	a5,a5,a4
   19538:	00f037b3          	snez	a5,a5
   1953c:	00f12e23          	sw	a5,28(sp)
   19540:	bb5ff0ef          	jal	190f4 <__pack_d>
   19544:	06c12083          	lw	ra,108(sp)
   19548:	07010113          	addi	sp,sp,112
   1954c:	00008067          	ret
   19550:	03012683          	lw	a3,48(sp)
   19554:	02d7e663          	bltu	a5,a3,19580 <__muldf3+0x8c>
   19558:	03412703          	lw	a4,52(sp)
   1955c:	01c12783          	lw	a5,28(sp)
   19560:	03010513          	addi	a0,sp,48
   19564:	40e787b3          	sub	a5,a5,a4
   19568:	00f037b3          	snez	a5,a5
   1956c:	02f12a23          	sw	a5,52(sp)
   19570:	b85ff0ef          	jal	190f4 <__pack_d>
   19574:	06c12083          	lw	ra,108(sp)
   19578:	07010113          	addi	sp,sp,112
   1957c:	00008067          	ret
   19580:	00400793          	li	a5,4
   19584:	00f71c63          	bne	a4,a5,1959c <__muldf3+0xa8>
   19588:	00200793          	li	a5,2
   1958c:	f8f69ee3          	bne	a3,a5,19528 <__muldf3+0x34>
   19590:	0001b537          	lui	a0,0x1b
   19594:	11850513          	addi	a0,a0,280 # 1b118 <__thenan_df>
   19598:	fa9ff06f          	j	19540 <__muldf3+0x4c>
   1959c:	00f69863          	bne	a3,a5,195ac <__muldf3+0xb8>
   195a0:	00200793          	li	a5,2
   195a4:	fef706e3          	beq	a4,a5,19590 <__muldf3+0x9c>
   195a8:	fb1ff06f          	j	19558 <__muldf3+0x64>
   195ac:	00200793          	li	a5,2
   195b0:	f6f70ce3          	beq	a4,a5,19528 <__muldf3+0x34>
   195b4:	faf682e3          	beq	a3,a5,19558 <__muldf3+0x64>
   195b8:	02812783          	lw	a5,40(sp)
   195bc:	02c12883          	lw	a7,44(sp)
   195c0:	04012803          	lw	a6,64(sp)
   195c4:	04412703          	lw	a4,68(sp)
   195c8:	03180633          	mul	a2,a6,a7
   195cc:	02e783b3          	mul	t2,a5,a4
   195d0:	02e7b2b3          	mulhu	t0,a5,a4
   195d4:	00760333          	add	t1,a2,t2
   195d8:	00c33633          	sltu	a2,t1,a2
   195dc:	031835b3          	mulhu	a1,a6,a7
   195e0:	005585b3          	add	a1,a1,t0
   195e4:	00b60633          	add	a2,a2,a1
   195e8:	03170533          	mul	a0,a4,a7
   195ec:	030785b3          	mul	a1,a5,a6
   195f0:	03173733          	mulhu	a4,a4,a7
   195f4:	0307b833          	mulhu	a6,a5,a6
   195f8:	00566663          	bltu	a2,t0,19604 <__muldf3+0x110>
   195fc:	0cc29463          	bne	t0,a2,196c4 <__muldf3+0x1d0>
   19600:	0c737263          	bleu	t2,t1,196c4 <__muldf3+0x1d0>
   19604:	00000793          	li	a5,0
   19608:	00100893          	li	a7,1
   1960c:	010306b3          	add	a3,t1,a6
   19610:	0106f463          	bleu	a6,a3,19618 <__muldf3+0x124>
   19614:	00100793          	li	a5,1
   19618:	00a60533          	add	a0,a2,a0
   1961c:	00c53633          	sltu	a2,a0,a2
   19620:	00f507b3          	add	a5,a0,a5
   19624:	00e60633          	add	a2,a2,a4
   19628:	01160733          	add	a4,a2,a7
   1962c:	00a7b833          	sltu	a6,a5,a0
   19630:	02012603          	lw	a2,32(sp)
   19634:	03812503          	lw	a0,56(sp)
   19638:	03412883          	lw	a7,52(sp)
   1963c:	00e80733          	add	a4,a6,a4
   19640:	00a60533          	add	a0,a2,a0
   19644:	01c12603          	lw	a2,28(sp)
   19648:	200003b7          	lui	t2,0x20000
   1964c:	80000e37          	lui	t3,0x80000
   19650:	411608b3          	sub	a7,a2,a7
   19654:	011038b3          	snez	a7,a7
   19658:	00450613          	addi	a2,a0,4
   1965c:	04c12823          	sw	a2,80(sp)
   19660:	05112623          	sw	a7,76(sp)
   19664:	08776863          	bltu	a4,t2,196f4 <__muldf3+0x200>
   19668:	01f79e93          	slli	t4,a5,0x1f
   1966c:	01f71813          	slli	a6,a4,0x1f
   19670:	0017d513          	srli	a0,a5,0x1
   19674:	00175713          	srli	a4,a4,0x1
   19678:	01f69313          	slli	t1,a3,0x1f
   1967c:	0015d293          	srli	t0,a1,0x1
   19680:	0016d893          	srli	a7,a3,0x1
   19684:	00160613          	addi	a2,a2,1 # 10000001 <_gp+0xffe2a81>
   19688:	000ed663          	bgez	t4,19694 <__muldf3+0x1a0>
   1968c:	005365b3          	or	a1,t1,t0
   19690:	01c8e6b3          	or	a3,a7,t3
   19694:	00a867b3          	or	a5,a6,a0
   19698:	fc7778e3          	bleu	t2,a4,19668 <__muldf3+0x174>
   1969c:	04c12823          	sw	a2,80(sp)
   196a0:	0ff7f513          	andi	a0,a5,255
   196a4:	08000613          	li	a2,128
   196a8:	02c50463          	beq	a0,a2,196d0 <__muldf3+0x1dc>
   196ac:	04f12c23          	sw	a5,88(sp)
   196b0:	00300793          	li	a5,3
   196b4:	04e12e23          	sw	a4,92(sp)
   196b8:	04f12423          	sw	a5,72(sp)
   196bc:	04810513          	addi	a0,sp,72
   196c0:	e81ff06f          	j	19540 <__muldf3+0x4c>
   196c4:	00000793          	li	a5,0
   196c8:	00000893          	li	a7,0
   196cc:	f41ff06f          	j	1960c <__muldf3+0x118>
   196d0:	01779613          	slli	a2,a5,0x17
   196d4:	fc064ce3          	bltz	a2,196ac <__muldf3+0x1b8>
   196d8:	00d5e6b3          	or	a3,a1,a3
   196dc:	fc0688e3          	beqz	a3,196ac <__muldf3+0x1b8>
   196e0:	08078693          	addi	a3,a5,128
   196e4:	00f6b7b3          	sltu	a5,a3,a5
   196e8:	00e78733          	add	a4,a5,a4
   196ec:	f006f793          	andi	a5,a3,-256
   196f0:	fbdff06f          	j	196ac <__muldf3+0x1b8>
   196f4:	10000337          	lui	t1,0x10000
   196f8:	fff30613          	addi	a2,t1,-1 # fffffff <_gp+0xffe2a7f>
   196fc:	00350513          	addi	a0,a0,3
   19700:	fae660e3          	bltu	a2,a4,196a0 <__muldf3+0x1ac>
   19704:	01f7d813          	srli	a6,a5,0x1f
   19708:	00171613          	slli	a2,a4,0x1
   1970c:	00c86633          	or	a2,a6,a2
   19710:	01f5d893          	srli	a7,a1,0x1f
   19714:	00169813          	slli	a6,a3,0x1
   19718:	00050293          	mv	t0,a0
   1971c:	00179793          	slli	a5,a5,0x1
   19720:	00060713          	mv	a4,a2
   19724:	0006d463          	bgez	a3,1972c <__muldf3+0x238>
   19728:	0017e793          	ori	a5,a5,1
   1972c:	00159593          	slli	a1,a1,0x1
   19730:	0108e6b3          	or	a3,a7,a6
   19734:	fff50513          	addi	a0,a0,-1
   19738:	fc6666e3          	bltu	a2,t1,19704 <__muldf3+0x210>
   1973c:	04512823          	sw	t0,80(sp)
   19740:	f61ff06f          	j	196a0 <__muldf3+0x1ac>

00019744 <__divdf3>:
   19744:	fb010113          	addi	sp,sp,-80
   19748:	00010513          	mv	a0,sp
   1974c:	01010593          	addi	a1,sp,16
   19750:	04112623          	sw	ra,76(sp)
   19754:	00a13027          	fsd	fa0,0(sp)
   19758:	00c13427          	fsd	fa2,8(sp)
   1975c:	be1ff0ef          	jal	1933c <__unpack_d>
   19760:	00810513          	addi	a0,sp,8
   19764:	02810593          	addi	a1,sp,40
   19768:	bd5ff0ef          	jal	1933c <__unpack_d>
   1976c:	01012703          	lw	a4,16(sp)
   19770:	00100793          	li	a5,1
   19774:	00e7ec63          	bltu	a5,a4,1978c <__divdf3+0x48>
   19778:	01010513          	addi	a0,sp,16
   1977c:	979ff0ef          	jal	190f4 <__pack_d>
   19780:	04c12083          	lw	ra,76(sp)
   19784:	05010113          	addi	sp,sp,80
   19788:	00008067          	ret
   1978c:	02812683          	lw	a3,40(sp)
   19790:	02810513          	addi	a0,sp,40
   19794:	fed7f4e3          	bleu	a3,a5,1977c <__divdf3+0x38>
   19798:	01412583          	lw	a1,20(sp)
   1979c:	02c12603          	lw	a2,44(sp)
   197a0:	ffe70793          	addi	a5,a4,-2 # ffffffe <_gp+0xffe2a7e>
   197a4:	ffd7f793          	andi	a5,a5,-3
   197a8:	00c5c633          	xor	a2,a1,a2
   197ac:	00c12a23          	sw	a2,20(sp)
   197b0:	00079a63          	bnez	a5,197c4 <__divdf3+0x80>
   197b4:	fcd712e3          	bne	a4,a3,19778 <__divdf3+0x34>
   197b8:	0001b537          	lui	a0,0x1b
   197bc:	11850513          	addi	a0,a0,280 # 1b118 <__thenan_df>
   197c0:	fbdff06f          	j	1977c <__divdf3+0x38>
   197c4:	00400793          	li	a5,4
   197c8:	0cf68863          	beq	a3,a5,19898 <__divdf3+0x154>
   197cc:	00200713          	li	a4,2
   197d0:	0ee68263          	beq	a3,a4,198b4 <__divdf3+0x170>
   197d4:	01812703          	lw	a4,24(sp)
   197d8:	03012603          	lw	a2,48(sp)
   197dc:	02412783          	lw	a5,36(sp)
   197e0:	03c12883          	lw	a7,60(sp)
   197e4:	40c70633          	sub	a2,a4,a2
   197e8:	00c12c23          	sw	a2,24(sp)
   197ec:	02012683          	lw	a3,32(sp)
   197f0:	03812f03          	lw	t5,56(sp)
   197f4:	0117e663          	bltu	a5,a7,19800 <__divdf3+0xbc>
   197f8:	02f89063          	bne	a7,a5,19818 <__divdf3+0xd4>
   197fc:	01e6fe63          	bleu	t5,a3,19818 <__divdf3+0xd4>
   19800:	01f6d593          	srli	a1,a3,0x1f
   19804:	00179713          	slli	a4,a5,0x1
   19808:	fff60613          	addi	a2,a2,-1
   1980c:	00e5e7b3          	or	a5,a1,a4
   19810:	00169693          	slli	a3,a3,0x1
   19814:	00c12c23          	sw	a2,24(sp)
   19818:	03d00513          	li	a0,61
   1981c:	00000813          	li	a6,0
   19820:	100005b7          	lui	a1,0x10000
   19824:	00000393          	li	t2,0
   19828:	00000e13          	li	t3,0
   1982c:	01f59313          	slli	t1,a1,0x1f
   19830:	00185293          	srli	t0,a6,0x1
   19834:	fff50513          	addi	a0,a0,-1
   19838:	0317e463          	bltu	a5,a7,19860 <__divdf3+0x11c>
   1983c:	41e68733          	sub	a4,a3,t5
   19840:	00e6b633          	sltu	a2,a3,a4
   19844:	41178eb3          	sub	t4,a5,a7
   19848:	00f89463          	bne	a7,a5,19850 <__divdf3+0x10c>
   1984c:	01e6ea63          	bltu	a3,t5,19860 <__divdf3+0x11c>
   19850:	00070693          	mv	a3,a4
   19854:	40ce87b3          	sub	a5,t4,a2
   19858:	0103e3b3          	or	t2,t2,a6
   1985c:	00be6e33          	or	t3,t3,a1
   19860:	01f6d613          	srli	a2,a3,0x1f
   19864:	00179713          	slli	a4,a5,0x1
   19868:	00536833          	or	a6,t1,t0
   1986c:	0015d593          	srli	a1,a1,0x1
   19870:	00e667b3          	or	a5,a2,a4
   19874:	00169693          	slli	a3,a3,0x1
   19878:	fa051ae3          	bnez	a0,1982c <__divdf3+0xe8>
   1987c:	0ff3f613          	andi	a2,t2,255
   19880:	08000713          	li	a4,128
   19884:	02e60c63          	beq	a2,a4,198bc <__divdf3+0x178>
   19888:	02712023          	sw	t2,32(sp)
   1988c:	03c12223          	sw	t3,36(sp)
   19890:	01010513          	addi	a0,sp,16
   19894:	ee9ff06f          	j	1977c <__divdf3+0x38>
   19898:	00000713          	li	a4,0
   1989c:	00000793          	li	a5,0
   198a0:	02e12023          	sw	a4,32(sp)
   198a4:	02f12223          	sw	a5,36(sp)
   198a8:	00012c23          	sw	zero,24(sp)
   198ac:	01010513          	addi	a0,sp,16
   198b0:	ecdff06f          	j	1977c <__divdf3+0x38>
   198b4:	00f12823          	sw	a5,16(sp)
   198b8:	ec1ff06f          	j	19778 <__divdf3+0x34>
   198bc:	01739713          	slli	a4,t2,0x17
   198c0:	fc0744e3          	bltz	a4,19888 <__divdf3+0x144>
   198c4:	00f6e7b3          	or	a5,a3,a5
   198c8:	fc0780e3          	beqz	a5,19888 <__divdf3+0x144>
   198cc:	08038793          	addi	a5,t2,128 # 20000080 <_gp+0x1ffe2b00>
   198d0:	0077b3b3          	sltu	t2,a5,t2
   198d4:	01c38e33          	add	t3,t2,t3
   198d8:	f007f393          	andi	t2,a5,-256
   198dc:	fadff06f          	j	19888 <__divdf3+0x144>

000198e0 <__fpcmp_parts_d>:
   198e0:	00052703          	lw	a4,0(a0)
   198e4:	00100793          	li	a5,1
   198e8:	00050613          	mv	a2,a0
   198ec:	08e7f263          	bleu	a4,a5,19970 <__fpcmp_parts_d+0x90>
   198f0:	0005a683          	lw	a3,0(a1) # 10000000 <_gp+0xffe2a80>
   198f4:	00078513          	mv	a0,a5
   198f8:	04d7f263          	bleu	a3,a5,1993c <__fpcmp_parts_d+0x5c>
   198fc:	00400793          	li	a5,4
   19900:	04f70c63          	beq	a4,a5,19958 <__fpcmp_parts_d+0x78>
   19904:	04f68063          	beq	a3,a5,19944 <__fpcmp_parts_d+0x64>
   19908:	00200793          	li	a5,2
   1990c:	02f70a63          	beq	a4,a5,19940 <__fpcmp_parts_d+0x60>
   19910:	04f68663          	beq	a3,a5,1995c <__fpcmp_parts_d+0x7c>
   19914:	00462783          	lw	a5,4(a2)
   19918:	0045a703          	lw	a4,4(a1)
   1991c:	04e78e63          	beq	a5,a4,19978 <__fpcmp_parts_d+0x98>
   19920:	00f03533          	snez	a0,a5
   19924:	40a00533          	neg	a0,a0
   19928:	00156513          	ori	a0,a0,1
   1992c:	00008067          	ret
   19930:	00e69463          	bne	a3,a4,19938 <__fpcmp_parts_d+0x58>
   19934:	06b66a63          	bltu	a2,a1,199a8 <__fpcmp_parts_d+0xc8>
   19938:	00000513          	li	a0,0
   1993c:	00008067          	ret
   19940:	fee68ce3          	beq	a3,a4,19938 <__fpcmp_parts_d+0x58>
   19944:	0045a503          	lw	a0,4(a1)
   19948:	00153513          	seqz	a0,a0
   1994c:	40a00533          	neg	a0,a0
   19950:	00156513          	ori	a0,a0,1
   19954:	00008067          	ret
   19958:	06e68063          	beq	a3,a4,199b8 <__fpcmp_parts_d+0xd8>
   1995c:	00462503          	lw	a0,4(a2)
   19960:	00a03533          	snez	a0,a0
   19964:	40a00533          	neg	a0,a0
   19968:	00156513          	ori	a0,a0,1
   1996c:	00008067          	ret
   19970:	00078513          	mv	a0,a5
   19974:	00008067          	ret
   19978:	00862683          	lw	a3,8(a2)
   1997c:	0085a703          	lw	a4,8(a1)
   19980:	fad740e3          	blt	a4,a3,19920 <__fpcmp_parts_d+0x40>
   19984:	02e6c263          	blt	a3,a4,199a8 <__fpcmp_parts_d+0xc8>
   19988:	01462703          	lw	a4,20(a2)
   1998c:	0145a683          	lw	a3,20(a1)
   19990:	01062603          	lw	a2,16(a2)
   19994:	0105a583          	lw	a1,16(a1)
   19998:	f8e6e4e3          	bltu	a3,a4,19920 <__fpcmp_parts_d+0x40>
   1999c:	00d71463          	bne	a4,a3,199a4 <__fpcmp_parts_d+0xc4>
   199a0:	f8c5e0e3          	bltu	a1,a2,19920 <__fpcmp_parts_d+0x40>
   199a4:	f8d776e3          	bleu	a3,a4,19930 <__fpcmp_parts_d+0x50>
   199a8:	0017b513          	seqz	a0,a5
   199ac:	40a00533          	neg	a0,a0
   199b0:	00156513          	ori	a0,a0,1
   199b4:	00008067          	ret
   199b8:	0045a783          	lw	a5,4(a1)
   199bc:	00462503          	lw	a0,4(a2)
   199c0:	40a78533          	sub	a0,a5,a0
   199c4:	00008067          	ret

000199c8 <__cmpdf2>:
   199c8:	fb010113          	addi	sp,sp,-80
   199cc:	00010513          	mv	a0,sp
   199d0:	01010593          	addi	a1,sp,16
   199d4:	04112623          	sw	ra,76(sp)
   199d8:	00a13027          	fsd	fa0,0(sp)
   199dc:	00c13427          	fsd	fa2,8(sp)
   199e0:	95dff0ef          	jal	1933c <__unpack_d>
   199e4:	00810513          	addi	a0,sp,8
   199e8:	02810593          	addi	a1,sp,40
   199ec:	951ff0ef          	jal	1933c <__unpack_d>
   199f0:	01010513          	addi	a0,sp,16
   199f4:	02810593          	addi	a1,sp,40
   199f8:	ee9ff0ef          	jal	198e0 <__fpcmp_parts_d>
   199fc:	04c12083          	lw	ra,76(sp)
   19a00:	05010113          	addi	sp,sp,80
   19a04:	00008067          	ret

00019a08 <__eqdf2>:
   19a08:	fb010113          	addi	sp,sp,-80
   19a0c:	00010513          	mv	a0,sp
   19a10:	01010593          	addi	a1,sp,16
   19a14:	04112623          	sw	ra,76(sp)
   19a18:	00a13027          	fsd	fa0,0(sp)
   19a1c:	00c13427          	fsd	fa2,8(sp)
   19a20:	91dff0ef          	jal	1933c <__unpack_d>
   19a24:	00810513          	addi	a0,sp,8
   19a28:	02810593          	addi	a1,sp,40
   19a2c:	911ff0ef          	jal	1933c <__unpack_d>
   19a30:	01012783          	lw	a5,16(sp)
   19a34:	00100513          	li	a0,1
   19a38:	00f57c63          	bleu	a5,a0,19a50 <__eqdf2+0x48>
   19a3c:	02812783          	lw	a5,40(sp)
   19a40:	00f57863          	bleu	a5,a0,19a50 <__eqdf2+0x48>
   19a44:	01010513          	addi	a0,sp,16
   19a48:	02810593          	addi	a1,sp,40
   19a4c:	e95ff0ef          	jal	198e0 <__fpcmp_parts_d>
   19a50:	04c12083          	lw	ra,76(sp)
   19a54:	05010113          	addi	sp,sp,80
   19a58:	00008067          	ret

00019a5c <__nedf2>:
   19a5c:	fb010113          	addi	sp,sp,-80
   19a60:	00010513          	mv	a0,sp
   19a64:	01010593          	addi	a1,sp,16
   19a68:	04112623          	sw	ra,76(sp)
   19a6c:	00a13027          	fsd	fa0,0(sp)
   19a70:	00c13427          	fsd	fa2,8(sp)
   19a74:	8c9ff0ef          	jal	1933c <__unpack_d>
   19a78:	00810513          	addi	a0,sp,8
   19a7c:	02810593          	addi	a1,sp,40
   19a80:	8bdff0ef          	jal	1933c <__unpack_d>
   19a84:	01012783          	lw	a5,16(sp)
   19a88:	00100513          	li	a0,1
   19a8c:	00f57c63          	bleu	a5,a0,19aa4 <__nedf2+0x48>
   19a90:	02812783          	lw	a5,40(sp)
   19a94:	00f57863          	bleu	a5,a0,19aa4 <__nedf2+0x48>
   19a98:	01010513          	addi	a0,sp,16
   19a9c:	02810593          	addi	a1,sp,40
   19aa0:	e41ff0ef          	jal	198e0 <__fpcmp_parts_d>
   19aa4:	04c12083          	lw	ra,76(sp)
   19aa8:	05010113          	addi	sp,sp,80
   19aac:	00008067          	ret

00019ab0 <__gtdf2>:
   19ab0:	fb010113          	addi	sp,sp,-80
   19ab4:	00010513          	mv	a0,sp
   19ab8:	01010593          	addi	a1,sp,16
   19abc:	04112623          	sw	ra,76(sp)
   19ac0:	00a13027          	fsd	fa0,0(sp)
   19ac4:	00c13427          	fsd	fa2,8(sp)
   19ac8:	875ff0ef          	jal	1933c <__unpack_d>
   19acc:	00810513          	addi	a0,sp,8
   19ad0:	02810593          	addi	a1,sp,40
   19ad4:	869ff0ef          	jal	1933c <__unpack_d>
   19ad8:	01012703          	lw	a4,16(sp)
   19adc:	00100793          	li	a5,1
   19ae0:	fff00513          	li	a0,-1
   19ae4:	00e7fc63          	bleu	a4,a5,19afc <__gtdf2+0x4c>
   19ae8:	02812703          	lw	a4,40(sp)
   19aec:	00e7f863          	bleu	a4,a5,19afc <__gtdf2+0x4c>
   19af0:	01010513          	addi	a0,sp,16
   19af4:	02810593          	addi	a1,sp,40
   19af8:	de9ff0ef          	jal	198e0 <__fpcmp_parts_d>
   19afc:	04c12083          	lw	ra,76(sp)
   19b00:	05010113          	addi	sp,sp,80
   19b04:	00008067          	ret

00019b08 <__gedf2>:
   19b08:	fb010113          	addi	sp,sp,-80
   19b0c:	00010513          	mv	a0,sp
   19b10:	01010593          	addi	a1,sp,16
   19b14:	04112623          	sw	ra,76(sp)
   19b18:	00a13027          	fsd	fa0,0(sp)
   19b1c:	00c13427          	fsd	fa2,8(sp)
   19b20:	81dff0ef          	jal	1933c <__unpack_d>
   19b24:	00810513          	addi	a0,sp,8
   19b28:	02810593          	addi	a1,sp,40
   19b2c:	811ff0ef          	jal	1933c <__unpack_d>
   19b30:	01012703          	lw	a4,16(sp)
   19b34:	00100793          	li	a5,1
   19b38:	fff00513          	li	a0,-1
   19b3c:	00e7fc63          	bleu	a4,a5,19b54 <__gedf2+0x4c>
   19b40:	02812703          	lw	a4,40(sp)
   19b44:	00e7f863          	bleu	a4,a5,19b54 <__gedf2+0x4c>
   19b48:	01010513          	addi	a0,sp,16
   19b4c:	02810593          	addi	a1,sp,40
   19b50:	d91ff0ef          	jal	198e0 <__fpcmp_parts_d>
   19b54:	04c12083          	lw	ra,76(sp)
   19b58:	05010113          	addi	sp,sp,80
   19b5c:	00008067          	ret

00019b60 <__ltdf2>:
   19b60:	fb010113          	addi	sp,sp,-80
   19b64:	00010513          	mv	a0,sp
   19b68:	01010593          	addi	a1,sp,16
   19b6c:	04112623          	sw	ra,76(sp)
   19b70:	00a13027          	fsd	fa0,0(sp)
   19b74:	00c13427          	fsd	fa2,8(sp)
   19b78:	fc4ff0ef          	jal	1933c <__unpack_d>
   19b7c:	00810513          	addi	a0,sp,8
   19b80:	02810593          	addi	a1,sp,40
   19b84:	fb8ff0ef          	jal	1933c <__unpack_d>
   19b88:	01012783          	lw	a5,16(sp)
   19b8c:	00100513          	li	a0,1
   19b90:	00f57c63          	bleu	a5,a0,19ba8 <__ltdf2+0x48>
   19b94:	02812783          	lw	a5,40(sp)
   19b98:	00f57863          	bleu	a5,a0,19ba8 <__ltdf2+0x48>
   19b9c:	01010513          	addi	a0,sp,16
   19ba0:	02810593          	addi	a1,sp,40
   19ba4:	d3dff0ef          	jal	198e0 <__fpcmp_parts_d>
   19ba8:	04c12083          	lw	ra,76(sp)
   19bac:	05010113          	addi	sp,sp,80
   19bb0:	00008067          	ret

00019bb4 <__ledf2>:
   19bb4:	fb010113          	addi	sp,sp,-80
   19bb8:	00010513          	mv	a0,sp
   19bbc:	01010593          	addi	a1,sp,16
   19bc0:	04112623          	sw	ra,76(sp)
   19bc4:	00a13027          	fsd	fa0,0(sp)
   19bc8:	00c13427          	fsd	fa2,8(sp)
   19bcc:	f70ff0ef          	jal	1933c <__unpack_d>
   19bd0:	00810513          	addi	a0,sp,8
   19bd4:	02810593          	addi	a1,sp,40
   19bd8:	f64ff0ef          	jal	1933c <__unpack_d>
   19bdc:	01012783          	lw	a5,16(sp)
   19be0:	00100513          	li	a0,1
   19be4:	00f57c63          	bleu	a5,a0,19bfc <__ledf2+0x48>
   19be8:	02812783          	lw	a5,40(sp)
   19bec:	00f57863          	bleu	a5,a0,19bfc <__ledf2+0x48>
   19bf0:	01010513          	addi	a0,sp,16
   19bf4:	02810593          	addi	a1,sp,40
   19bf8:	ce9ff0ef          	jal	198e0 <__fpcmp_parts_d>
   19bfc:	04c12083          	lw	ra,76(sp)
   19c00:	05010113          	addi	sp,sp,80
   19c04:	00008067          	ret

00019c08 <__unorddf2>:
   19c08:	fb010113          	addi	sp,sp,-80
   19c0c:	00010513          	mv	a0,sp
   19c10:	01010593          	addi	a1,sp,16
   19c14:	04112623          	sw	ra,76(sp)
   19c18:	00a13027          	fsd	fa0,0(sp)
   19c1c:	00c13427          	fsd	fa2,8(sp)
   19c20:	f1cff0ef          	jal	1933c <__unpack_d>
   19c24:	00810513          	addi	a0,sp,8
   19c28:	02810593          	addi	a1,sp,40
   19c2c:	f10ff0ef          	jal	1933c <__unpack_d>
   19c30:	01012783          	lw	a5,16(sp)
   19c34:	00100513          	li	a0,1
   19c38:	00f57663          	bleu	a5,a0,19c44 <__unorddf2+0x3c>
   19c3c:	02812503          	lw	a0,40(sp)
   19c40:	00253513          	sltiu	a0,a0,2
   19c44:	04c12083          	lw	ra,76(sp)
   19c48:	05010113          	addi	sp,sp,80
   19c4c:	00008067          	ret

00019c50 <__floatsidf>:
   19c50:	fd010113          	addi	sp,sp,-48
   19c54:	01f55793          	srli	a5,a0,0x1f
   19c58:	00300713          	li	a4,3
   19c5c:	02112623          	sw	ra,44(sp)
   19c60:	02812423          	sw	s0,40(sp)
   19c64:	00e12423          	sw	a4,8(sp)
   19c68:	00f12623          	sw	a5,12(sp)
   19c6c:	02051263          	bnez	a0,19c90 <__floatsidf+0x40>
   19c70:	00200793          	li	a5,2
   19c74:	00f12423          	sw	a5,8(sp)
   19c78:	00810513          	addi	a0,sp,8
   19c7c:	c78ff0ef          	jal	190f4 <__pack_d>
   19c80:	02c12083          	lw	ra,44(sp)
   19c84:	02812403          	lw	s0,40(sp)
   19c88:	03010113          	addi	sp,sp,48
   19c8c:	00008067          	ret
   19c90:	02079c63          	bnez	a5,19cc8 <__floatsidf+0x78>
   19c94:	00050413          	mv	s0,a0
   19c98:	00040513          	mv	a0,s0
   19c9c:	274000ef          	jal	19f10 <__clzsi2>
   19ca0:	01d50793          	addi	a5,a0,29
   19ca4:	01a79713          	slli	a4,a5,0x1a
   19ca8:	04075063          	bgez	a4,19ce8 <__floatsidf+0x98>
   19cac:	00f41433          	sll	s0,s0,a5
   19cb0:	00812e23          	sw	s0,28(sp)
   19cb4:	00012c23          	sw	zero,24(sp)
   19cb8:	01f00793          	li	a5,31
   19cbc:	40a78533          	sub	a0,a5,a0
   19cc0:	00a12823          	sw	a0,16(sp)
   19cc4:	fb5ff06f          	j	19c78 <__floatsidf+0x28>
   19cc8:	800007b7          	lui	a5,0x80000
   19ccc:	02f50c63          	beq	a0,a5,19d04 <__floatsidf+0xb4>
   19cd0:	40a00433          	neg	s0,a0
   19cd4:	00040513          	mv	a0,s0
   19cd8:	238000ef          	jal	19f10 <__clzsi2>
   19cdc:	01d50793          	addi	a5,a0,29
   19ce0:	01a79713          	slli	a4,a5,0x1a
   19ce4:	fc0744e3          	bltz	a4,19cac <__floatsidf+0x5c>
   19ce8:	00145713          	srli	a4,s0,0x1
   19cec:	fff7c693          	not	a3,a5
   19cf0:	00d75733          	srl	a4,a4,a3
   19cf4:	00f41433          	sll	s0,s0,a5
   19cf8:	00e12e23          	sw	a4,28(sp)
   19cfc:	00812c23          	sw	s0,24(sp)
   19d00:	fb9ff06f          	j	19cb8 <__floatsidf+0x68>
   19d04:	8681b507          	fld	fa0,-1944(gp) # 1cde8 <__wctomb+0x50>
   19d08:	f79ff06f          	j	19c80 <__floatsidf+0x30>

00019d0c <__floatunsidf>:
   19d0c:	fd010113          	addi	sp,sp,-48
   19d10:	02812423          	sw	s0,40(sp)
   19d14:	02112623          	sw	ra,44(sp)
   19d18:	00050413          	mv	s0,a0
   19d1c:	00012623          	sw	zero,12(sp)
   19d20:	06050463          	beqz	a0,19d88 <__floatunsidf+0x7c>
   19d24:	00300793          	li	a5,3
   19d28:	00f12423          	sw	a5,8(sp)
   19d2c:	1e4000ef          	jal	19f10 <__clzsi2>
   19d30:	01d50793          	addi	a5,a0,29
   19d34:	01a79713          	slli	a4,a5,0x1a
   19d38:	02075a63          	bgez	a4,19d6c <__floatunsidf+0x60>
   19d3c:	00f41433          	sll	s0,s0,a5
   19d40:	00812e23          	sw	s0,28(sp)
   19d44:	00012c23          	sw	zero,24(sp)
   19d48:	01f00793          	li	a5,31
   19d4c:	40a78533          	sub	a0,a5,a0
   19d50:	00a12823          	sw	a0,16(sp)
   19d54:	00810513          	addi	a0,sp,8
   19d58:	b9cff0ef          	jal	190f4 <__pack_d>
   19d5c:	02c12083          	lw	ra,44(sp)
   19d60:	02812403          	lw	s0,40(sp)
   19d64:	03010113          	addi	sp,sp,48
   19d68:	00008067          	ret
   19d6c:	00145713          	srli	a4,s0,0x1
   19d70:	fff7c693          	not	a3,a5
   19d74:	00d75733          	srl	a4,a4,a3
   19d78:	00f41433          	sll	s0,s0,a5
   19d7c:	00e12e23          	sw	a4,28(sp)
   19d80:	00812c23          	sw	s0,24(sp)
   19d84:	fc5ff06f          	j	19d48 <__floatunsidf+0x3c>
   19d88:	00200793          	li	a5,2
   19d8c:	00f12423          	sw	a5,8(sp)
   19d90:	fc5ff06f          	j	19d54 <__floatunsidf+0x48>

00019d94 <__fixdfsi>:
   19d94:	fd010113          	addi	sp,sp,-48
   19d98:	00010513          	mv	a0,sp
   19d9c:	00810593          	addi	a1,sp,8
   19da0:	02112623          	sw	ra,44(sp)
   19da4:	00a13027          	fsd	fa0,0(sp)
   19da8:	d94ff0ef          	jal	1933c <__unpack_d>
   19dac:	00812783          	lw	a5,8(sp)
   19db0:	00200713          	li	a4,2
   19db4:	06f77863          	bleu	a5,a4,19e24 <__fixdfsi+0x90>
   19db8:	00400713          	li	a4,4
   19dbc:	00e78a63          	beq	a5,a4,19dd0 <__fixdfsi+0x3c>
   19dc0:	01012503          	lw	a0,16(sp)
   19dc4:	06054063          	bltz	a0,19e24 <__fixdfsi+0x90>
   19dc8:	01e00793          	li	a5,30
   19dcc:	02a7d063          	ble	a0,a5,19dec <__fixdfsi+0x58>
   19dd0:	00c12783          	lw	a5,12(sp)
   19dd4:	80000537          	lui	a0,0x80000
   19dd8:	00079463          	bnez	a5,19de0 <__fixdfsi+0x4c>
   19ddc:	fff54513          	not	a0,a0
   19de0:	02c12083          	lw	ra,44(sp)
   19de4:	03010113          	addi	sp,sp,48
   19de8:	00008067          	ret
   19dec:	03c00793          	li	a5,60
   19df0:	40a787b3          	sub	a5,a5,a0
   19df4:	00c12503          	lw	a0,12(sp)
   19df8:	01a79693          	slli	a3,a5,0x1a
   19dfc:	00a03733          	snez	a4,a0
   19e00:	40e00533          	neg	a0,a4
   19e04:	0206d863          	bgez	a3,19e34 <__fixdfsi+0xa0>
   19e08:	01c12683          	lw	a3,28(sp)
   19e0c:	00f6d7b3          	srl	a5,a3,a5
   19e10:	02c12083          	lw	ra,44(sp)
   19e14:	00f547b3          	xor	a5,a0,a5
   19e18:	00e78533          	add	a0,a5,a4
   19e1c:	03010113          	addi	sp,sp,48
   19e20:	00008067          	ret
   19e24:	02c12083          	lw	ra,44(sp)
   19e28:	00000513          	li	a0,0
   19e2c:	03010113          	addi	sp,sp,48
   19e30:	00008067          	ret
   19e34:	01c12683          	lw	a3,28(sp)
   19e38:	fff7c613          	not	a2,a5
   19e3c:	00169693          	slli	a3,a3,0x1
   19e40:	00c696b3          	sll	a3,a3,a2
   19e44:	01812603          	lw	a2,24(sp)
   19e48:	00f657b3          	srl	a5,a2,a5
   19e4c:	00f6e7b3          	or	a5,a3,a5
   19e50:	fc1ff06f          	j	19e10 <__fixdfsi+0x7c>

00019e54 <__negdf2>:
   19e54:	fd010113          	addi	sp,sp,-48
   19e58:	00010513          	mv	a0,sp
   19e5c:	00810593          	addi	a1,sp,8
   19e60:	02112623          	sw	ra,44(sp)
   19e64:	00a13027          	fsd	fa0,0(sp)
   19e68:	cd4ff0ef          	jal	1933c <__unpack_d>
   19e6c:	00c12783          	lw	a5,12(sp)
   19e70:	00810513          	addi	a0,sp,8
   19e74:	0017b793          	seqz	a5,a5
   19e78:	00f12623          	sw	a5,12(sp)
   19e7c:	a78ff0ef          	jal	190f4 <__pack_d>
   19e80:	02c12083          	lw	ra,44(sp)
   19e84:	03010113          	addi	sp,sp,48
   19e88:	00008067          	ret

00019e8c <__make_dp>:
   19e8c:	fd010113          	addi	sp,sp,-48
   19e90:	00a12423          	sw	a0,8(sp)
   19e94:	00810513          	addi	a0,sp,8
   19e98:	02112623          	sw	ra,44(sp)
   19e9c:	00b12623          	sw	a1,12(sp)
   19ea0:	00c12823          	sw	a2,16(sp)
   19ea4:	00e12c23          	sw	a4,24(sp)
   19ea8:	00f12e23          	sw	a5,28(sp)
   19eac:	a48ff0ef          	jal	190f4 <__pack_d>
   19eb0:	02c12083          	lw	ra,44(sp)
   19eb4:	03010113          	addi	sp,sp,48
   19eb8:	00008067          	ret

00019ebc <__truncdfsf2>:
   19ebc:	fd010113          	addi	sp,sp,-48
   19ec0:	00010513          	mv	a0,sp
   19ec4:	00810593          	addi	a1,sp,8
   19ec8:	02112623          	sw	ra,44(sp)
   19ecc:	00a13027          	fsd	fa0,0(sp)
   19ed0:	c6cff0ef          	jal	1933c <__unpack_d>
   19ed4:	01812703          	lw	a4,24(sp)
   19ed8:	01c12683          	lw	a3,28(sp)
   19edc:	01e75793          	srli	a5,a4,0x1e
   19ee0:	00269693          	slli	a3,a3,0x2
   19ee4:	00f6e6b3          	or	a3,a3,a5
   19ee8:	00271793          	slli	a5,a4,0x2
   19eec:	00078463          	beqz	a5,19ef4 <__truncdfsf2+0x38>
   19ef0:	0016e693          	ori	a3,a3,1
   19ef4:	00812503          	lw	a0,8(sp)
   19ef8:	00c12583          	lw	a1,12(sp)
   19efc:	01012603          	lw	a2,16(sp)
   19f00:	535000ef          	jal	1ac34 <__make_fp>
   19f04:	02c12083          	lw	ra,44(sp)
   19f08:	03010113          	addi	sp,sp,48
   19f0c:	00008067          	ret

00019f10 <__clzsi2>:
   19f10:	000107b7          	lui	a5,0x10
   19f14:	02f57c63          	bleu	a5,a0,19f4c <__clzsi2+0x3c>
   19f18:	0ff00693          	li	a3,255
   19f1c:	00000793          	li	a5,0
   19f20:	02000713          	li	a4,32
   19f24:	00a6f663          	bleu	a0,a3,19f30 <__clzsi2+0x20>
   19f28:	00800793          	li	a5,8
   19f2c:	01800713          	li	a4,24
   19f30:	00f55533          	srl	a0,a0,a5
   19f34:	0001b7b7          	lui	a5,0x1b
   19f38:	14078793          	addi	a5,a5,320 # 1b140 <__clz_tab>
   19f3c:	00f507b3          	add	a5,a0,a5
   19f40:	0007c503          	lbu	a0,0(a5)
   19f44:	40a70533          	sub	a0,a4,a0
   19f48:	00008067          	ret
   19f4c:	01000793          	li	a5,16
   19f50:	010006b7          	lui	a3,0x1000
   19f54:	00078713          	mv	a4,a5
   19f58:	fcd56ce3          	bltu	a0,a3,19f30 <__clzsi2+0x20>
   19f5c:	01800793          	li	a5,24
   19f60:	00f55533          	srl	a0,a0,a5
   19f64:	0001b7b7          	lui	a5,0x1b
   19f68:	14078793          	addi	a5,a5,320 # 1b140 <__clz_tab>
   19f6c:	00f507b3          	add	a5,a0,a5
   19f70:	0007c503          	lbu	a0,0(a5)
   19f74:	00800713          	li	a4,8
   19f78:	40a70533          	sub	a0,a4,a0
   19f7c:	00008067          	ret

00019f80 <_fpadd_parts>:
   19f80:	00052783          	lw	a5,0(a0) # 80000000 <_gp+0x7ffe2a80>
   19f84:	00100713          	li	a4,1
   19f88:	0ef77463          	bleu	a5,a4,1a070 <_fpadd_parts+0xf0>
   19f8c:	0005a683          	lw	a3,0(a1)
   19f90:	0cd77e63          	bleu	a3,a4,1a06c <_fpadd_parts+0xec>
   19f94:	00400813          	li	a6,4
   19f98:	15078c63          	beq	a5,a6,1a0f0 <_fpadd_parts+0x170>
   19f9c:	0d068863          	beq	a3,a6,1a06c <_fpadd_parts+0xec>
   19fa0:	00200813          	li	a6,2
   19fa4:	11068663          	beq	a3,a6,1a0b0 <_fpadd_parts+0x130>
   19fa8:	0d078263          	beq	a5,a6,1a06c <_fpadd_parts+0xec>
   19fac:	00852303          	lw	t1,8(a0)
   19fb0:	0085a783          	lw	a5,8(a1)
   19fb4:	01f00693          	li	a3,31
   19fb8:	00c52383          	lw	t2,12(a0)
   19fbc:	40f30833          	sub	a6,t1,a5
   19fc0:	41f85293          	srai	t0,a6,0x1f
   19fc4:	0102c8b3          	xor	a7,t0,a6
   19fc8:	405888b3          	sub	a7,a7,t0
   19fcc:	00c5a283          	lw	t0,12(a1)
   19fd0:	0b16d263          	ble	a7,a3,1a074 <_fpadd_parts+0xf4>
   19fd4:	1067ca63          	blt	a5,t1,1a0e8 <_fpadd_parts+0x168>
   19fd8:	00078313          	mv	t1,a5
   19fdc:	00000393          	li	t2,0
   19fe0:	00452703          	lw	a4,4(a0)
   19fe4:	0045a783          	lw	a5,4(a1)
   19fe8:	0af70a63          	beq	a4,a5,1a09c <_fpadd_parts+0x11c>
   19fec:	405387b3          	sub	a5,t2,t0
   19ff0:	00070463          	beqz	a4,19ff8 <_fpadd_parts+0x78>
   19ff4:	407287b3          	sub	a5,t0,t2
   19ff8:	1007ca63          	bltz	a5,1a10c <_fpadd_parts+0x18c>
   19ffc:	00062223          	sw	zero,4(a2)
   1a000:	00662423          	sw	t1,8(a2)
   1a004:	00f62623          	sw	a5,12(a2)
   1a008:	400005b7          	lui	a1,0x40000
   1a00c:	fff78713          	addi	a4,a5,-1
   1a010:	ffe58593          	addi	a1,a1,-2 # 3ffffffe <_gp+0x3ffe2a7e>
   1a014:	02e5e463          	bltu	a1,a4,1a03c <_fpadd_parts+0xbc>
   1a018:	00862703          	lw	a4,8(a2)
   1a01c:	fff70713          	addi	a4,a4,-1
   1a020:	00179793          	slli	a5,a5,0x1
   1a024:	fff78693          	addi	a3,a5,-1
   1a028:	00070513          	mv	a0,a4
   1a02c:	fff70713          	addi	a4,a4,-1
   1a030:	fed5f8e3          	bleu	a3,a1,1a020 <_fpadd_parts+0xa0>
   1a034:	00f62623          	sw	a5,12(a2)
   1a038:	00a62423          	sw	a0,8(a2)
   1a03c:	00300713          	li	a4,3
   1a040:	00e62023          	sw	a4,0(a2)
   1a044:	00060513          	mv	a0,a2
   1a048:	0207d463          	bgez	a5,1a070 <_fpadd_parts+0xf0>
   1a04c:	00862703          	lw	a4,8(a2)
   1a050:	0017f693          	andi	a3,a5,1
   1a054:	0017d793          	srli	a5,a5,0x1
   1a058:	00f6e7b3          	or	a5,a3,a5
   1a05c:	00170713          	addi	a4,a4,1
   1a060:	00f62623          	sw	a5,12(a2)
   1a064:	00e62423          	sw	a4,8(a2)
   1a068:	00008067          	ret
   1a06c:	00058513          	mv	a0,a1
   1a070:	00008067          	ret
   1a074:	0b005863          	blez	a6,1a124 <_fpadd_parts+0x1a4>
   1a078:	011716b3          	sll	a3,a4,a7
   1a07c:	fff68693          	addi	a3,a3,-1 # ffffff <_gp+0xfe2a7f>
   1a080:	0056f6b3          	and	a3,a3,t0
   1a084:	00d03733          	snez	a4,a3
   1a088:	0112d2b3          	srl	t0,t0,a7
   1a08c:	005762b3          	or	t0,a4,t0
   1a090:	0045a783          	lw	a5,4(a1)
   1a094:	00452703          	lw	a4,4(a0)
   1a098:	f4f71ae3          	bne	a4,a5,19fec <_fpadd_parts+0x6c>
   1a09c:	007287b3          	add	a5,t0,t2
   1a0a0:	00e62223          	sw	a4,4(a2)
   1a0a4:	00662423          	sw	t1,8(a2)
   1a0a8:	00f62623          	sw	a5,12(a2)
   1a0ac:	f91ff06f          	j	1a03c <_fpadd_parts+0xbc>
   1a0b0:	fcd790e3          	bne	a5,a3,1a070 <_fpadd_parts+0xf0>
   1a0b4:	00452703          	lw	a4,4(a0)
   1a0b8:	00852803          	lw	a6,8(a0)
   1a0bc:	00c52683          	lw	a3,12(a0)
   1a0c0:	00e62223          	sw	a4,4(a2)
   1a0c4:	00f62023          	sw	a5,0(a2)
   1a0c8:	00452783          	lw	a5,4(a0)
   1a0cc:	0045a703          	lw	a4,4(a1)
   1a0d0:	00060513          	mv	a0,a2
   1a0d4:	01062423          	sw	a6,8(a2)
   1a0d8:	00f777b3          	and	a5,a4,a5
   1a0dc:	00d62623          	sw	a3,12(a2)
   1a0e0:	00f62223          	sw	a5,4(a2)
   1a0e4:	00008067          	ret
   1a0e8:	00000293          	li	t0,0
   1a0ec:	ef5ff06f          	j	19fe0 <_fpadd_parts+0x60>
   1a0f0:	f8f690e3          	bne	a3,a5,1a070 <_fpadd_parts+0xf0>
   1a0f4:	00452703          	lw	a4,4(a0)
   1a0f8:	0045a783          	lw	a5,4(a1)
   1a0fc:	f6f70ae3          	beq	a4,a5,1a070 <_fpadd_parts+0xf0>
   1a100:	0001b537          	lui	a0,0x1b
   1a104:	13050513          	addi	a0,a0,304 # 1b130 <__thenan_sf>
   1a108:	00008067          	ret
   1a10c:	40f007b3          	neg	a5,a5
   1a110:	00100713          	li	a4,1
   1a114:	00e62223          	sw	a4,4(a2)
   1a118:	00662423          	sw	t1,8(a2)
   1a11c:	00f62623          	sw	a5,12(a2)
   1a120:	ee9ff06f          	j	1a008 <_fpadd_parts+0x88>
   1a124:	ea080ee3          	beqz	a6,19fe0 <_fpadd_parts+0x60>
   1a128:	01171833          	sll	a6,a4,a7
   1a12c:	fff80813          	addi	a6,a6,-1
   1a130:	00787833          	and	a6,a6,t2
   1a134:	0113d7b3          	srl	a5,t2,a7
   1a138:	010036b3          	snez	a3,a6
   1a13c:	01130333          	add	t1,t1,a7
   1a140:	00f6e3b3          	or	t2,a3,a5
   1a144:	e9dff06f          	j	19fe0 <_fpadd_parts+0x60>

0001a148 <__pack_f>:
   1a148:	00052703          	lw	a4,0(a0)
   1a14c:	00100613          	li	a2,1
   1a150:	00c52683          	lw	a3,12(a0)
   1a154:	00452783          	lw	a5,4(a0)
   1a158:	08e67c63          	bleu	a4,a2,1a1f0 <__pack_f+0xa8>
   1a15c:	00400593          	li	a1,4
   1a160:	08b70263          	beq	a4,a1,1a1e4 <__pack_f+0x9c>
   1a164:	00200593          	li	a1,2
   1a168:	04b70263          	beq	a4,a1,1a1ac <__pack_f+0x64>
   1a16c:	04068063          	beqz	a3,1a1ac <__pack_f+0x64>
   1a170:	00852703          	lw	a4,8(a0)
   1a174:	f8200593          	li	a1,-126
   1a178:	0ab74e63          	blt	a4,a1,1a234 <__pack_f+0xec>
   1a17c:	07f00613          	li	a2,127
   1a180:	06e64263          	blt	a2,a4,1a1e4 <__pack_f+0x9c>
   1a184:	00c6f5b3          	and	a1,a3,a2
   1a188:	04000613          	li	a2,64
   1a18c:	08c58663          	beq	a1,a2,1a218 <__pack_f+0xd0>
   1a190:	03f68693          	addi	a3,a3,63
   1a194:	0806ca63          	bltz	a3,1a228 <__pack_f+0xe0>
   1a198:	07f70713          	addi	a4,a4,127
   1a19c:	00269693          	slli	a3,a3,0x2
   1a1a0:	0096d693          	srli	a3,a3,0x9
   1a1a4:	0ff77713          	andi	a4,a4,255
   1a1a8:	00c0006f          	j	1a1b4 <__pack_f+0x6c>
   1a1ac:	00000713          	li	a4,0
   1a1b0:	00000693          	li	a3,0
   1a1b4:	00800637          	lui	a2,0x800
   1a1b8:	fff60613          	addi	a2,a2,-1 # 7fffff <_gp+0x7e2a7f>
   1a1bc:	00c6f6b3          	and	a3,a3,a2
   1a1c0:	80800637          	lui	a2,0x80800
   1a1c4:	fff60613          	addi	a2,a2,-1 # 807fffff <_gp+0x807e2a7f>
   1a1c8:	00c6f6b3          	and	a3,a3,a2
   1a1cc:	01771713          	slli	a4,a4,0x17
   1a1d0:	01f79613          	slli	a2,a5,0x1f
   1a1d4:	00e6e7b3          	or	a5,a3,a4
   1a1d8:	00c7e7b3          	or	a5,a5,a2
   1a1dc:	f0078553          	fmv.s.x	fa0,a5
   1a1e0:	00008067          	ret
   1a1e4:	0ff00713          	li	a4,255
   1a1e8:	00000693          	li	a3,0
   1a1ec:	fc9ff06f          	j	1a1b4 <__pack_f+0x6c>
   1a1f0:	00400637          	lui	a2,0x400
   1a1f4:	0076d713          	srli	a4,a3,0x7
   1a1f8:	fff60693          	addi	a3,a2,-1 # 3fffff <_gp+0x3e2a7f>
   1a1fc:	00d776b3          	and	a3,a4,a3
   1a200:	00800737          	lui	a4,0x800
   1a204:	fff70713          	addi	a4,a4,-1 # 7fffff <_gp+0x7e2a7f>
   1a208:	00c6e6b3          	or	a3,a3,a2
   1a20c:	00e6f6b3          	and	a3,a3,a4
   1a210:	0ff00713          	li	a4,255
   1a214:	fa1ff06f          	j	1a1b4 <__pack_f+0x6c>
   1a218:	01869613          	slli	a2,a3,0x18
   1a21c:	f6065ce3          	bgez	a2,1a194 <__pack_f+0x4c>
   1a220:	04068693          	addi	a3,a3,64
   1a224:	f71ff06f          	j	1a194 <__pack_f+0x4c>
   1a228:	0016d693          	srli	a3,a3,0x1
   1a22c:	08070713          	addi	a4,a4,128
   1a230:	f6dff06f          	j	1a19c <__pack_f+0x54>
   1a234:	40e58733          	sub	a4,a1,a4
   1a238:	01900593          	li	a1,25
   1a23c:	f6e5c8e3          	blt	a1,a4,1a1ac <__pack_f+0x64>
   1a240:	00e61633          	sll	a2,a2,a4
   1a244:	fff60613          	addi	a2,a2,-1
   1a248:	00d67633          	and	a2,a2,a3
   1a24c:	00e6d6b3          	srl	a3,a3,a4
   1a250:	00c03733          	snez	a4,a2
   1a254:	00d76733          	or	a4,a4,a3
   1a258:	07f77613          	andi	a2,a4,127
   1a25c:	04000693          	li	a3,64
   1a260:	02d61263          	bne	a2,a3,1a284 <__pack_f+0x13c>
   1a264:	01871613          	slli	a2,a4,0x18
   1a268:	02064c63          	bltz	a2,1a2a0 <__pack_f+0x158>
   1a26c:	400006b7          	lui	a3,0x40000
   1a270:	00271613          	slli	a2,a4,0x2
   1a274:	00d73733          	sltu	a4,a4,a3
   1a278:	00174713          	xori	a4,a4,1
   1a27c:	00965693          	srli	a3,a2,0x9
   1a280:	f35ff06f          	j	1a1b4 <__pack_f+0x6c>
   1a284:	03f70613          	addi	a2,a4,63
   1a288:	40000737          	lui	a4,0x40000
   1a28c:	00261693          	slli	a3,a2,0x2
   1a290:	00e63733          	sltu	a4,a2,a4
   1a294:	0096d693          	srli	a3,a3,0x9
   1a298:	00174713          	xori	a4,a4,1
   1a29c:	f19ff06f          	j	1a1b4 <__pack_f+0x6c>
   1a2a0:	04070613          	addi	a2,a4,64 # 40000040 <_gp+0x3ffe2ac0>
   1a2a4:	fe5ff06f          	j	1a288 <__pack_f+0x140>

0001a2a8 <__unpack_f>:
   1a2a8:	00255703          	lhu	a4,2(a0)
   1a2ac:	00354683          	lbu	a3,3(a0)
   1a2b0:	00052603          	lw	a2,0(a0)
   1a2b4:	00775713          	srli	a4,a4,0x7
   1a2b8:	008007b7          	lui	a5,0x800
   1a2bc:	0076d693          	srli	a3,a3,0x7
   1a2c0:	fff78793          	addi	a5,a5,-1 # 7fffff <_gp+0x7e2a7f>
   1a2c4:	0ff77713          	andi	a4,a4,255
   1a2c8:	00f677b3          	and	a5,a2,a5
   1a2cc:	00d5a223          	sw	a3,4(a1)
   1a2d0:	02071a63          	bnez	a4,1a304 <__unpack_f+0x5c>
   1a2d4:	04078e63          	beqz	a5,1a330 <__unpack_f+0x88>
   1a2d8:	00300713          	li	a4,3
   1a2dc:	00e5a023          	sw	a4,0(a1)
   1a2e0:	00779793          	slli	a5,a5,0x7
   1a2e4:	f8200713          	li	a4,-126
   1a2e8:	400006b7          	lui	a3,0x40000
   1a2ec:	00179793          	slli	a5,a5,0x1
   1a2f0:	fff70713          	addi	a4,a4,-1
   1a2f4:	fed7ece3          	bltu	a5,a3,1a2ec <__unpack_f+0x44>
   1a2f8:	00e5a423          	sw	a4,8(a1)
   1a2fc:	00f5a623          	sw	a5,12(a1)
   1a300:	00008067          	ret
   1a304:	0ff00693          	li	a3,255
   1a308:	02d70a63          	beq	a4,a3,1a33c <__unpack_f+0x94>
   1a30c:	f8170713          	addi	a4,a4,-127
   1a310:	00779793          	slli	a5,a5,0x7
   1a314:	400006b7          	lui	a3,0x40000
   1a318:	00d7e7b3          	or	a5,a5,a3
   1a31c:	00e5a423          	sw	a4,8(a1)
   1a320:	00300713          	li	a4,3
   1a324:	00e5a023          	sw	a4,0(a1)
   1a328:	00f5a623          	sw	a5,12(a1)
   1a32c:	00008067          	ret
   1a330:	00200793          	li	a5,2
   1a334:	00f5a023          	sw	a5,0(a1)
   1a338:	00008067          	ret
   1a33c:	02078663          	beqz	a5,1a368 <__unpack_f+0xc0>
   1a340:	00979713          	slli	a4,a5,0x9
   1a344:	02075863          	bgez	a4,1a374 <__unpack_f+0xcc>
   1a348:	00100713          	li	a4,1
   1a34c:	00e5a023          	sw	a4,0(a1)
   1a350:	ffc00737          	lui	a4,0xffc00
   1a354:	fff70713          	addi	a4,a4,-1 # ffbfffff <_gp+0xffbe2a7f>
   1a358:	00e7f7b3          	and	a5,a5,a4
   1a35c:	00779793          	slli	a5,a5,0x7
   1a360:	00f5a623          	sw	a5,12(a1)
   1a364:	00008067          	ret
   1a368:	00400793          	li	a5,4
   1a36c:	00f5a023          	sw	a5,0(a1)
   1a370:	00008067          	ret
   1a374:	0005a023          	sw	zero,0(a1)
   1a378:	fd9ff06f          	j	1a350 <__unpack_f+0xa8>

0001a37c <__addsf3>:
   1a37c:	fb010113          	addi	sp,sp,-80
   1a380:	00810513          	addi	a0,sp,8
   1a384:	01010593          	addi	a1,sp,16
   1a388:	04112623          	sw	ra,76(sp)
   1a38c:	00a12427          	fsw	fa0,8(sp)
   1a390:	00b12627          	fsw	fa1,12(sp)
   1a394:	f15ff0ef          	jal	1a2a8 <__unpack_f>
   1a398:	00c10513          	addi	a0,sp,12
   1a39c:	02010593          	addi	a1,sp,32
   1a3a0:	f09ff0ef          	jal	1a2a8 <__unpack_f>
   1a3a4:	02010593          	addi	a1,sp,32
   1a3a8:	03010613          	addi	a2,sp,48
   1a3ac:	01010513          	addi	a0,sp,16
   1a3b0:	bd1ff0ef          	jal	19f80 <_fpadd_parts>
   1a3b4:	d95ff0ef          	jal	1a148 <__pack_f>
   1a3b8:	04c12083          	lw	ra,76(sp)
   1a3bc:	05010113          	addi	sp,sp,80
   1a3c0:	00008067          	ret

0001a3c4 <__subsf3>:
   1a3c4:	fb010113          	addi	sp,sp,-80
   1a3c8:	00810513          	addi	a0,sp,8
   1a3cc:	01010593          	addi	a1,sp,16
   1a3d0:	04112623          	sw	ra,76(sp)
   1a3d4:	00a12427          	fsw	fa0,8(sp)
   1a3d8:	00b12627          	fsw	fa1,12(sp)
   1a3dc:	ecdff0ef          	jal	1a2a8 <__unpack_f>
   1a3e0:	00c10513          	addi	a0,sp,12
   1a3e4:	02010593          	addi	a1,sp,32
   1a3e8:	ec1ff0ef          	jal	1a2a8 <__unpack_f>
   1a3ec:	02412783          	lw	a5,36(sp)
   1a3f0:	02010593          	addi	a1,sp,32
   1a3f4:	03010613          	addi	a2,sp,48
   1a3f8:	0017c793          	xori	a5,a5,1
   1a3fc:	01010513          	addi	a0,sp,16
   1a400:	02f12223          	sw	a5,36(sp)
   1a404:	b7dff0ef          	jal	19f80 <_fpadd_parts>
   1a408:	d41ff0ef          	jal	1a148 <__pack_f>
   1a40c:	04c12083          	lw	ra,76(sp)
   1a410:	05010113          	addi	sp,sp,80
   1a414:	00008067          	ret

0001a418 <__mulsf3>:
   1a418:	fb010113          	addi	sp,sp,-80
   1a41c:	00810513          	addi	a0,sp,8
   1a420:	01010593          	addi	a1,sp,16
   1a424:	04112623          	sw	ra,76(sp)
   1a428:	00a12427          	fsw	fa0,8(sp)
   1a42c:	00b12627          	fsw	fa1,12(sp)
   1a430:	e79ff0ef          	jal	1a2a8 <__unpack_f>
   1a434:	00c10513          	addi	a0,sp,12
   1a438:	02010593          	addi	a1,sp,32
   1a43c:	e6dff0ef          	jal	1a2a8 <__unpack_f>
   1a440:	01012703          	lw	a4,16(sp)
   1a444:	00100793          	li	a5,1
   1a448:	02e7e663          	bltu	a5,a4,1a474 <__mulsf3+0x5c>
   1a44c:	01412783          	lw	a5,20(sp)
   1a450:	02412703          	lw	a4,36(sp)
   1a454:	01010513          	addi	a0,sp,16
   1a458:	40e787b3          	sub	a5,a5,a4
   1a45c:	00f037b3          	snez	a5,a5
   1a460:	00f12a23          	sw	a5,20(sp)
   1a464:	ce5ff0ef          	jal	1a148 <__pack_f>
   1a468:	04c12083          	lw	ra,76(sp)
   1a46c:	05010113          	addi	sp,sp,80
   1a470:	00008067          	ret
   1a474:	02012683          	lw	a3,32(sp)
   1a478:	02d7e663          	bltu	a5,a3,1a4a4 <__mulsf3+0x8c>
   1a47c:	02412703          	lw	a4,36(sp)
   1a480:	01412783          	lw	a5,20(sp)
   1a484:	02010513          	addi	a0,sp,32
   1a488:	40e787b3          	sub	a5,a5,a4
   1a48c:	00f037b3          	snez	a5,a5
   1a490:	02f12223          	sw	a5,36(sp)
   1a494:	cb5ff0ef          	jal	1a148 <__pack_f>
   1a498:	04c12083          	lw	ra,76(sp)
   1a49c:	05010113          	addi	sp,sp,80
   1a4a0:	00008067          	ret
   1a4a4:	00400793          	li	a5,4
   1a4a8:	00f71c63          	bne	a4,a5,1a4c0 <__mulsf3+0xa8>
   1a4ac:	00200793          	li	a5,2
   1a4b0:	f8f69ee3          	bne	a3,a5,1a44c <__mulsf3+0x34>
   1a4b4:	0001b537          	lui	a0,0x1b
   1a4b8:	13050513          	addi	a0,a0,304 # 1b130 <__thenan_sf>
   1a4bc:	fa9ff06f          	j	1a464 <__mulsf3+0x4c>
   1a4c0:	00f69863          	bne	a3,a5,1a4d0 <__mulsf3+0xb8>
   1a4c4:	00200793          	li	a5,2
   1a4c8:	fef706e3          	beq	a4,a5,1a4b4 <__mulsf3+0x9c>
   1a4cc:	fb1ff06f          	j	1a47c <__mulsf3+0x64>
   1a4d0:	00200793          	li	a5,2
   1a4d4:	f6f70ce3          	beq	a4,a5,1a44c <__mulsf3+0x34>
   1a4d8:	faf682e3          	beq	a3,a5,1a47c <__mulsf3+0x64>
   1a4dc:	01c12583          	lw	a1,28(sp)
   1a4e0:	02c12783          	lw	a5,44(sp)
   1a4e4:	01812703          	lw	a4,24(sp)
   1a4e8:	02812683          	lw	a3,40(sp)
   1a4ec:	02b7b633          	mulhu	a2,a5,a1
   1a4f0:	02412803          	lw	a6,36(sp)
   1a4f4:	00d706b3          	add	a3,a4,a3
   1a4f8:	01412703          	lw	a4,20(sp)
   1a4fc:	00268513          	addi	a0,a3,2 # 40000002 <_gp+0x3ffe2a82>
   1a500:	02a12c23          	sw	a0,56(sp)
   1a504:	41070733          	sub	a4,a4,a6
   1a508:	00e03733          	snez	a4,a4
   1a50c:	02e12a23          	sw	a4,52(sp)
   1a510:	02b787b3          	mul	a5,a5,a1
   1a514:	00060713          	mv	a4,a2
   1a518:	02065263          	bgez	a2,1a53c <__mulsf3+0x124>
   1a51c:	01f61713          	slli	a4,a2,0x1f
   1a520:	00368693          	addi	a3,a3,3
   1a524:	00075863          	bgez	a4,1a534 <__mulsf3+0x11c>
   1a528:	0017d793          	srli	a5,a5,0x1
   1a52c:	80000737          	lui	a4,0x80000
   1a530:	00e7e7b3          	or	a5,a5,a4
   1a534:	00165713          	srli	a4,a2,0x1
   1a538:	02d12c23          	sw	a3,56(sp)
   1a53c:	40000637          	lui	a2,0x40000
   1a540:	02c77a63          	bleu	a2,a4,1a574 <__mulsf3+0x15c>
   1a544:	03812683          	lw	a3,56(sp)
   1a548:	fff68693          	addi	a3,a3,-1
   1a54c:	0100006f          	j	1a55c <__mulsf3+0x144>
   1a550:	00179793          	slli	a5,a5,0x1
   1a554:	fff68693          	addi	a3,a3,-1
   1a558:	00c77c63          	bleu	a2,a4,1a570 <__mulsf3+0x158>
   1a55c:	00171713          	slli	a4,a4,0x1
   1a560:	00068593          	mv	a1,a3
   1a564:	fe07d6e3          	bgez	a5,1a550 <__mulsf3+0x138>
   1a568:	00176713          	ori	a4,a4,1
   1a56c:	fe5ff06f          	j	1a550 <__mulsf3+0x138>
   1a570:	02b12c23          	sw	a1,56(sp)
   1a574:	07f77613          	andi	a2,a4,127
   1a578:	04000693          	li	a3,64
   1a57c:	00d60c63          	beq	a2,a3,1a594 <__mulsf3+0x17c>
   1a580:	00300793          	li	a5,3
   1a584:	02e12e23          	sw	a4,60(sp)
   1a588:	02f12823          	sw	a5,48(sp)
   1a58c:	03010513          	addi	a0,sp,48
   1a590:	ed5ff06f          	j	1a464 <__mulsf3+0x4c>
   1a594:	01871693          	slli	a3,a4,0x18
   1a598:	fe06c4e3          	bltz	a3,1a580 <__mulsf3+0x168>
   1a59c:	fe0782e3          	beqz	a5,1a580 <__mulsf3+0x168>
   1a5a0:	04070713          	addi	a4,a4,64 # 80000040 <_gp+0x7ffe2ac0>
   1a5a4:	f8077713          	andi	a4,a4,-128
   1a5a8:	fd9ff06f          	j	1a580 <__mulsf3+0x168>

0001a5ac <__divsf3>:
   1a5ac:	fc010113          	addi	sp,sp,-64
   1a5b0:	00810513          	addi	a0,sp,8
   1a5b4:	01010593          	addi	a1,sp,16
   1a5b8:	02112e23          	sw	ra,60(sp)
   1a5bc:	00a12427          	fsw	fa0,8(sp)
   1a5c0:	00b12627          	fsw	fa1,12(sp)
   1a5c4:	ce5ff0ef          	jal	1a2a8 <__unpack_f>
   1a5c8:	00c10513          	addi	a0,sp,12
   1a5cc:	02010593          	addi	a1,sp,32
   1a5d0:	cd9ff0ef          	jal	1a2a8 <__unpack_f>
   1a5d4:	01012703          	lw	a4,16(sp)
   1a5d8:	00100793          	li	a5,1
   1a5dc:	00e7ec63          	bltu	a5,a4,1a5f4 <__divsf3+0x48>
   1a5e0:	01010513          	addi	a0,sp,16
   1a5e4:	b65ff0ef          	jal	1a148 <__pack_f>
   1a5e8:	03c12083          	lw	ra,60(sp)
   1a5ec:	04010113          	addi	sp,sp,64
   1a5f0:	00008067          	ret
   1a5f4:	02012683          	lw	a3,32(sp)
   1a5f8:	02010513          	addi	a0,sp,32
   1a5fc:	fed7f4e3          	bleu	a3,a5,1a5e4 <__divsf3+0x38>
   1a600:	01412583          	lw	a1,20(sp)
   1a604:	02412603          	lw	a2,36(sp)
   1a608:	ffe70793          	addi	a5,a4,-2
   1a60c:	ffd7f793          	andi	a5,a5,-3
   1a610:	00c5c633          	xor	a2,a1,a2
   1a614:	00c12a23          	sw	a2,20(sp)
   1a618:	00079a63          	bnez	a5,1a62c <__divsf3+0x80>
   1a61c:	fcd712e3          	bne	a4,a3,1a5e0 <__divsf3+0x34>
   1a620:	0001b537          	lui	a0,0x1b
   1a624:	13050513          	addi	a0,a0,304 # 1b130 <__thenan_sf>
   1a628:	fbdff06f          	j	1a5e4 <__divsf3+0x38>
   1a62c:	00400793          	li	a5,4
   1a630:	06f68a63          	beq	a3,a5,1a6a4 <__divsf3+0xf8>
   1a634:	00200713          	li	a4,2
   1a638:	06e68e63          	beq	a3,a4,1a6b4 <__divsf3+0x108>
   1a63c:	01812703          	lw	a4,24(sp)
   1a640:	02812683          	lw	a3,40(sp)
   1a644:	01c12783          	lw	a5,28(sp)
   1a648:	02c12603          	lw	a2,44(sp)
   1a64c:	40d70733          	sub	a4,a4,a3
   1a650:	00e12c23          	sw	a4,24(sp)
   1a654:	00c7f863          	bleu	a2,a5,1a664 <__divsf3+0xb8>
   1a658:	fff70713          	addi	a4,a4,-1
   1a65c:	00179793          	slli	a5,a5,0x1
   1a660:	00e12c23          	sw	a4,24(sp)
   1a664:	01f00713          	li	a4,31
   1a668:	400006b7          	lui	a3,0x40000
   1a66c:	00000593          	li	a1,0
   1a670:	fff70713          	addi	a4,a4,-1
   1a674:	00c7e663          	bltu	a5,a2,1a680 <__divsf3+0xd4>
   1a678:	00d5e5b3          	or	a1,a1,a3
   1a67c:	40c787b3          	sub	a5,a5,a2
   1a680:	0016d693          	srli	a3,a3,0x1
   1a684:	00179793          	slli	a5,a5,0x1
   1a688:	fe0714e3          	bnez	a4,1a670 <__divsf3+0xc4>
   1a68c:	07f5f693          	andi	a3,a1,127
   1a690:	04000713          	li	a4,64
   1a694:	02e68463          	beq	a3,a4,1a6bc <__divsf3+0x110>
   1a698:	00b12e23          	sw	a1,28(sp)
   1a69c:	01010513          	addi	a0,sp,16
   1a6a0:	f45ff06f          	j	1a5e4 <__divsf3+0x38>
   1a6a4:	00012e23          	sw	zero,28(sp)
   1a6a8:	00012c23          	sw	zero,24(sp)
   1a6ac:	01010513          	addi	a0,sp,16
   1a6b0:	f35ff06f          	j	1a5e4 <__divsf3+0x38>
   1a6b4:	00f12823          	sw	a5,16(sp)
   1a6b8:	f29ff06f          	j	1a5e0 <__divsf3+0x34>
   1a6bc:	01859713          	slli	a4,a1,0x18
   1a6c0:	fc074ce3          	bltz	a4,1a698 <__divsf3+0xec>
   1a6c4:	fc078ae3          	beqz	a5,1a698 <__divsf3+0xec>
   1a6c8:	04058593          	addi	a1,a1,64
   1a6cc:	f805f593          	andi	a1,a1,-128
   1a6d0:	fc9ff06f          	j	1a698 <__divsf3+0xec>

0001a6d4 <__fpcmp_parts_f>:
   1a6d4:	00052703          	lw	a4,0(a0)
   1a6d8:	00100793          	li	a5,1
   1a6dc:	00050613          	mv	a2,a0
   1a6e0:	06e7fe63          	bleu	a4,a5,1a75c <__fpcmp_parts_f+0x88>
   1a6e4:	0005a683          	lw	a3,0(a1)
   1a6e8:	00078513          	mv	a0,a5
   1a6ec:	04d7f063          	bleu	a3,a5,1a72c <__fpcmp_parts_f+0x58>
   1a6f0:	00400793          	li	a5,4
   1a6f4:	04f70863          	beq	a4,a5,1a744 <__fpcmp_parts_f+0x70>
   1a6f8:	02f68c63          	beq	a3,a5,1a730 <__fpcmp_parts_f+0x5c>
   1a6fc:	00200793          	li	a5,2
   1a700:	02f70263          	beq	a4,a5,1a724 <__fpcmp_parts_f+0x50>
   1a704:	04f68263          	beq	a3,a5,1a748 <__fpcmp_parts_f+0x74>
   1a708:	00462783          	lw	a5,4(a2) # 40000004 <_gp+0x3ffe2a84>
   1a70c:	0045a703          	lw	a4,4(a1)
   1a710:	04e78a63          	beq	a5,a4,1a764 <__fpcmp_parts_f+0x90>
   1a714:	00f03533          	snez	a0,a5
   1a718:	40a00533          	neg	a0,a0
   1a71c:	00156513          	ori	a0,a0,1
   1a720:	00008067          	ret
   1a724:	00e69663          	bne	a3,a4,1a730 <__fpcmp_parts_f+0x5c>
   1a728:	00000513          	li	a0,0
   1a72c:	00008067          	ret
   1a730:	0045a503          	lw	a0,4(a1)
   1a734:	00153513          	seqz	a0,a0
   1a738:	40a00533          	neg	a0,a0
   1a73c:	00156513          	ori	a0,a0,1
   1a740:	00008067          	ret
   1a744:	04e68a63          	beq	a3,a4,1a798 <__fpcmp_parts_f+0xc4>
   1a748:	00462503          	lw	a0,4(a2)
   1a74c:	00a03533          	snez	a0,a0
   1a750:	40a00533          	neg	a0,a0
   1a754:	00156513          	ori	a0,a0,1
   1a758:	00008067          	ret
   1a75c:	00078513          	mv	a0,a5
   1a760:	00008067          	ret
   1a764:	00862683          	lw	a3,8(a2)
   1a768:	0085a703          	lw	a4,8(a1)
   1a76c:	fad744e3          	blt	a4,a3,1a714 <__fpcmp_parts_f+0x40>
   1a770:	00e6cc63          	blt	a3,a4,1a788 <__fpcmp_parts_f+0xb4>
   1a774:	00c62683          	lw	a3,12(a2)
   1a778:	00c5a703          	lw	a4,12(a1)
   1a77c:	f8d76ce3          	bltu	a4,a3,1a714 <__fpcmp_parts_f+0x40>
   1a780:	00000513          	li	a0,0
   1a784:	fae6f4e3          	bleu	a4,a3,1a72c <__fpcmp_parts_f+0x58>
   1a788:	0017b513          	seqz	a0,a5
   1a78c:	40a00533          	neg	a0,a0
   1a790:	00156513          	ori	a0,a0,1
   1a794:	00008067          	ret
   1a798:	0045a783          	lw	a5,4(a1)
   1a79c:	00462503          	lw	a0,4(a2)
   1a7a0:	40a78533          	sub	a0,a5,a0
   1a7a4:	00008067          	ret

0001a7a8 <__cmpsf2>:
   1a7a8:	fc010113          	addi	sp,sp,-64
   1a7ac:	00810513          	addi	a0,sp,8
   1a7b0:	01010593          	addi	a1,sp,16
   1a7b4:	02112e23          	sw	ra,60(sp)
   1a7b8:	00a12427          	fsw	fa0,8(sp)
   1a7bc:	00b12627          	fsw	fa1,12(sp)
   1a7c0:	ae9ff0ef          	jal	1a2a8 <__unpack_f>
   1a7c4:	00c10513          	addi	a0,sp,12
   1a7c8:	02010593          	addi	a1,sp,32
   1a7cc:	addff0ef          	jal	1a2a8 <__unpack_f>
   1a7d0:	01010513          	addi	a0,sp,16
   1a7d4:	02010593          	addi	a1,sp,32
   1a7d8:	efdff0ef          	jal	1a6d4 <__fpcmp_parts_f>
   1a7dc:	03c12083          	lw	ra,60(sp)
   1a7e0:	04010113          	addi	sp,sp,64
   1a7e4:	00008067          	ret

0001a7e8 <__eqsf2>:
   1a7e8:	fc010113          	addi	sp,sp,-64
   1a7ec:	00810513          	addi	a0,sp,8
   1a7f0:	01010593          	addi	a1,sp,16
   1a7f4:	02112e23          	sw	ra,60(sp)
   1a7f8:	00a12427          	fsw	fa0,8(sp)
   1a7fc:	00b12627          	fsw	fa1,12(sp)
   1a800:	aa9ff0ef          	jal	1a2a8 <__unpack_f>
   1a804:	00c10513          	addi	a0,sp,12
   1a808:	02010593          	addi	a1,sp,32
   1a80c:	a9dff0ef          	jal	1a2a8 <__unpack_f>
   1a810:	01012783          	lw	a5,16(sp)
   1a814:	00100513          	li	a0,1
   1a818:	00f57c63          	bleu	a5,a0,1a830 <__eqsf2+0x48>
   1a81c:	02012783          	lw	a5,32(sp)
   1a820:	00f57863          	bleu	a5,a0,1a830 <__eqsf2+0x48>
   1a824:	01010513          	addi	a0,sp,16
   1a828:	02010593          	addi	a1,sp,32
   1a82c:	ea9ff0ef          	jal	1a6d4 <__fpcmp_parts_f>
   1a830:	03c12083          	lw	ra,60(sp)
   1a834:	04010113          	addi	sp,sp,64
   1a838:	00008067          	ret

0001a83c <__nesf2>:
   1a83c:	fc010113          	addi	sp,sp,-64
   1a840:	00810513          	addi	a0,sp,8
   1a844:	01010593          	addi	a1,sp,16
   1a848:	02112e23          	sw	ra,60(sp)
   1a84c:	00a12427          	fsw	fa0,8(sp)
   1a850:	00b12627          	fsw	fa1,12(sp)
   1a854:	a55ff0ef          	jal	1a2a8 <__unpack_f>
   1a858:	00c10513          	addi	a0,sp,12
   1a85c:	02010593          	addi	a1,sp,32
   1a860:	a49ff0ef          	jal	1a2a8 <__unpack_f>
   1a864:	01012783          	lw	a5,16(sp)
   1a868:	00100513          	li	a0,1
   1a86c:	00f57c63          	bleu	a5,a0,1a884 <__nesf2+0x48>
   1a870:	02012783          	lw	a5,32(sp)
   1a874:	00f57863          	bleu	a5,a0,1a884 <__nesf2+0x48>
   1a878:	01010513          	addi	a0,sp,16
   1a87c:	02010593          	addi	a1,sp,32
   1a880:	e55ff0ef          	jal	1a6d4 <__fpcmp_parts_f>
   1a884:	03c12083          	lw	ra,60(sp)
   1a888:	04010113          	addi	sp,sp,64
   1a88c:	00008067          	ret

0001a890 <__gtsf2>:
   1a890:	fc010113          	addi	sp,sp,-64
   1a894:	00810513          	addi	a0,sp,8
   1a898:	01010593          	addi	a1,sp,16
   1a89c:	02112e23          	sw	ra,60(sp)
   1a8a0:	00a12427          	fsw	fa0,8(sp)
   1a8a4:	00b12627          	fsw	fa1,12(sp)
   1a8a8:	a01ff0ef          	jal	1a2a8 <__unpack_f>
   1a8ac:	00c10513          	addi	a0,sp,12
   1a8b0:	02010593          	addi	a1,sp,32
   1a8b4:	9f5ff0ef          	jal	1a2a8 <__unpack_f>
   1a8b8:	01012703          	lw	a4,16(sp)
   1a8bc:	00100793          	li	a5,1
   1a8c0:	fff00513          	li	a0,-1
   1a8c4:	00e7fc63          	bleu	a4,a5,1a8dc <__gtsf2+0x4c>
   1a8c8:	02012703          	lw	a4,32(sp)
   1a8cc:	00e7f863          	bleu	a4,a5,1a8dc <__gtsf2+0x4c>
   1a8d0:	01010513          	addi	a0,sp,16
   1a8d4:	02010593          	addi	a1,sp,32
   1a8d8:	dfdff0ef          	jal	1a6d4 <__fpcmp_parts_f>
   1a8dc:	03c12083          	lw	ra,60(sp)
   1a8e0:	04010113          	addi	sp,sp,64
   1a8e4:	00008067          	ret

0001a8e8 <__gesf2>:
   1a8e8:	fc010113          	addi	sp,sp,-64
   1a8ec:	00810513          	addi	a0,sp,8
   1a8f0:	01010593          	addi	a1,sp,16
   1a8f4:	02112e23          	sw	ra,60(sp)
   1a8f8:	00a12427          	fsw	fa0,8(sp)
   1a8fc:	00b12627          	fsw	fa1,12(sp)
   1a900:	9a9ff0ef          	jal	1a2a8 <__unpack_f>
   1a904:	00c10513          	addi	a0,sp,12
   1a908:	02010593          	addi	a1,sp,32
   1a90c:	99dff0ef          	jal	1a2a8 <__unpack_f>
   1a910:	01012703          	lw	a4,16(sp)
   1a914:	00100793          	li	a5,1
   1a918:	fff00513          	li	a0,-1
   1a91c:	00e7fc63          	bleu	a4,a5,1a934 <__gesf2+0x4c>
   1a920:	02012703          	lw	a4,32(sp)
   1a924:	00e7f863          	bleu	a4,a5,1a934 <__gesf2+0x4c>
   1a928:	01010513          	addi	a0,sp,16
   1a92c:	02010593          	addi	a1,sp,32
   1a930:	da5ff0ef          	jal	1a6d4 <__fpcmp_parts_f>
   1a934:	03c12083          	lw	ra,60(sp)
   1a938:	04010113          	addi	sp,sp,64
   1a93c:	00008067          	ret

0001a940 <__ltsf2>:
   1a940:	fc010113          	addi	sp,sp,-64
   1a944:	00810513          	addi	a0,sp,8
   1a948:	01010593          	addi	a1,sp,16
   1a94c:	02112e23          	sw	ra,60(sp)
   1a950:	00a12427          	fsw	fa0,8(sp)
   1a954:	00b12627          	fsw	fa1,12(sp)
   1a958:	951ff0ef          	jal	1a2a8 <__unpack_f>
   1a95c:	00c10513          	addi	a0,sp,12
   1a960:	02010593          	addi	a1,sp,32
   1a964:	945ff0ef          	jal	1a2a8 <__unpack_f>
   1a968:	01012783          	lw	a5,16(sp)
   1a96c:	00100513          	li	a0,1
   1a970:	00f57c63          	bleu	a5,a0,1a988 <__ltsf2+0x48>
   1a974:	02012783          	lw	a5,32(sp)
   1a978:	00f57863          	bleu	a5,a0,1a988 <__ltsf2+0x48>
   1a97c:	01010513          	addi	a0,sp,16
   1a980:	02010593          	addi	a1,sp,32
   1a984:	d51ff0ef          	jal	1a6d4 <__fpcmp_parts_f>
   1a988:	03c12083          	lw	ra,60(sp)
   1a98c:	04010113          	addi	sp,sp,64
   1a990:	00008067          	ret

0001a994 <__lesf2>:
   1a994:	fc010113          	addi	sp,sp,-64
   1a998:	00810513          	addi	a0,sp,8
   1a99c:	01010593          	addi	a1,sp,16
   1a9a0:	02112e23          	sw	ra,60(sp)
   1a9a4:	00a12427          	fsw	fa0,8(sp)
   1a9a8:	00b12627          	fsw	fa1,12(sp)
   1a9ac:	8fdff0ef          	jal	1a2a8 <__unpack_f>
   1a9b0:	00c10513          	addi	a0,sp,12
   1a9b4:	02010593          	addi	a1,sp,32
   1a9b8:	8f1ff0ef          	jal	1a2a8 <__unpack_f>
   1a9bc:	01012783          	lw	a5,16(sp)
   1a9c0:	00100513          	li	a0,1
   1a9c4:	00f57c63          	bleu	a5,a0,1a9dc <__lesf2+0x48>
   1a9c8:	02012783          	lw	a5,32(sp)
   1a9cc:	00f57863          	bleu	a5,a0,1a9dc <__lesf2+0x48>
   1a9d0:	01010513          	addi	a0,sp,16
   1a9d4:	02010593          	addi	a1,sp,32
   1a9d8:	cfdff0ef          	jal	1a6d4 <__fpcmp_parts_f>
   1a9dc:	03c12083          	lw	ra,60(sp)
   1a9e0:	04010113          	addi	sp,sp,64
   1a9e4:	00008067          	ret

0001a9e8 <__unordsf2>:
   1a9e8:	fc010113          	addi	sp,sp,-64
   1a9ec:	00810513          	addi	a0,sp,8
   1a9f0:	01010593          	addi	a1,sp,16
   1a9f4:	02112e23          	sw	ra,60(sp)
   1a9f8:	00a12427          	fsw	fa0,8(sp)
   1a9fc:	00b12627          	fsw	fa1,12(sp)
   1aa00:	8a9ff0ef          	jal	1a2a8 <__unpack_f>
   1aa04:	00c10513          	addi	a0,sp,12
   1aa08:	02010593          	addi	a1,sp,32
   1aa0c:	89dff0ef          	jal	1a2a8 <__unpack_f>
   1aa10:	01012783          	lw	a5,16(sp)
   1aa14:	00100513          	li	a0,1
   1aa18:	00f57663          	bleu	a5,a0,1aa24 <__unordsf2+0x3c>
   1aa1c:	02012503          	lw	a0,32(sp)
   1aa20:	00253513          	sltiu	a0,a0,2
   1aa24:	03c12083          	lw	ra,60(sp)
   1aa28:	04010113          	addi	sp,sp,64
   1aa2c:	00008067          	ret

0001aa30 <__floatsisf>:
   1aa30:	fe010113          	addi	sp,sp,-32
   1aa34:	01f55793          	srli	a5,a0,0x1f
   1aa38:	00300713          	li	a4,3
   1aa3c:	00112e23          	sw	ra,28(sp)
   1aa40:	00812c23          	sw	s0,24(sp)
   1aa44:	00e12023          	sw	a4,0(sp)
   1aa48:	00f12223          	sw	a5,4(sp)
   1aa4c:	02051263          	bnez	a0,1aa70 <__floatsisf+0x40>
   1aa50:	00200793          	li	a5,2
   1aa54:	00f12023          	sw	a5,0(sp)
   1aa58:	00010513          	mv	a0,sp
   1aa5c:	eecff0ef          	jal	1a148 <__pack_f>
   1aa60:	01c12083          	lw	ra,28(sp)
   1aa64:	01812403          	lw	s0,24(sp)
   1aa68:	02010113          	addi	sp,sp,32
   1aa6c:	00008067          	ret
   1aa70:	01e00713          	li	a4,30
   1aa74:	00e12423          	sw	a4,8(sp)
   1aa78:	02079863          	bnez	a5,1aaa8 <__floatsisf+0x78>
   1aa7c:	00050413          	mv	s0,a0
   1aa80:	00040513          	mv	a0,s0
   1aa84:	c8cff0ef          	jal	19f10 <__clzsi2>
   1aa88:	fff50793          	addi	a5,a0,-1
   1aa8c:	02f05c63          	blez	a5,1aac4 <__floatsisf+0x94>
   1aa90:	00f41433          	sll	s0,s0,a5
   1aa94:	01f00793          	li	a5,31
   1aa98:	40a78533          	sub	a0,a5,a0
   1aa9c:	00812623          	sw	s0,12(sp)
   1aaa0:	00a12423          	sw	a0,8(sp)
   1aaa4:	fb5ff06f          	j	1aa58 <__floatsisf+0x28>
   1aaa8:	800007b7          	lui	a5,0x80000
   1aaac:	02f50063          	beq	a0,a5,1aacc <__floatsisf+0x9c>
   1aab0:	40a00433          	neg	s0,a0
   1aab4:	00040513          	mv	a0,s0
   1aab8:	c58ff0ef          	jal	19f10 <__clzsi2>
   1aabc:	fff50793          	addi	a5,a0,-1
   1aac0:	fcf048e3          	bgtz	a5,1aa90 <__floatsisf+0x60>
   1aac4:	00812623          	sw	s0,12(sp)
   1aac8:	f91ff06f          	j	1aa58 <__floatsisf+0x28>
   1aacc:	8701a507          	flw	fa0,-1936(gp) # 1cdf0 <__wctomb+0x58>
   1aad0:	f91ff06f          	j	1aa60 <__floatsisf+0x30>

0001aad4 <__floatunsisf>:
   1aad4:	fe010113          	addi	sp,sp,-32
   1aad8:	00812c23          	sw	s0,24(sp)
   1aadc:	00112e23          	sw	ra,28(sp)
   1aae0:	00050413          	mv	s0,a0
   1aae4:	00012223          	sw	zero,4(sp)
   1aae8:	04050863          	beqz	a0,1ab38 <__floatunsisf+0x64>
   1aaec:	00300793          	li	a5,3
   1aaf0:	00f12023          	sw	a5,0(sp)
   1aaf4:	01e00793          	li	a5,30
   1aaf8:	00f12423          	sw	a5,8(sp)
   1aafc:	c14ff0ef          	jal	19f10 <__clzsi2>
   1ab00:	fff50793          	addi	a5,a0,-1
   1ab04:	04050063          	beqz	a0,1ab44 <__floatunsisf+0x70>
   1ab08:	04078c63          	beqz	a5,1ab60 <__floatunsisf+0x8c>
   1ab0c:	00f41433          	sll	s0,s0,a5
   1ab10:	01f00793          	li	a5,31
   1ab14:	40a78533          	sub	a0,a5,a0
   1ab18:	00812623          	sw	s0,12(sp)
   1ab1c:	00a12423          	sw	a0,8(sp)
   1ab20:	00010513          	mv	a0,sp
   1ab24:	e24ff0ef          	jal	1a148 <__pack_f>
   1ab28:	01c12083          	lw	ra,28(sp)
   1ab2c:	01812403          	lw	s0,24(sp)
   1ab30:	02010113          	addi	sp,sp,32
   1ab34:	00008067          	ret
   1ab38:	00200793          	li	a5,2
   1ab3c:	00f12023          	sw	a5,0(sp)
   1ab40:	fe1ff06f          	j	1ab20 <__floatunsisf+0x4c>
   1ab44:	00145793          	srli	a5,s0,0x1
   1ab48:	00147413          	andi	s0,s0,1
   1ab4c:	0087e433          	or	s0,a5,s0
   1ab50:	01f00793          	li	a5,31
   1ab54:	00812623          	sw	s0,12(sp)
   1ab58:	00f12423          	sw	a5,8(sp)
   1ab5c:	fc5ff06f          	j	1ab20 <__floatunsisf+0x4c>
   1ab60:	00812623          	sw	s0,12(sp)
   1ab64:	fbdff06f          	j	1ab20 <__floatunsisf+0x4c>

0001ab68 <__fixsfsi>:
   1ab68:	fd010113          	addi	sp,sp,-48
   1ab6c:	00c10513          	addi	a0,sp,12
   1ab70:	01010593          	addi	a1,sp,16
   1ab74:	02112623          	sw	ra,44(sp)
   1ab78:	00a12627          	fsw	fa0,12(sp)
   1ab7c:	f2cff0ef          	jal	1a2a8 <__unpack_f>
   1ab80:	01012783          	lw	a5,16(sp)
   1ab84:	00200713          	li	a4,2
   1ab88:	06f77263          	bleu	a5,a4,1abec <__fixsfsi+0x84>
   1ab8c:	00400713          	li	a4,4
   1ab90:	00e78a63          	beq	a5,a4,1aba4 <__fixsfsi+0x3c>
   1ab94:	01812783          	lw	a5,24(sp)
   1ab98:	0407ca63          	bltz	a5,1abec <__fixsfsi+0x84>
   1ab9c:	01e00513          	li	a0,30
   1aba0:	02f55063          	ble	a5,a0,1abc0 <__fixsfsi+0x58>
   1aba4:	01412783          	lw	a5,20(sp)
   1aba8:	80000537          	lui	a0,0x80000
   1abac:	00079463          	bnez	a5,1abb4 <__fixsfsi+0x4c>
   1abb0:	fff54513          	not	a0,a0
   1abb4:	02c12083          	lw	ra,44(sp)
   1abb8:	03010113          	addi	sp,sp,48
   1abbc:	00008067          	ret
   1abc0:	40f507b3          	sub	a5,a0,a5
   1abc4:	01412503          	lw	a0,20(sp)
   1abc8:	01c12703          	lw	a4,28(sp)
   1abcc:	02c12083          	lw	ra,44(sp)
   1abd0:	00a036b3          	snez	a3,a0
   1abd4:	40d00533          	neg	a0,a3
   1abd8:	00f757b3          	srl	a5,a4,a5
   1abdc:	00f547b3          	xor	a5,a0,a5
   1abe0:	00d78533          	add	a0,a5,a3
   1abe4:	03010113          	addi	sp,sp,48
   1abe8:	00008067          	ret
   1abec:	02c12083          	lw	ra,44(sp)
   1abf0:	00000513          	li	a0,0
   1abf4:	03010113          	addi	sp,sp,48
   1abf8:	00008067          	ret

0001abfc <__negsf2>:
   1abfc:	fd010113          	addi	sp,sp,-48
   1ac00:	00c10513          	addi	a0,sp,12
   1ac04:	01010593          	addi	a1,sp,16
   1ac08:	02112623          	sw	ra,44(sp)
   1ac0c:	00a12627          	fsw	fa0,12(sp)
   1ac10:	e98ff0ef          	jal	1a2a8 <__unpack_f>
   1ac14:	01412783          	lw	a5,20(sp)
   1ac18:	01010513          	addi	a0,sp,16
   1ac1c:	0017b793          	seqz	a5,a5
   1ac20:	00f12a23          	sw	a5,20(sp)
   1ac24:	d24ff0ef          	jal	1a148 <__pack_f>
   1ac28:	02c12083          	lw	ra,44(sp)
   1ac2c:	03010113          	addi	sp,sp,48
   1ac30:	00008067          	ret

0001ac34 <__make_fp>:
   1ac34:	fe010113          	addi	sp,sp,-32
   1ac38:	00a12023          	sw	a0,0(sp)
   1ac3c:	00010513          	mv	a0,sp
   1ac40:	00112e23          	sw	ra,28(sp)
   1ac44:	00b12223          	sw	a1,4(sp)
   1ac48:	00c12423          	sw	a2,8(sp)
   1ac4c:	00d12623          	sw	a3,12(sp)
   1ac50:	cf8ff0ef          	jal	1a148 <__pack_f>
   1ac54:	01c12083          	lw	ra,28(sp)
   1ac58:	02010113          	addi	sp,sp,32
   1ac5c:	00008067          	ret

0001ac60 <__extendsfdf2>:
   1ac60:	fd010113          	addi	sp,sp,-48
   1ac64:	00c10513          	addi	a0,sp,12
   1ac68:	01010593          	addi	a1,sp,16
   1ac6c:	02112623          	sw	ra,44(sp)
   1ac70:	00a12627          	fsw	fa0,12(sp)
   1ac74:	e34ff0ef          	jal	1a2a8 <__unpack_f>
   1ac78:	01c12783          	lw	a5,28(sp)
   1ac7c:	01012503          	lw	a0,16(sp)
   1ac80:	01412583          	lw	a1,20(sp)
   1ac84:	01812603          	lw	a2,24(sp)
   1ac88:	01e79713          	slli	a4,a5,0x1e
   1ac8c:	0027d793          	srli	a5,a5,0x2
   1ac90:	9fcff0ef          	jal	19e8c <__make_dp>
   1ac94:	02c12083          	lw	ra,44(sp)
   1ac98:	03010113          	addi	sp,sp,48
   1ac9c:	00008067          	ret

0001aca0 <__errno>:
   1aca0:	8081a503          	lw	a0,-2040(gp) # 1cd88 <_impure_ptr>
   1aca4:	00008067          	ret

Disassembly of section .data:

0001c510 <_fdata>:
   1c510:	0000                	unimp
   1c512:	0000                	unimp
   1c514:	c7fc                	0xc7fc
   1c516:	0001                	0x1
   1c518:	c864                	0xc864
   1c51a:	0001                	0x1
   1c51c:	c8cc                	0xc8cc
   1c51e:	0001                	0x1
   1c520:	0000                	unimp
   1c522:	0000                	unimp
   1c524:	0000                	unimp
   1c526:	0000                	unimp
   1c528:	0000                	unimp
   1c52a:	0000                	unimp
   1c52c:	0000                	unimp
   1c52e:	0000                	unimp
   1c530:	0000                	unimp
   1c532:	0000                	unimp
   1c534:	0000                	unimp
   1c536:	0000                	unimp
   1c538:	0000                	unimp
   1c53a:	0000                	unimp
   1c53c:	0000                	unimp
   1c53e:	0000                	unimp
   1c540:	0000                	unimp
   1c542:	0000                	unimp
   1c544:	b264                	0xb264
   1c546:	0001                	0x1
   1c548:	0000                	unimp
   1c54a:	0000                	unimp
   1c54c:	0000                	unimp
   1c54e:	0000                	unimp
   1c550:	0000                	unimp
   1c552:	0000                	unimp
   1c554:	0000                	unimp
   1c556:	0000                	unimp
   1c558:	0000                	unimp
   1c55a:	0000                	unimp
   1c55c:	0000                	unimp
   1c55e:	0000                	unimp
   1c560:	0000                	unimp
   1c562:	0000                	unimp
   1c564:	0000                	unimp
   1c566:	0000                	unimp
   1c568:	0000                	unimp
   1c56a:	0000                	unimp
   1c56c:	0000                	unimp
   1c56e:	0000                	unimp
   1c570:	0000                	unimp
   1c572:	0000                	unimp
   1c574:	0000                	unimp
   1c576:	0000                	unimp
   1c578:	0000                	unimp
   1c57a:	0000                	unimp
   1c57c:	0000                	unimp
   1c57e:	0000                	unimp
   1c580:	0000                	unimp
   1c582:	0000                	unimp
   1c584:	0000                	unimp
   1c586:	0000                	unimp
   1c588:	0000                	unimp
   1c58a:	0000                	unimp
   1c58c:	0000                	unimp
   1c58e:	0000                	unimp
   1c590:	0000                	unimp
   1c592:	0000                	unimp
   1c594:	0000                	unimp
   1c596:	0000                	unimp
   1c598:	0000                	unimp
   1c59a:	0000                	unimp
   1c59c:	0000                	unimp
   1c59e:	0000                	unimp
   1c5a0:	0000                	unimp
   1c5a2:	0000                	unimp
   1c5a4:	0000                	unimp
   1c5a6:	0000                	unimp
   1c5a8:	0000                	unimp
   1c5aa:	0000                	unimp
   1c5ac:	0000                	unimp
   1c5ae:	0000                	unimp
   1c5b0:	0000                	unimp
   1c5b2:	0000                	unimp
   1c5b4:	0000                	unimp
   1c5b6:	0000                	unimp
   1c5b8:	0001                	0x1
   1c5ba:	0000                	unimp
   1c5bc:	0000                	unimp
   1c5be:	0000                	unimp
   1c5c0:	330e                	0x330e
   1c5c2:	abcd                	0xabcd
   1c5c4:	1234                	0x1234
   1c5c6:	e66d                	0xe66d
   1c5c8:	deec                	0xdeec
   1c5ca:	0005                	0x5
   1c5cc:	0000000b          	custom0	0,0,0,0
   1c5d0:	0000                	unimp
   1c5d2:	0000                	unimp
   1c5d4:	0000                	unimp
   1c5d6:	0000                	unimp
   1c5d8:	0000                	unimp
   1c5da:	0000                	unimp
   1c5dc:	0000                	unimp
   1c5de:	0000                	unimp
   1c5e0:	0000                	unimp
   1c5e2:	0000                	unimp
   1c5e4:	0000                	unimp
   1c5e6:	0000                	unimp
   1c5e8:	0000                	unimp
   1c5ea:	0000                	unimp
   1c5ec:	0000                	unimp
   1c5ee:	0000                	unimp
   1c5f0:	0000                	unimp
   1c5f2:	0000                	unimp
   1c5f4:	0000                	unimp
   1c5f6:	0000                	unimp
   1c5f8:	0000                	unimp
   1c5fa:	0000                	unimp
   1c5fc:	0000                	unimp
   1c5fe:	0000                	unimp
   1c600:	0000                	unimp
   1c602:	0000                	unimp
   1c604:	0000                	unimp
   1c606:	0000                	unimp
   1c608:	0000                	unimp
   1c60a:	0000                	unimp
   1c60c:	0000                	unimp
   1c60e:	0000                	unimp
   1c610:	0000                	unimp
   1c612:	0000                	unimp
   1c614:	0000                	unimp
   1c616:	0000                	unimp
   1c618:	0000                	unimp
   1c61a:	0000                	unimp
   1c61c:	0000                	unimp
   1c61e:	0000                	unimp
   1c620:	0000                	unimp
   1c622:	0000                	unimp
   1c624:	0000                	unimp
   1c626:	0000                	unimp
   1c628:	0000                	unimp
   1c62a:	0000                	unimp
   1c62c:	0000                	unimp
   1c62e:	0000                	unimp
   1c630:	0000                	unimp
   1c632:	0000                	unimp
   1c634:	0000                	unimp
   1c636:	0000                	unimp
   1c638:	0000                	unimp
   1c63a:	0000                	unimp
   1c63c:	0000                	unimp
   1c63e:	0000                	unimp
   1c640:	0000                	unimp
   1c642:	0000                	unimp
   1c644:	0000                	unimp
   1c646:	0000                	unimp
   1c648:	0000                	unimp
   1c64a:	0000                	unimp
   1c64c:	0000                	unimp
   1c64e:	0000                	unimp
   1c650:	0000                	unimp
   1c652:	0000                	unimp
   1c654:	0000                	unimp
   1c656:	0000                	unimp
   1c658:	0000                	unimp
   1c65a:	0000                	unimp
   1c65c:	0000                	unimp
   1c65e:	0000                	unimp
   1c660:	0000                	unimp
   1c662:	0000                	unimp
   1c664:	0000                	unimp
   1c666:	0000                	unimp
   1c668:	0000                	unimp
   1c66a:	0000                	unimp
   1c66c:	0000                	unimp
   1c66e:	0000                	unimp
   1c670:	0000                	unimp
   1c672:	0000                	unimp
   1c674:	0000                	unimp
   1c676:	0000                	unimp
   1c678:	0000                	unimp
   1c67a:	0000                	unimp
   1c67c:	0000                	unimp
   1c67e:	0000                	unimp
   1c680:	0000                	unimp
   1c682:	0000                	unimp
   1c684:	0000                	unimp
   1c686:	0000                	unimp
   1c688:	0000                	unimp
   1c68a:	0000                	unimp
   1c68c:	0000                	unimp
   1c68e:	0000                	unimp
   1c690:	0000                	unimp
   1c692:	0000                	unimp
   1c694:	0000                	unimp
   1c696:	0000                	unimp
   1c698:	0000                	unimp
   1c69a:	0000                	unimp
   1c69c:	0000                	unimp
   1c69e:	0000                	unimp
   1c6a0:	0000                	unimp
   1c6a2:	0000                	unimp
   1c6a4:	0000                	unimp
   1c6a6:	0000                	unimp
   1c6a8:	0000                	unimp
   1c6aa:	0000                	unimp
   1c6ac:	0000                	unimp
   1c6ae:	0000                	unimp
   1c6b0:	0000                	unimp
   1c6b2:	0000                	unimp
   1c6b4:	0000                	unimp
   1c6b6:	0000                	unimp
   1c6b8:	0000                	unimp
   1c6ba:	0000                	unimp
   1c6bc:	0000                	unimp
   1c6be:	0000                	unimp
   1c6c0:	0000                	unimp
   1c6c2:	0000                	unimp
   1c6c4:	0000                	unimp
   1c6c6:	0000                	unimp
   1c6c8:	0000                	unimp
   1c6ca:	0000                	unimp
   1c6cc:	0000                	unimp
   1c6ce:	0000                	unimp
   1c6d0:	0000                	unimp
   1c6d2:	0000                	unimp
   1c6d4:	0000                	unimp
   1c6d6:	0000                	unimp
   1c6d8:	0000                	unimp
   1c6da:	0000                	unimp
   1c6dc:	0000                	unimp
   1c6de:	0000                	unimp
   1c6e0:	0000                	unimp
   1c6e2:	0000                	unimp
   1c6e4:	0000                	unimp
   1c6e6:	0000                	unimp
   1c6e8:	0000                	unimp
   1c6ea:	0000                	unimp
   1c6ec:	0000                	unimp
   1c6ee:	0000                	unimp
   1c6f0:	0000                	unimp
   1c6f2:	0000                	unimp
   1c6f4:	0000                	unimp
   1c6f6:	0000                	unimp
   1c6f8:	0000                	unimp
   1c6fa:	0000                	unimp
   1c6fc:	0000                	unimp
   1c6fe:	0000                	unimp
   1c700:	0000                	unimp
   1c702:	0000                	unimp
   1c704:	0000                	unimp
   1c706:	0000                	unimp
   1c708:	0000                	unimp
   1c70a:	0000                	unimp
   1c70c:	0000                	unimp
   1c70e:	0000                	unimp
   1c710:	0000                	unimp
   1c712:	0000                	unimp
   1c714:	0000                	unimp
   1c716:	0000                	unimp
   1c718:	0000                	unimp
   1c71a:	0000                	unimp
   1c71c:	0000                	unimp
   1c71e:	0000                	unimp
   1c720:	0000                	unimp
   1c722:	0000                	unimp
   1c724:	0000                	unimp
   1c726:	0000                	unimp
   1c728:	0000                	unimp
   1c72a:	0000                	unimp
   1c72c:	0000                	unimp
   1c72e:	0000                	unimp
   1c730:	0000                	unimp
   1c732:	0000                	unimp
   1c734:	0000                	unimp
   1c736:	0000                	unimp
   1c738:	0000                	unimp
   1c73a:	0000                	unimp
   1c73c:	0000                	unimp
   1c73e:	0000                	unimp
   1c740:	0000                	unimp
   1c742:	0000                	unimp
   1c744:	0000                	unimp
   1c746:	0000                	unimp
   1c748:	0000                	unimp
   1c74a:	0000                	unimp
   1c74c:	0000                	unimp
   1c74e:	0000                	unimp
   1c750:	0000                	unimp
   1c752:	0000                	unimp
   1c754:	0000                	unimp
   1c756:	0000                	unimp
   1c758:	0000                	unimp
   1c75a:	0000                	unimp
   1c75c:	0000                	unimp
   1c75e:	0000                	unimp
   1c760:	0000                	unimp
   1c762:	0000                	unimp
   1c764:	0000                	unimp
   1c766:	0000                	unimp
   1c768:	0000                	unimp
   1c76a:	0000                	unimp
   1c76c:	0000                	unimp
   1c76e:	0000                	unimp
   1c770:	0000                	unimp
   1c772:	0000                	unimp
   1c774:	0000                	unimp
   1c776:	0000                	unimp
   1c778:	0000                	unimp
   1c77a:	0000                	unimp
   1c77c:	0000                	unimp
   1c77e:	0000                	unimp
   1c780:	0000                	unimp
   1c782:	0000                	unimp
   1c784:	0000                	unimp
   1c786:	0000                	unimp
   1c788:	0000                	unimp
   1c78a:	0000                	unimp
   1c78c:	0000                	unimp
   1c78e:	0000                	unimp
   1c790:	0000                	unimp
   1c792:	0000                	unimp
   1c794:	0000                	unimp
   1c796:	0000                	unimp
   1c798:	0000                	unimp
   1c79a:	0000                	unimp
   1c79c:	0000                	unimp
   1c79e:	0000                	unimp
   1c7a0:	0000                	unimp
   1c7a2:	0000                	unimp
   1c7a4:	0000                	unimp
   1c7a6:	0000                	unimp
   1c7a8:	0000                	unimp
   1c7aa:	0000                	unimp
   1c7ac:	0000                	unimp
   1c7ae:	0000                	unimp
   1c7b0:	0000                	unimp
   1c7b2:	0000                	unimp
   1c7b4:	0000                	unimp
   1c7b6:	0000                	unimp
   1c7b8:	0000                	unimp
   1c7ba:	0000                	unimp
   1c7bc:	0000                	unimp
   1c7be:	0000                	unimp
   1c7c0:	0000                	unimp
   1c7c2:	0000                	unimp
   1c7c4:	0000                	unimp
   1c7c6:	0000                	unimp
   1c7c8:	0000                	unimp
   1c7ca:	0000                	unimp
   1c7cc:	0000                	unimp
   1c7ce:	0000                	unimp
   1c7d0:	0000                	unimp
   1c7d2:	0000                	unimp
   1c7d4:	0000                	unimp
   1c7d6:	0000                	unimp
   1c7d8:	0000                	unimp
   1c7da:	0000                	unimp
   1c7dc:	0000                	unimp
   1c7de:	0000                	unimp
   1c7e0:	0000                	unimp
   1c7e2:	0000                	unimp
   1c7e4:	0000                	unimp
   1c7e6:	0000                	unimp
   1c7e8:	0000                	unimp
   1c7ea:	0000                	unimp
   1c7ec:	0000                	unimp
   1c7ee:	0000                	unimp
   1c7f0:	0000                	unimp
   1c7f2:	0000                	unimp
   1c7f4:	0000                	unimp
   1c7f6:	0000                	unimp
   1c7f8:	0000                	unimp
   1c7fa:	0000                	unimp
   1c7fc:	0000                	unimp
   1c7fe:	0000                	unimp
   1c800:	0000                	unimp
   1c802:	0000                	unimp
   1c804:	0000                	unimp
   1c806:	0000                	unimp
   1c808:	0000                	unimp
   1c80a:	0000                	unimp
   1c80c:	0000                	unimp
   1c80e:	0000                	unimp
   1c810:	0000                	unimp
   1c812:	0000                	unimp
   1c814:	0000                	unimp
   1c816:	0000                	unimp
   1c818:	0000                	unimp
   1c81a:	0000                	unimp
   1c81c:	0000                	unimp
   1c81e:	0000                	unimp
   1c820:	0000                	unimp
   1c822:	0000                	unimp
   1c824:	0000                	unimp
   1c826:	0000                	unimp
   1c828:	0000                	unimp
   1c82a:	0000                	unimp
   1c82c:	0000                	unimp
   1c82e:	0000                	unimp
   1c830:	0000                	unimp
   1c832:	0000                	unimp
   1c834:	0000                	unimp
   1c836:	0000                	unimp
   1c838:	0000                	unimp
   1c83a:	0000                	unimp
   1c83c:	0000                	unimp
   1c83e:	0000                	unimp
   1c840:	0000                	unimp
   1c842:	0000                	unimp
   1c844:	0000                	unimp
   1c846:	0000                	unimp
   1c848:	0000                	unimp
   1c84a:	0000                	unimp
   1c84c:	0000                	unimp
   1c84e:	0000                	unimp
   1c850:	0000                	unimp
   1c852:	0000                	unimp
   1c854:	0000                	unimp
   1c856:	0000                	unimp
   1c858:	0000                	unimp
   1c85a:	0000                	unimp
   1c85c:	0000                	unimp
   1c85e:	0000                	unimp
   1c860:	0000                	unimp
   1c862:	0000                	unimp
   1c864:	0000                	unimp
   1c866:	0000                	unimp
   1c868:	0000                	unimp
   1c86a:	0000                	unimp
   1c86c:	0000                	unimp
   1c86e:	0000                	unimp
   1c870:	0000                	unimp
   1c872:	0000                	unimp
   1c874:	0000                	unimp
   1c876:	0000                	unimp
   1c878:	0000                	unimp
   1c87a:	0000                	unimp
   1c87c:	0000                	unimp
   1c87e:	0000                	unimp
   1c880:	0000                	unimp
   1c882:	0000                	unimp
   1c884:	0000                	unimp
   1c886:	0000                	unimp
   1c888:	0000                	unimp
   1c88a:	0000                	unimp
   1c88c:	0000                	unimp
   1c88e:	0000                	unimp
   1c890:	0000                	unimp
   1c892:	0000                	unimp
   1c894:	0000                	unimp
   1c896:	0000                	unimp
   1c898:	0000                	unimp
   1c89a:	0000                	unimp
   1c89c:	0000                	unimp
   1c89e:	0000                	unimp
   1c8a0:	0000                	unimp
   1c8a2:	0000                	unimp
   1c8a4:	0000                	unimp
   1c8a6:	0000                	unimp
   1c8a8:	0000                	unimp
   1c8aa:	0000                	unimp
   1c8ac:	0000                	unimp
   1c8ae:	0000                	unimp
   1c8b0:	0000                	unimp
   1c8b2:	0000                	unimp
   1c8b4:	0000                	unimp
   1c8b6:	0000                	unimp
   1c8b8:	0000                	unimp
   1c8ba:	0000                	unimp
   1c8bc:	0000                	unimp
   1c8be:	0000                	unimp
   1c8c0:	0000                	unimp
   1c8c2:	0000                	unimp
   1c8c4:	0000                	unimp
   1c8c6:	0000                	unimp
   1c8c8:	0000                	unimp
   1c8ca:	0000                	unimp
   1c8cc:	0000                	unimp
   1c8ce:	0000                	unimp
   1c8d0:	0000                	unimp
   1c8d2:	0000                	unimp
   1c8d4:	0000                	unimp
   1c8d6:	0000                	unimp
   1c8d8:	0000                	unimp
   1c8da:	0000                	unimp
   1c8dc:	0000                	unimp
   1c8de:	0000                	unimp
   1c8e0:	0000                	unimp
   1c8e2:	0000                	unimp
   1c8e4:	0000                	unimp
   1c8e6:	0000                	unimp
   1c8e8:	0000                	unimp
   1c8ea:	0000                	unimp
   1c8ec:	0000                	unimp
   1c8ee:	0000                	unimp
   1c8f0:	0000                	unimp
   1c8f2:	0000                	unimp
   1c8f4:	0000                	unimp
   1c8f6:	0000                	unimp
   1c8f8:	0000                	unimp
   1c8fa:	0000                	unimp
   1c8fc:	0000                	unimp
   1c8fe:	0000                	unimp
   1c900:	0000                	unimp
   1c902:	0000                	unimp
   1c904:	0000                	unimp
   1c906:	0000                	unimp
   1c908:	0000                	unimp
   1c90a:	0000                	unimp
   1c90c:	0000                	unimp
   1c90e:	0000                	unimp
   1c910:	0000                	unimp
   1c912:	0000                	unimp
   1c914:	0000                	unimp
   1c916:	0000                	unimp
   1c918:	0000                	unimp
   1c91a:	0000                	unimp
   1c91c:	0000                	unimp
   1c91e:	0000                	unimp
   1c920:	0000                	unimp
   1c922:	0000                	unimp
   1c924:	0000                	unimp
   1c926:	0000                	unimp
   1c928:	0000                	unimp
   1c92a:	0000                	unimp
   1c92c:	0000                	unimp
   1c92e:	0000                	unimp
   1c930:	0000                	unimp
   1c932:	0000                	unimp
   1c934:	0000                	unimp
   1c936:	0000                	unimp

0001c938 <lc_ctype_charset>:
   1c938:	5341                	0x5341
   1c93a:	00494943          	fmadd.s	fs2,fs2,ft4,ft0,rmm
   1c93e:	0000                	unimp
   1c940:	0000                	unimp
   1c942:	0000                	unimp
   1c944:	0000                	unimp
   1c946:	0000                	unimp
   1c948:	0000                	unimp
   1c94a:	0000                	unimp
   1c94c:	0000                	unimp
   1c94e:	0000                	unimp
   1c950:	0000                	unimp
   1c952:	0000                	unimp
   1c954:	0000                	unimp
   1c956:	0000                	unimp

0001c958 <lc_message_charset>:
   1c958:	5341                	0x5341
   1c95a:	00494943          	fmadd.s	fs2,fs2,ft4,ft0,rmm
   1c95e:	0000                	unimp
   1c960:	0000                	unimp
   1c962:	0000                	unimp
   1c964:	0000                	unimp
   1c966:	0000                	unimp
   1c968:	0000                	unimp
   1c96a:	0000                	unimp
   1c96c:	0000                	unimp
   1c96e:	0000                	unimp
   1c970:	0000                	unimp
   1c972:	0000                	unimp
   1c974:	0000                	unimp
   1c976:	0000                	unimp

0001c978 <__malloc_av_>:
   1c978:	0000                	unimp
   1c97a:	0000                	unimp
   1c97c:	0000                	unimp
   1c97e:	0000                	unimp
   1c980:	c978                	0xc978
   1c982:	0001                	0x1
   1c984:	c978                	0xc978
   1c986:	0001                	0x1
   1c988:	c980                	0xc980
   1c98a:	0001                	0x1
   1c98c:	c980                	0xc980
   1c98e:	0001                	0x1
   1c990:	c988                	0xc988
   1c992:	0001                	0x1
   1c994:	c988                	0xc988
   1c996:	0001                	0x1
   1c998:	c990                	0xc990
   1c99a:	0001                	0x1
   1c99c:	c990                	0xc990
   1c99e:	0001                	0x1
   1c9a0:	c998                	0xc998
   1c9a2:	0001                	0x1
   1c9a4:	c998                	0xc998
   1c9a6:	0001                	0x1
   1c9a8:	c9a0                	0xc9a0
   1c9aa:	0001                	0x1
   1c9ac:	c9a0                	0xc9a0
   1c9ae:	0001                	0x1
   1c9b0:	c9a8                	0xc9a8
   1c9b2:	0001                	0x1
   1c9b4:	c9a8                	0xc9a8
   1c9b6:	0001                	0x1
   1c9b8:	c9b0                	0xc9b0
   1c9ba:	0001                	0x1
   1c9bc:	c9b0                	0xc9b0
   1c9be:	0001                	0x1
   1c9c0:	c9b8                	0xc9b8
   1c9c2:	0001                	0x1
   1c9c4:	c9b8                	0xc9b8
   1c9c6:	0001                	0x1
   1c9c8:	c9c0                	0xc9c0
   1c9ca:	0001                	0x1
   1c9cc:	c9c0                	0xc9c0
   1c9ce:	0001                	0x1
   1c9d0:	c9c8                	0xc9c8
   1c9d2:	0001                	0x1
   1c9d4:	c9c8                	0xc9c8
   1c9d6:	0001                	0x1
   1c9d8:	c9d0                	0xc9d0
   1c9da:	0001                	0x1
   1c9dc:	c9d0                	0xc9d0
   1c9de:	0001                	0x1
   1c9e0:	c9d8                	0xc9d8
   1c9e2:	0001                	0x1
   1c9e4:	c9d8                	0xc9d8
   1c9e6:	0001                	0x1
   1c9e8:	c9e0                	0xc9e0
   1c9ea:	0001                	0x1
   1c9ec:	c9e0                	0xc9e0
   1c9ee:	0001                	0x1
   1c9f0:	c9e8                	0xc9e8
   1c9f2:	0001                	0x1
   1c9f4:	c9e8                	0xc9e8
   1c9f6:	0001                	0x1
   1c9f8:	c9f0                	0xc9f0
   1c9fa:	0001                	0x1
   1c9fc:	c9f0                	0xc9f0
   1c9fe:	0001                	0x1
   1ca00:	c9f8                	0xc9f8
   1ca02:	0001                	0x1
   1ca04:	c9f8                	0xc9f8
   1ca06:	0001                	0x1
   1ca08:	ca00                	0xca00
   1ca0a:	0001                	0x1
   1ca0c:	ca00                	0xca00
   1ca0e:	0001                	0x1
   1ca10:	ca08                	0xca08
   1ca12:	0001                	0x1
   1ca14:	ca08                	0xca08
   1ca16:	0001                	0x1
   1ca18:	ca10                	0xca10
   1ca1a:	0001                	0x1
   1ca1c:	ca10                	0xca10
   1ca1e:	0001                	0x1
   1ca20:	ca18                	0xca18
   1ca22:	0001                	0x1
   1ca24:	ca18                	0xca18
   1ca26:	0001                	0x1
   1ca28:	ca20                	0xca20
   1ca2a:	0001                	0x1
   1ca2c:	ca20                	0xca20
   1ca2e:	0001                	0x1
   1ca30:	ca28                	0xca28
   1ca32:	0001                	0x1
   1ca34:	ca28                	0xca28
   1ca36:	0001                	0x1
   1ca38:	ca30                	0xca30
   1ca3a:	0001                	0x1
   1ca3c:	ca30                	0xca30
   1ca3e:	0001                	0x1
   1ca40:	ca38                	0xca38
   1ca42:	0001                	0x1
   1ca44:	ca38                	0xca38
   1ca46:	0001                	0x1
   1ca48:	ca40                	0xca40
   1ca4a:	0001                	0x1
   1ca4c:	ca40                	0xca40
   1ca4e:	0001                	0x1
   1ca50:	ca48                	0xca48
   1ca52:	0001                	0x1
   1ca54:	ca48                	0xca48
   1ca56:	0001                	0x1
   1ca58:	ca50                	0xca50
   1ca5a:	0001                	0x1
   1ca5c:	ca50                	0xca50
   1ca5e:	0001                	0x1
   1ca60:	ca58                	0xca58
   1ca62:	0001                	0x1
   1ca64:	ca58                	0xca58
   1ca66:	0001                	0x1
   1ca68:	ca60                	0xca60
   1ca6a:	0001                	0x1
   1ca6c:	ca60                	0xca60
   1ca6e:	0001                	0x1
   1ca70:	ca68                	0xca68
   1ca72:	0001                	0x1
   1ca74:	ca68                	0xca68
   1ca76:	0001                	0x1
   1ca78:	ca70                	0xca70
   1ca7a:	0001                	0x1
   1ca7c:	ca70                	0xca70
   1ca7e:	0001                	0x1
   1ca80:	ca78                	0xca78
   1ca82:	0001                	0x1
   1ca84:	ca78                	0xca78
   1ca86:	0001                	0x1
   1ca88:	ca80                	0xca80
   1ca8a:	0001                	0x1
   1ca8c:	ca80                	0xca80
   1ca8e:	0001                	0x1
   1ca90:	ca88                	0xca88
   1ca92:	0001                	0x1
   1ca94:	ca88                	0xca88
   1ca96:	0001                	0x1
   1ca98:	ca90                	0xca90
   1ca9a:	0001                	0x1
   1ca9c:	ca90                	0xca90
   1ca9e:	0001                	0x1
   1caa0:	ca98                	0xca98
   1caa2:	0001                	0x1
   1caa4:	ca98                	0xca98
   1caa6:	0001                	0x1
   1caa8:	caa0                	0xcaa0
   1caaa:	0001                	0x1
   1caac:	caa0                	0xcaa0
   1caae:	0001                	0x1
   1cab0:	caa8                	0xcaa8
   1cab2:	0001                	0x1
   1cab4:	caa8                	0xcaa8
   1cab6:	0001                	0x1
   1cab8:	cab0                	0xcab0
   1caba:	0001                	0x1
   1cabc:	cab0                	0xcab0
   1cabe:	0001                	0x1
   1cac0:	cab8                	0xcab8
   1cac2:	0001                	0x1
   1cac4:	cab8                	0xcab8
   1cac6:	0001                	0x1
   1cac8:	cac0                	0xcac0
   1caca:	0001                	0x1
   1cacc:	cac0                	0xcac0
   1cace:	0001                	0x1
   1cad0:	cac8                	0xcac8
   1cad2:	0001                	0x1
   1cad4:	cac8                	0xcac8
   1cad6:	0001                	0x1
   1cad8:	cad0                	0xcad0
   1cada:	0001                	0x1
   1cadc:	cad0                	0xcad0
   1cade:	0001                	0x1
   1cae0:	cad8                	0xcad8
   1cae2:	0001                	0x1
   1cae4:	cad8                	0xcad8
   1cae6:	0001                	0x1
   1cae8:	cae0                	0xcae0
   1caea:	0001                	0x1
   1caec:	cae0                	0xcae0
   1caee:	0001                	0x1
   1caf0:	cae8                	0xcae8
   1caf2:	0001                	0x1
   1caf4:	cae8                	0xcae8
   1caf6:	0001                	0x1
   1caf8:	caf0                	0xcaf0
   1cafa:	0001                	0x1
   1cafc:	caf0                	0xcaf0
   1cafe:	0001                	0x1
   1cb00:	caf8                	0xcaf8
   1cb02:	0001                	0x1
   1cb04:	caf8                	0xcaf8
   1cb06:	0001                	0x1
   1cb08:	cb00                	0xcb00
   1cb0a:	0001                	0x1
   1cb0c:	cb00                	0xcb00
   1cb0e:	0001                	0x1
   1cb10:	cb08                	0xcb08
   1cb12:	0001                	0x1
   1cb14:	cb08                	0xcb08
   1cb16:	0001                	0x1
   1cb18:	cb10                	0xcb10
   1cb1a:	0001                	0x1
   1cb1c:	cb10                	0xcb10
   1cb1e:	0001                	0x1
   1cb20:	cb18                	0xcb18
   1cb22:	0001                	0x1
   1cb24:	cb18                	0xcb18
   1cb26:	0001                	0x1
   1cb28:	cb20                	0xcb20
   1cb2a:	0001                	0x1
   1cb2c:	cb20                	0xcb20
   1cb2e:	0001                	0x1
   1cb30:	cb28                	0xcb28
   1cb32:	0001                	0x1
   1cb34:	cb28                	0xcb28
   1cb36:	0001                	0x1
   1cb38:	cb30                	0xcb30
   1cb3a:	0001                	0x1
   1cb3c:	cb30                	0xcb30
   1cb3e:	0001                	0x1
   1cb40:	cb38                	0xcb38
   1cb42:	0001                	0x1
   1cb44:	cb38                	0xcb38
   1cb46:	0001                	0x1
   1cb48:	cb40                	0xcb40
   1cb4a:	0001                	0x1
   1cb4c:	cb40                	0xcb40
   1cb4e:	0001                	0x1
   1cb50:	cb48                	0xcb48
   1cb52:	0001                	0x1
   1cb54:	cb48                	0xcb48
   1cb56:	0001                	0x1
   1cb58:	cb50                	0xcb50
   1cb5a:	0001                	0x1
   1cb5c:	cb50                	0xcb50
   1cb5e:	0001                	0x1
   1cb60:	cb58                	0xcb58
   1cb62:	0001                	0x1
   1cb64:	cb58                	0xcb58
   1cb66:	0001                	0x1
   1cb68:	cb60                	0xcb60
   1cb6a:	0001                	0x1
   1cb6c:	cb60                	0xcb60
   1cb6e:	0001                	0x1
   1cb70:	cb68                	0xcb68
   1cb72:	0001                	0x1
   1cb74:	cb68                	0xcb68
   1cb76:	0001                	0x1
   1cb78:	cb70                	0xcb70
   1cb7a:	0001                	0x1
   1cb7c:	cb70                	0xcb70
   1cb7e:	0001                	0x1
   1cb80:	cb78                	0xcb78
   1cb82:	0001                	0x1
   1cb84:	cb78                	0xcb78
   1cb86:	0001                	0x1
   1cb88:	cb80                	0xcb80
   1cb8a:	0001                	0x1
   1cb8c:	cb80                	0xcb80
   1cb8e:	0001                	0x1
   1cb90:	cb88                	0xcb88
   1cb92:	0001                	0x1
   1cb94:	cb88                	0xcb88
   1cb96:	0001                	0x1
   1cb98:	cb90                	0xcb90
   1cb9a:	0001                	0x1
   1cb9c:	cb90                	0xcb90
   1cb9e:	0001                	0x1
   1cba0:	cb98                	0xcb98
   1cba2:	0001                	0x1
   1cba4:	cb98                	0xcb98
   1cba6:	0001                	0x1
   1cba8:	cba0                	0xcba0
   1cbaa:	0001                	0x1
   1cbac:	cba0                	0xcba0
   1cbae:	0001                	0x1
   1cbb0:	cba8                	0xcba8
   1cbb2:	0001                	0x1
   1cbb4:	cba8                	0xcba8
   1cbb6:	0001                	0x1
   1cbb8:	cbb0                	0xcbb0
   1cbba:	0001                	0x1
   1cbbc:	cbb0                	0xcbb0
   1cbbe:	0001                	0x1
   1cbc0:	cbb8                	0xcbb8
   1cbc2:	0001                	0x1
   1cbc4:	cbb8                	0xcbb8
   1cbc6:	0001                	0x1
   1cbc8:	cbc0                	0xcbc0
   1cbca:	0001                	0x1
   1cbcc:	cbc0                	0xcbc0
   1cbce:	0001                	0x1
   1cbd0:	cbc8                	0xcbc8
   1cbd2:	0001                	0x1
   1cbd4:	cbc8                	0xcbc8
   1cbd6:	0001                	0x1
   1cbd8:	cbd0                	0xcbd0
   1cbda:	0001                	0x1
   1cbdc:	cbd0                	0xcbd0
   1cbde:	0001                	0x1
   1cbe0:	cbd8                	0xcbd8
   1cbe2:	0001                	0x1
   1cbe4:	cbd8                	0xcbd8
   1cbe6:	0001                	0x1
   1cbe8:	cbe0                	0xcbe0
   1cbea:	0001                	0x1
   1cbec:	cbe0                	0xcbe0
   1cbee:	0001                	0x1
   1cbf0:	cbe8                	0xcbe8
   1cbf2:	0001                	0x1
   1cbf4:	cbe8                	0xcbe8
   1cbf6:	0001                	0x1
   1cbf8:	cbf0                	0xcbf0
   1cbfa:	0001                	0x1
   1cbfc:	cbf0                	0xcbf0
   1cbfe:	0001                	0x1
   1cc00:	cbf8                	0xcbf8
   1cc02:	0001                	0x1
   1cc04:	cbf8                	0xcbf8
   1cc06:	0001                	0x1
   1cc08:	cc00                	0xcc00
   1cc0a:	0001                	0x1
   1cc0c:	cc00                	0xcc00
   1cc0e:	0001                	0x1
   1cc10:	cc08                	0xcc08
   1cc12:	0001                	0x1
   1cc14:	cc08                	0xcc08
   1cc16:	0001                	0x1
   1cc18:	cc10                	0xcc10
   1cc1a:	0001                	0x1
   1cc1c:	cc10                	0xcc10
   1cc1e:	0001                	0x1
   1cc20:	cc18                	0xcc18
   1cc22:	0001                	0x1
   1cc24:	cc18                	0xcc18
   1cc26:	0001                	0x1
   1cc28:	cc20                	0xcc20
   1cc2a:	0001                	0x1
   1cc2c:	cc20                	0xcc20
   1cc2e:	0001                	0x1
   1cc30:	cc28                	0xcc28
   1cc32:	0001                	0x1
   1cc34:	cc28                	0xcc28
   1cc36:	0001                	0x1
   1cc38:	cc30                	0xcc30
   1cc3a:	0001                	0x1
   1cc3c:	cc30                	0xcc30
   1cc3e:	0001                	0x1
   1cc40:	cc38                	0xcc38
   1cc42:	0001                	0x1
   1cc44:	cc38                	0xcc38
   1cc46:	0001                	0x1
   1cc48:	cc40                	0xcc40
   1cc4a:	0001                	0x1
   1cc4c:	cc40                	0xcc40
   1cc4e:	0001                	0x1
   1cc50:	cc48                	0xcc48
   1cc52:	0001                	0x1
   1cc54:	cc48                	0xcc48
   1cc56:	0001                	0x1
   1cc58:	cc50                	0xcc50
   1cc5a:	0001                	0x1
   1cc5c:	cc50                	0xcc50
   1cc5e:	0001                	0x1
   1cc60:	cc58                	0xcc58
   1cc62:	0001                	0x1
   1cc64:	cc58                	0xcc58
   1cc66:	0001                	0x1
   1cc68:	cc60                	0xcc60
   1cc6a:	0001                	0x1
   1cc6c:	cc60                	0xcc60
   1cc6e:	0001                	0x1
   1cc70:	cc68                	0xcc68
   1cc72:	0001                	0x1
   1cc74:	cc68                	0xcc68
   1cc76:	0001                	0x1
   1cc78:	cc70                	0xcc70
   1cc7a:	0001                	0x1
   1cc7c:	cc70                	0xcc70
   1cc7e:	0001                	0x1
   1cc80:	cc78                	0xcc78
   1cc82:	0001                	0x1
   1cc84:	cc78                	0xcc78
   1cc86:	0001                	0x1
   1cc88:	cc80                	0xcc80
   1cc8a:	0001                	0x1
   1cc8c:	cc80                	0xcc80
   1cc8e:	0001                	0x1
   1cc90:	cc88                	0xcc88
   1cc92:	0001                	0x1
   1cc94:	cc88                	0xcc88
   1cc96:	0001                	0x1
   1cc98:	cc90                	0xcc90
   1cc9a:	0001                	0x1
   1cc9c:	cc90                	0xcc90
   1cc9e:	0001                	0x1
   1cca0:	cc98                	0xcc98
   1cca2:	0001                	0x1
   1cca4:	cc98                	0xcc98
   1cca6:	0001                	0x1
   1cca8:	cca0                	0xcca0
   1ccaa:	0001                	0x1
   1ccac:	cca0                	0xcca0
   1ccae:	0001                	0x1
   1ccb0:	cca8                	0xcca8
   1ccb2:	0001                	0x1
   1ccb4:	cca8                	0xcca8
   1ccb6:	0001                	0x1
   1ccb8:	ccb0                	0xccb0
   1ccba:	0001                	0x1
   1ccbc:	ccb0                	0xccb0
   1ccbe:	0001                	0x1
   1ccc0:	ccb8                	0xccb8
   1ccc2:	0001                	0x1
   1ccc4:	ccb8                	0xccb8
   1ccc6:	0001                	0x1
   1ccc8:	ccc0                	0xccc0
   1ccca:	0001                	0x1
   1cccc:	ccc0                	0xccc0
   1ccce:	0001                	0x1
   1ccd0:	ccc8                	0xccc8
   1ccd2:	0001                	0x1
   1ccd4:	ccc8                	0xccc8
   1ccd6:	0001                	0x1
   1ccd8:	ccd0                	0xccd0
   1ccda:	0001                	0x1
   1ccdc:	ccd0                	0xccd0
   1ccde:	0001                	0x1
   1cce0:	ccd8                	0xccd8
   1cce2:	0001                	0x1
   1cce4:	ccd8                	0xccd8
   1cce6:	0001                	0x1
   1cce8:	cce0                	0xcce0
   1ccea:	0001                	0x1
   1ccec:	cce0                	0xcce0
   1ccee:	0001                	0x1
   1ccf0:	cce8                	0xcce8
   1ccf2:	0001                	0x1
   1ccf4:	cce8                	0xcce8
   1ccf6:	0001                	0x1
   1ccf8:	ccf0                	0xccf0
   1ccfa:	0001                	0x1
   1ccfc:	ccf0                	0xccf0
   1ccfe:	0001                	0x1
   1cd00:	ccf8                	0xccf8
   1cd02:	0001                	0x1
   1cd04:	ccf8                	0xccf8
   1cd06:	0001                	0x1
   1cd08:	cd00                	0xcd00
   1cd0a:	0001                	0x1
   1cd0c:	cd00                	0xcd00
   1cd0e:	0001                	0x1
   1cd10:	cd08                	0xcd08
   1cd12:	0001                	0x1
   1cd14:	cd08                	0xcd08
   1cd16:	0001                	0x1
   1cd18:	cd10                	0xcd10
   1cd1a:	0001                	0x1
   1cd1c:	cd10                	0xcd10
   1cd1e:	0001                	0x1
   1cd20:	cd18                	0xcd18
   1cd22:	0001                	0x1
   1cd24:	cd18                	0xcd18
   1cd26:	0001                	0x1
   1cd28:	cd20                	0xcd20
   1cd2a:	0001                	0x1
   1cd2c:	cd20                	0xcd20
   1cd2e:	0001                	0x1
   1cd30:	cd28                	0xcd28
   1cd32:	0001                	0x1
   1cd34:	cd28                	0xcd28
   1cd36:	0001                	0x1
   1cd38:	cd30                	0xcd30
   1cd3a:	0001                	0x1
   1cd3c:	cd30                	0xcd30
   1cd3e:	0001                	0x1
   1cd40:	cd38                	0xcd38
   1cd42:	0001                	0x1
   1cd44:	cd38                	0xcd38
   1cd46:	0001                	0x1
   1cd48:	cd40                	0xcd40
   1cd4a:	0001                	0x1
   1cd4c:	cd40                	0xcd40
   1cd4e:	0001                	0x1
   1cd50:	cd48                	0xcd48
   1cd52:	0001                	0x1
   1cd54:	cd48                	0xcd48
   1cd56:	0001                	0x1
   1cd58:	cd50                	0xcd50
   1cd5a:	0001                	0x1
   1cd5c:	cd50                	0xcd50
   1cd5e:	0001                	0x1
   1cd60:	cd58                	0xcd58
   1cd62:	0001                	0x1
   1cd64:	cd58                	0xcd58
   1cd66:	0001                	0x1
   1cd68:	cd60                	0xcd60
   1cd6a:	0001                	0x1
   1cd6c:	cd60                	0xcd60
   1cd6e:	0001                	0x1
   1cd70:	cd68                	0xcd68
   1cd72:	0001                	0x1
   1cd74:	cd68                	0xcd68
   1cd76:	0001                	0x1
   1cd78:	cd70                	0xcd70
   1cd7a:	0001                	0x1
   1cd7c:	cd70                	0xcd70
   1cd7e:	0001                	0x1
