
test1.bin:     file format elf32-littleriscv


Disassembly of section .text:

00010000 <_ftext>:
   10000:	00003197          	auipc	gp,0x3
   10004:	98018193          	addi	gp,gp,-1664 # 12980 <_gp>
   10008:	00002297          	auipc	t0,0x2
   1000c:	18828293          	addi	t0,t0,392 # 12190 <_fbss>
   10010:	00002317          	auipc	t1,0x2
   10014:	1b830313          	addi	t1,t1,440 # 121c8 <_end>
   10018:	0002a023          	sw	zero,0(t0)
   1001c:	00428293          	addi	t0,t0,4
   10020:	fe62ece3          	bltu	t0,t1,10018 <_ftext+0x18>
   10024:	00000517          	auipc	a0,0x0
   10028:	4d450513          	addi	a0,a0,1236 # 104f8 <__libc_fini_array>
   1002c:	3e8000ef          	jal	10414 <atexit>
   10030:	428000ef          	jal	10458 <__libc_init_array>
   10034:	00012503          	lw	a0,0(sp)
   10038:	00410593          	addi	a1,sp,4
   1003c:	00000613          	li	a2,0
   10040:	1a0000ef          	jal	101e0 <main>
   10044:	3e40006f          	j	10428 <exit>

00010048 <_fini>:
   10048:	00008067          	ret

0001004c <deregister_tm_clones>:
   1004c:	00012537          	lui	a0,0x12
   10050:	000127b7          	lui	a5,0x12
   10054:	17850713          	addi	a4,a0,376 # 12178 <__TMC_END__>
   10058:	17b78793          	addi	a5,a5,379 # 1217b <__TMC_END__+0x3>
   1005c:	40e787b3          	sub	a5,a5,a4
   10060:	00600713          	li	a4,6
   10064:	00f77a63          	bleu	a5,a4,10078 <deregister_tm_clones+0x2c>
   10068:	00000293          	li	t0,0
   1006c:	00028663          	beqz	t0,10078 <deregister_tm_clones+0x2c>
   10070:	17850513          	addi	a0,a0,376
   10074:	00028067          	jr	t0
   10078:	00008067          	ret

0001007c <register_tm_clones>:
   1007c:	00012537          	lui	a0,0x12
   10080:	000127b7          	lui	a5,0x12
   10084:	17850593          	addi	a1,a0,376 # 12178 <__TMC_END__>
   10088:	17878793          	addi	a5,a5,376 # 12178 <__TMC_END__>
   1008c:	40b787b3          	sub	a5,a5,a1
   10090:	4027d793          	srai	a5,a5,0x2
   10094:	01f7d593          	srli	a1,a5,0x1f
   10098:	00f585b3          	add	a1,a1,a5
   1009c:	4015d593          	srai	a1,a1,0x1
   100a0:	00058a63          	beqz	a1,100b4 <register_tm_clones+0x38>
   100a4:	00000293          	li	t0,0
   100a8:	00028663          	beqz	t0,100b4 <register_tm_clones+0x38>
   100ac:	17850513          	addi	a0,a0,376
   100b0:	00028067          	jr	t0
   100b4:	00008067          	ret

000100b8 <__do_global_dtors_aux>:
   100b8:	ff010113          	addi	sp,sp,-16
   100bc:	00812423          	sw	s0,8(sp)
   100c0:	8181c783          	lbu	a5,-2024(gp) # 12198 <completed.2868>
   100c4:	00112623          	sw	ra,12(sp)
   100c8:	02079263          	bnez	a5,100ec <__do_global_dtors_aux+0x34>
   100cc:	f81ff0ef          	jal	1004c <deregister_tm_clones>
   100d0:	00000793          	li	a5,0
   100d4:	00078863          	beqz	a5,100e4 <__do_global_dtors_aux+0x2c>
   100d8:	00011537          	lui	a0,0x11
   100dc:	ba050513          	addi	a0,a0,-1120 # 10ba0 <__fini_array_end>
   100e0:	f21ef0ef          	jal	0 <_ftext-0x10000>
   100e4:	00100793          	li	a5,1
   100e8:	80f18c23          	sb	a5,-2024(gp) # 12198 <completed.2868>
   100ec:	00c12083          	lw	ra,12(sp)
   100f0:	00812403          	lw	s0,8(sp)
   100f4:	01010113          	addi	sp,sp,16
   100f8:	00008067          	ret

000100fc <frame_dummy>:
   100fc:	ff010113          	addi	sp,sp,-16
   10100:	00000793          	li	a5,0
   10104:	00112623          	sw	ra,12(sp)
   10108:	00078a63          	beqz	a5,1011c <frame_dummy+0x20>
   1010c:	00011537          	lui	a0,0x11
   10110:	ba050513          	addi	a0,a0,-1120 # 10ba0 <__fini_array_end>
   10114:	81c18593          	addi	a1,gp,-2020 # 1219c <object.2873>
   10118:	ee9ef0ef          	jal	0 <_ftext-0x10000>
   1011c:	00011537          	lui	a0,0x11
   10120:	f3c50513          	addi	a0,a0,-196 # 10f3c <__JCR_END__>
   10124:	00052783          	lw	a5,0(a0)
   10128:	00079863          	bnez	a5,10138 <frame_dummy+0x3c>
   1012c:	00c12083          	lw	ra,12(sp)
   10130:	01010113          	addi	sp,sp,16
   10134:	f49ff06f          	j	1007c <register_tm_clones>
   10138:	00000793          	li	a5,0
   1013c:	fe0788e3          	beqz	a5,1012c <frame_dummy+0x30>
   10140:	000780e7          	jalr	a5
   10144:	fe9ff06f          	j	1012c <frame_dummy+0x30>
   10148:	0000                	unimp
   1014a:	0000                	unimp
   1014c:	0000                	unimp
   1014e:	0000                	unimp

00010150 <vvadd>:
   10150:	fd810113          	addi	sp,sp,-40
   10154:	02812223          	sw	s0,36(sp)
   10158:	00200433          	add	s0,zero,sp
   1015c:	02a42023          	sw	a0,32(s0)
   10160:	00b42e23          	sw	a1,28(s0)
   10164:	00c42c23          	sw	a2,24(s0)
   10168:	00d42a23          	sw	a3,20(s0)
   1016c:	00042823          	sw	zero,16(s0)
   10170:	00b42623          	sw	a1,12(s0)
   10174:	00d42423          	sw	a3,8(s0)
   10178:	00c42223          	sw	a2,4(s0)
   1017c:	00a42023          	sw	a0,0(s0)
   10180:	01042283          	lw	t0,16(s0)
   10184:	02042303          	lw	t1,32(s0)
   10188:	0462d463          	ble	t1,t0,101d0 <vvadd+0x80>
   1018c:	0040006f          	j	10190 <vvadd+0x40>
   10190:	01042283          	lw	t0,16(s0)
   10194:	01c42303          	lw	t1,28(s0)
   10198:	00229293          	slli	t0,t0,0x2
   1019c:	00530333          	add	t1,t1,t0
   101a0:	00032303          	lw	t1,0(t1)
   101a4:	01842383          	lw	t2,24(s0)
   101a8:	005383b3          	add	t2,t2,t0
   101ac:	0003a383          	lw	t2,0(t2)
   101b0:	00730333          	add	t1,t1,t2
   101b4:	01442383          	lw	t2,20(s0)
   101b8:	005382b3          	add	t0,t2,t0
   101bc:	0062a023          	sw	t1,0(t0)
   101c0:	01042283          	lw	t0,16(s0)
   101c4:	00128293          	addi	t0,t0,1
   101c8:	00542823          	sw	t0,16(s0)
   101cc:	fb5ff06f          	j	10180 <vvadd+0x30>
   101d0:	00800133          	add	sp,zero,s0
   101d4:	02412403          	lw	s0,36(sp)
   101d8:	02810113          	addi	sp,sp,40
   101dc:	00008067          	ret

000101e0 <main>:
   101e0:	b2010113          	addi	sp,sp,-1248
   101e4:	4c112e23          	sw	ra,1244(sp)
   101e8:	4c312c23          	sw	gp,1240(sp)
   101ec:	4c812a23          	sw	s0,1236(sp)
   101f0:	00200433          	add	s0,zero,sp
   101f4:	4c042823          	sw	zero,1232(s0)
   101f8:	4ca42623          	sw	a0,1228(s0)
   101fc:	4cb42423          	sw	a1,1224(s0)
   10200:	00100293          	li	t0,1
   10204:	00a42a23          	sw	a0,20(s0)
   10208:	00028513          	mv	a0,t0
   1020c:	00b42823          	sw	a1,16(s0)
   10210:	070000ef          	jal	10280 <setStats>
   10214:	01840293          	addi	t0,s0,24
   10218:	12c00513          	li	a0,300
   1021c:	000115b7          	lui	a1,0x11
   10220:	f4058593          	addi	a1,a1,-192 # 10f40 <_fdata>
   10224:	00011337          	lui	t1,0x11
   10228:	3f030613          	addi	a2,t1,1008 # 113f0 <input2_data>
   1022c:	00a42623          	sw	a0,12(s0)
   10230:	00028693          	mv	a3,t0
   10234:	00542423          	sw	t0,8(s0)
   10238:	f19ff0ef          	jal	10150 <vvadd>
   1023c:	00000513          	li	a0,0
   10240:	040000ef          	jal	10280 <setStats>
   10244:	000122b7          	lui	t0,0x12
   10248:	8a028613          	addi	a2,t0,-1888 # 118a0 <verify_data>
   1024c:	00c42503          	lw	a0,12(s0)
   10250:	00842583          	lw	a1,8(s0)
   10254:	05c000ef          	jal	102b0 <verify>
   10258:	01042283          	lw	t0,16(s0)
   1025c:	01442303          	lw	t1,20(s0)
   10260:	00642223          	sw	t1,4(s0)
   10264:	00542023          	sw	t0,0(s0)
   10268:	00800133          	add	sp,zero,s0
   1026c:	4d412403          	lw	s0,1236(sp)
   10270:	4d812183          	lw	gp,1240(sp)
   10274:	4dc12083          	lw	ra,1244(sp)
   10278:	4e010113          	addi	sp,sp,1248
   1027c:	00008067          	ret

00010280 <setStats>:
   10280:	ff410113          	addi	sp,sp,-12
   10284:	00812423          	sw	s0,8(sp)
   10288:	00200433          	add	s0,zero,sp
   1028c:	00a42223          	sw	a0,4(s0)
   10290:	00a42023          	sw	a0,0(s0)
   10294:	00800133          	add	sp,zero,s0
   10298:	00812403          	lw	s0,8(sp)
   1029c:	00c10113          	addi	sp,sp,12
   102a0:	00008067          	ret
   102a4:	00000013          	nop
   102a8:	00000013          	nop
   102ac:	00000013          	nop

000102b0 <verify>:
   102b0:	fcc10113          	addi	sp,sp,-52
   102b4:	02812823          	sw	s0,48(sp)
   102b8:	00200433          	add	s0,zero,sp
   102bc:	02a42423          	sw	a0,40(s0)
   102c0:	02b42223          	sw	a1,36(s0)
   102c4:	02c42023          	sw	a2,32(s0)
   102c8:	00042e23          	sw	zero,28(s0)
   102cc:	00b42423          	sw	a1,8(s0)
   102d0:	00c42223          	sw	a2,4(s0)
   102d4:	00a42023          	sw	a0,0(s0)
   102d8:	01c42283          	lw	t0,28(s0)
   102dc:	02842303          	lw	t1,40(s0)
   102e0:	01f35393          	srli	t2,t1,0x1f
   102e4:	00730333          	add	t1,t1,t2
   102e8:	ffe37313          	andi	t1,t1,-2
   102ec:	0a62dc63          	ble	t1,t0,103a4 <verify+0xf4>
   102f0:	0040006f          	j	102f4 <verify+0x44>
   102f4:	01c42283          	lw	t0,28(s0)
   102f8:	02442303          	lw	t1,36(s0)
   102fc:	00229293          	slli	t0,t0,0x2
   10300:	005302b3          	add	t0,t1,t0
   10304:	0002a283          	lw	t0,0(t0)
   10308:	00542c23          	sw	t0,24(s0)
   1030c:	01c42283          	lw	t0,28(s0)
   10310:	02442303          	lw	t1,36(s0)
   10314:	00229293          	slli	t0,t0,0x2
   10318:	006282b3          	add	t0,t0,t1
   1031c:	0042a283          	lw	t0,4(t0)
   10320:	00542a23          	sw	t0,20(s0)
   10324:	01c42283          	lw	t0,28(s0)
   10328:	02042303          	lw	t1,32(s0)
   1032c:	00229293          	slli	t0,t0,0x2
   10330:	005302b3          	add	t0,t1,t0
   10334:	0002a283          	lw	t0,0(t0)
   10338:	00542823          	sw	t0,16(s0)
   1033c:	01c42283          	lw	t0,28(s0)
   10340:	02042303          	lw	t1,32(s0)
   10344:	00229293          	slli	t0,t0,0x2
   10348:	006282b3          	add	t0,t0,t1
   1034c:	0042a283          	lw	t0,4(t0)
   10350:	00542623          	sw	t0,12(s0)
   10354:	01842283          	lw	t0,24(s0)
   10358:	01042303          	lw	t1,16(s0)
   1035c:	00628c63          	beq	t0,t1,10374 <verify+0xc4>
   10360:	0040006f          	j	10364 <verify+0xb4>
   10364:	01c42283          	lw	t0,28(s0)
   10368:	00128293          	addi	t0,t0,1
   1036c:	02542623          	sw	t0,44(s0)
   10370:	0900006f          	j	10400 <verify+0x150>
   10374:	01442283          	lw	t0,20(s0)
   10378:	00c42303          	lw	t1,12(s0)
   1037c:	00628c63          	beq	t0,t1,10394 <verify+0xe4>
   10380:	0040006f          	j	10384 <verify+0xd4>
   10384:	01c42283          	lw	t0,28(s0)
   10388:	00228293          	addi	t0,t0,2
   1038c:	02542623          	sw	t0,44(s0)
   10390:	0700006f          	j	10400 <verify+0x150>
   10394:	01c42283          	lw	t0,28(s0)
   10398:	00228293          	addi	t0,t0,2
   1039c:	00542e23          	sw	t0,28(s0)
   103a0:	f39ff06f          	j	102d8 <verify+0x28>
   103a4:	02842283          	lw	t0,40(s0)
   103a8:	01f2d313          	srli	t1,t0,0x1f
   103ac:	00628333          	add	t1,t0,t1
   103b0:	ffe37313          	andi	t1,t1,-2
   103b4:	406282b3          	sub	t0,t0,t1
   103b8:	04028263          	beqz	t0,103fc <verify+0x14c>
   103bc:	0040006f          	j	103c0 <verify+0x110>
   103c0:	02842283          	lw	t0,40(s0)
   103c4:	02442303          	lw	t1,36(s0)
   103c8:	00229293          	slli	t0,t0,0x2
   103cc:	006282b3          	add	t0,t0,t1
   103d0:	ffc2a283          	lw	t0,-4(t0)
   103d4:	02842303          	lw	t1,40(s0)
   103d8:	02042383          	lw	t2,32(s0)
   103dc:	00231313          	slli	t1,t1,0x2
   103e0:	00730333          	add	t1,t1,t2
   103e4:	ffc32303          	lw	t1,-4(t1)
   103e8:	00628a63          	beq	t0,t1,103fc <verify+0x14c>
   103ec:	0040006f          	j	103f0 <verify+0x140>
   103f0:	02842283          	lw	t0,40(s0)
   103f4:	02542623          	sw	t0,44(s0)
   103f8:	0080006f          	j	10400 <verify+0x150>
   103fc:	02042623          	sw	zero,44(s0)
   10400:	02c42503          	lw	a0,44(s0)
   10404:	00800133          	add	sp,zero,s0
   10408:	03012403          	lw	s0,48(sp)
   1040c:	03410113          	addi	sp,sp,52
   10410:	00008067          	ret

00010414 <atexit>:
   10414:	00050593          	mv	a1,a0
   10418:	00000613          	li	a2,0
   1041c:	00000513          	li	a0,0
   10420:	00000693          	li	a3,0
   10424:	12c0006f          	j	10550 <__register_exitproc>

00010428 <exit>:
   10428:	ff010113          	addi	sp,sp,-16
   1042c:	00000593          	li	a1,0
   10430:	00812423          	sw	s0,8(sp)
   10434:	00112623          	sw	ra,12(sp)
   10438:	00050413          	mv	s0,a0
   1043c:	214000ef          	jal	10650 <__call_exitprocs>
   10440:	8041a503          	lw	a0,-2044(gp) # 12184 <_global_impure_ptr>
   10444:	03c52783          	lw	a5,60(a0)
   10448:	00078463          	beqz	a5,10450 <exit+0x28>
   1044c:	000780e7          	jalr	a5
   10450:	00040513          	mv	a0,s0
   10454:	71c000ef          	jal	10b70 <_exit>

00010458 <__libc_init_array>:
   10458:	ff010113          	addi	sp,sp,-16
   1045c:	00812423          	sw	s0,8(sp)
   10460:	000117b7          	lui	a5,0x11
   10464:	00011437          	lui	s0,0x11
   10468:	01212023          	sw	s2,0(sp)
   1046c:	b9878793          	addi	a5,a5,-1128 # 10b98 <_etext>
   10470:	b9840913          	addi	s2,s0,-1128 # 10b98 <_etext>
   10474:	41278933          	sub	s2,a5,s2
   10478:	40295913          	srai	s2,s2,0x2
   1047c:	00912223          	sw	s1,4(sp)
   10480:	00112623          	sw	ra,12(sp)
   10484:	b9840413          	addi	s0,s0,-1128
   10488:	00000493          	li	s1,0
   1048c:	00090c63          	beqz	s2,104a4 <__libc_init_array+0x4c>
   10490:	00042783          	lw	a5,0(s0)
   10494:	00148493          	addi	s1,s1,1
   10498:	00440413          	addi	s0,s0,4
   1049c:	000780e7          	jalr	a5
   104a0:	fe9918e3          	bne	s2,s1,10490 <__libc_init_array+0x38>
   104a4:	00011437          	lui	s0,0x11
   104a8:	ba1ff0ef          	jal	10048 <_fini>
   104ac:	000117b7          	lui	a5,0x11
   104b0:	b9840913          	addi	s2,s0,-1128 # 10b98 <_etext>
   104b4:	b9c78793          	addi	a5,a5,-1124 # 10b9c <__init_array_end>
   104b8:	41278933          	sub	s2,a5,s2
   104bc:	40295913          	srai	s2,s2,0x2
   104c0:	b9840413          	addi	s0,s0,-1128
   104c4:	00000493          	li	s1,0
   104c8:	00090c63          	beqz	s2,104e0 <__libc_init_array+0x88>
   104cc:	00042783          	lw	a5,0(s0)
   104d0:	00148493          	addi	s1,s1,1
   104d4:	00440413          	addi	s0,s0,4
   104d8:	000780e7          	jalr	a5
   104dc:	fe9918e3          	bne	s2,s1,104cc <__libc_init_array+0x74>
   104e0:	00c12083          	lw	ra,12(sp)
   104e4:	00812403          	lw	s0,8(sp)
   104e8:	00412483          	lw	s1,4(sp)
   104ec:	00012903          	lw	s2,0(sp)
   104f0:	01010113          	addi	sp,sp,16
   104f4:	00008067          	ret

000104f8 <__libc_fini_array>:
   104f8:	ff010113          	addi	sp,sp,-16
   104fc:	00812423          	sw	s0,8(sp)
   10500:	000117b7          	lui	a5,0x11
   10504:	00011437          	lui	s0,0x11
   10508:	b9c40413          	addi	s0,s0,-1124 # 10b9c <__init_array_end>
   1050c:	ba078793          	addi	a5,a5,-1120 # 10ba0 <__fini_array_end>
   10510:	408787b3          	sub	a5,a5,s0
   10514:	00912223          	sw	s1,4(sp)
   10518:	4027d493          	srai	s1,a5,0x2
   1051c:	00112623          	sw	ra,12(sp)
   10520:	00878433          	add	s0,a5,s0
   10524:	00048c63          	beqz	s1,1053c <__libc_fini_array+0x44>
   10528:	ffc42783          	lw	a5,-4(s0)
   1052c:	fff48493          	addi	s1,s1,-1
   10530:	ffc40413          	addi	s0,s0,-4
   10534:	000780e7          	jalr	a5
   10538:	fe0498e3          	bnez	s1,10528 <__libc_fini_array+0x30>
   1053c:	00c12083          	lw	ra,12(sp)
   10540:	00812403          	lw	s0,8(sp)
   10544:	00412483          	lw	s1,4(sp)
   10548:	01010113          	addi	sp,sp,16
   1054c:	afdff06f          	j	10048 <_fini>

00010550 <__register_exitproc>:
   10550:	fe010113          	addi	sp,sp,-32
   10554:	00812c23          	sw	s0,24(sp)
   10558:	8041a403          	lw	s0,-2044(gp) # 12184 <_global_impure_ptr>
   1055c:	00912a23          	sw	s1,20(sp)
   10560:	00112e23          	sw	ra,28(sp)
   10564:	14842783          	lw	a5,328(s0)
   10568:	00050493          	mv	s1,a0
   1056c:	0c078863          	beqz	a5,1063c <__register_exitproc+0xec>
   10570:	0047a703          	lw	a4,4(a5)
   10574:	01f00513          	li	a0,31
   10578:	02e54a63          	blt	a0,a4,105ac <__register_exitproc+0x5c>
   1057c:	00170513          	addi	a0,a4,1
   10580:	00271813          	slli	a6,a4,0x2
   10584:	08049063          	bnez	s1,10604 <__register_exitproc+0xb4>
   10588:	01078833          	add	a6,a5,a6
   1058c:	00a7a223          	sw	a0,4(a5)
   10590:	00000513          	li	a0,0
   10594:	00b82423          	sw	a1,8(a6)
   10598:	01c12083          	lw	ra,28(sp)
   1059c:	01812403          	lw	s0,24(sp)
   105a0:	01412483          	lw	s1,20(sp)
   105a4:	02010113          	addi	sp,sp,32
   105a8:	00008067          	ret
   105ac:	00000793          	li	a5,0
   105b0:	08078c63          	beqz	a5,10648 <__register_exitproc+0xf8>
   105b4:	19000513          	li	a0,400
   105b8:	00b12623          	sw	a1,12(sp)
   105bc:	00c12423          	sw	a2,8(sp)
   105c0:	00d12223          	sw	a3,4(sp)
   105c4:	a3def0ef          	jal	0 <_ftext-0x10000>
   105c8:	00050793          	mv	a5,a0
   105cc:	00c12583          	lw	a1,12(sp)
   105d0:	00812603          	lw	a2,8(sp)
   105d4:	00412683          	lw	a3,4(sp)
   105d8:	06050863          	beqz	a0,10648 <__register_exitproc+0xf8>
   105dc:	14842703          	lw	a4,328(s0)
   105e0:	00052223          	sw	zero,4(a0)
   105e4:	00100513          	li	a0,1
   105e8:	00e7a023          	sw	a4,0(a5)
   105ec:	00000713          	li	a4,0
   105f0:	14f42423          	sw	a5,328(s0)
   105f4:	00271813          	slli	a6,a4,0x2
   105f8:	1807a423          	sw	zero,392(a5)
   105fc:	1807a623          	sw	zero,396(a5)
   10600:	f80484e3          	beqz	s1,10588 <__register_exitproc+0x38>
   10604:	010782b3          	add	t0,a5,a6
   10608:	08c2a423          	sw	a2,136(t0)
   1060c:	1887a883          	lw	a7,392(a5)
   10610:	00100613          	li	a2,1
   10614:	00e61733          	sll	a4,a2,a4
   10618:	00e8e633          	or	a2,a7,a4
   1061c:	18c7a423          	sw	a2,392(a5)
   10620:	10d2a423          	sw	a3,264(t0)
   10624:	00200693          	li	a3,2
   10628:	f6d490e3          	bne	s1,a3,10588 <__register_exitproc+0x38>
   1062c:	18c7a683          	lw	a3,396(a5)
   10630:	00e6e733          	or	a4,a3,a4
   10634:	18e7a623          	sw	a4,396(a5)
   10638:	f51ff06f          	j	10588 <__register_exitproc+0x38>
   1063c:	14c40793          	addi	a5,s0,332
   10640:	14f42423          	sw	a5,328(s0)
   10644:	f2dff06f          	j	10570 <__register_exitproc+0x20>
   10648:	fff00513          	li	a0,-1
   1064c:	f4dff06f          	j	10598 <__register_exitproc+0x48>

00010650 <__call_exitprocs>:
   10650:	fc010113          	addi	sp,sp,-64
   10654:	03612023          	sw	s6,32(sp)
   10658:	8041ab03          	lw	s6,-2044(gp) # 12184 <_global_impure_ptr>
   1065c:	03512223          	sw	s5,36(sp)
   10660:	03212823          	sw	s2,48(sp)
   10664:	03412423          	sw	s4,40(sp)
   10668:	01712e23          	sw	s7,28(sp)
   1066c:	01812c23          	sw	s8,24(sp)
   10670:	01912a23          	sw	s9,20(sp)
   10674:	02112e23          	sw	ra,60(sp)
   10678:	02812c23          	sw	s0,56(sp)
   1067c:	02912a23          	sw	s1,52(sp)
   10680:	03312623          	sw	s3,44(sp)
   10684:	01a12823          	sw	s10,16(sp)
   10688:	01b12623          	sw	s11,12(sp)
   1068c:	00050a13          	mv	s4,a0
   10690:	00058913          	mv	s2,a1
   10694:	148b0b93          	addi	s7,s6,328
   10698:	00100c13          	li	s8,1
   1069c:	fff00c93          	li	s9,-1
   106a0:	00000a93          	li	s5,0
   106a4:	148b2983          	lw	s3,328(s6)
   106a8:	04098e63          	beqz	s3,10704 <__call_exitprocs+0xb4>
   106ac:	000b8d93          	mv	s11,s7
   106b0:	0049a403          	lw	s0,4(s3)
   106b4:	00241493          	slli	s1,s0,0x2
   106b8:	fff40413          	addi	s0,s0,-1
   106bc:	009984b3          	add	s1,s3,s1
   106c0:	00044e63          	bltz	s0,106dc <__call_exitprocs+0x8c>
   106c4:	06090e63          	beqz	s2,10740 <__call_exitprocs+0xf0>
   106c8:	1044a783          	lw	a5,260(s1)
   106cc:	07278a63          	beq	a5,s2,10740 <__call_exitprocs+0xf0>
   106d0:	fff40413          	addi	s0,s0,-1
   106d4:	ffc48493          	addi	s1,s1,-4
   106d8:	ff9416e3          	bne	s0,s9,106c4 <__call_exitprocs+0x74>
   106dc:	020a8463          	beqz	s5,10704 <__call_exitprocs+0xb4>
   106e0:	0049a783          	lw	a5,4(s3)
   106e4:	0c079863          	bnez	a5,107b4 <__call_exitprocs+0x164>
   106e8:	0009a783          	lw	a5,0(s3)
   106ec:	0c078e63          	beqz	a5,107c8 <__call_exitprocs+0x178>
   106f0:	00098513          	mv	a0,s3
   106f4:	00fda023          	sw	a5,0(s11)
   106f8:	909ef0ef          	jal	0 <_ftext-0x10000>
   106fc:	000da983          	lw	s3,0(s11)
   10700:	fa0998e3          	bnez	s3,106b0 <__call_exitprocs+0x60>
   10704:	03c12083          	lw	ra,60(sp)
   10708:	03812403          	lw	s0,56(sp)
   1070c:	03412483          	lw	s1,52(sp)
   10710:	03012903          	lw	s2,48(sp)
   10714:	02c12983          	lw	s3,44(sp)
   10718:	02812a03          	lw	s4,40(sp)
   1071c:	02412a83          	lw	s5,36(sp)
   10720:	02012b03          	lw	s6,32(sp)
   10724:	01c12b83          	lw	s7,28(sp)
   10728:	01812c03          	lw	s8,24(sp)
   1072c:	01412c83          	lw	s9,20(sp)
   10730:	01012d03          	lw	s10,16(sp)
   10734:	00c12d83          	lw	s11,12(sp)
   10738:	04010113          	addi	sp,sp,64
   1073c:	00008067          	ret
   10740:	0049a783          	lw	a5,4(s3)
   10744:	0044a703          	lw	a4,4(s1)
   10748:	fff78793          	addi	a5,a5,-1
   1074c:	04878a63          	beq	a5,s0,107a0 <__call_exitprocs+0x150>
   10750:	0004a223          	sw	zero,4(s1)
   10754:	f6070ee3          	beqz	a4,106d0 <__call_exitprocs+0x80>
   10758:	1889a783          	lw	a5,392(s3)
   1075c:	008c16b3          	sll	a3,s8,s0
   10760:	0049ad03          	lw	s10,4(s3)
   10764:	00f6f7b3          	and	a5,a3,a5
   10768:	00079e63          	bnez	a5,10784 <__call_exitprocs+0x134>
   1076c:	000700e7          	jalr	a4
   10770:	0049a783          	lw	a5,4(s3)
   10774:	f3a798e3          	bne	a5,s10,106a4 <__call_exitprocs+0x54>
   10778:	000da783          	lw	a5,0(s11)
   1077c:	f5378ae3          	beq	a5,s3,106d0 <__call_exitprocs+0x80>
   10780:	f25ff06f          	j	106a4 <__call_exitprocs+0x54>
   10784:	18c9a783          	lw	a5,396(s3)
   10788:	00f6f7b3          	and	a5,a3,a5
   1078c:	00079e63          	bnez	a5,107a8 <__call_exitprocs+0x158>
   10790:	0844a583          	lw	a1,132(s1)
   10794:	000a0513          	mv	a0,s4
   10798:	000700e7          	jalr	a4
   1079c:	fd5ff06f          	j	10770 <__call_exitprocs+0x120>
   107a0:	0089a223          	sw	s0,4(s3)
   107a4:	fb1ff06f          	j	10754 <__call_exitprocs+0x104>
   107a8:	0844a503          	lw	a0,132(s1)
   107ac:	000700e7          	jalr	a4
   107b0:	fc1ff06f          	j	10770 <__call_exitprocs+0x120>
   107b4:	0009a783          	lw	a5,0(s3)
   107b8:	00098d93          	mv	s11,s3
   107bc:	00078993          	mv	s3,a5
   107c0:	ee0998e3          	bnez	s3,106b0 <__call_exitprocs+0x60>
   107c4:	f41ff06f          	j	10704 <__call_exitprocs+0xb4>
   107c8:	00000793          	li	a5,0
   107cc:	fedff06f          	j	107b8 <__call_exitprocs+0x168>

000107d0 <__syscall_error>:
   107d0:	ff010113          	addi	sp,sp,-16
   107d4:	00112623          	sw	ra,12(sp)
   107d8:	00812423          	sw	s0,8(sp)
   107dc:	00050413          	mv	s0,a0
   107e0:	3ac000ef          	jal	10b8c <__errno>
   107e4:	00c12083          	lw	ra,12(sp)
   107e8:	408007b3          	neg	a5,s0
   107ec:	00f52023          	sw	a5,0(a0)
   107f0:	00812403          	lw	s0,8(sp)
   107f4:	fff00513          	li	a0,-1
   107f8:	01010113          	addi	sp,sp,16
   107fc:	00008067          	ret

00010800 <open>:
   10800:	00000693          	li	a3,0
   10804:	40000893          	li	a7,1024
   10808:	00000073          	scall
   1080c:	fc0542e3          	bltz	a0,107d0 <__syscall_error>
   10810:	00008067          	ret

00010814 <openat>:
   10814:	03800893          	li	a7,56
   10818:	00000073          	scall
   1081c:	fa054ae3          	bltz	a0,107d0 <__syscall_error>
   10820:	00008067          	ret

00010824 <lseek>:
   10824:	00060593          	mv	a1,a2
   10828:	00000693          	li	a3,0
   1082c:	00070613          	mv	a2,a4
   10830:	03e00893          	li	a7,62
   10834:	00000073          	scall
   10838:	f8054ce3          	bltz	a0,107d0 <__syscall_error>
   1083c:	41f55593          	srai	a1,a0,0x1f
   10840:	00008067          	ret

00010844 <read>:
   10844:	00000693          	li	a3,0
   10848:	03f00893          	li	a7,63
   1084c:	00000073          	scall
   10850:	f80540e3          	bltz	a0,107d0 <__syscall_error>
   10854:	00008067          	ret

00010858 <write>:
   10858:	00000693          	li	a3,0
   1085c:	04000893          	li	a7,64
   10860:	00000073          	scall
   10864:	f60546e3          	bltz	a0,107d0 <__syscall_error>
   10868:	00008067          	ret

0001086c <fstat>:
   1086c:	00000613          	li	a2,0
   10870:	00000693          	li	a3,0
   10874:	05000893          	li	a7,80
   10878:	00000073          	scall
   1087c:	f4054ae3          	bltz	a0,107d0 <__syscall_error>
   10880:	00008067          	ret

00010884 <stat>:
   10884:	00000613          	li	a2,0
   10888:	00000693          	li	a3,0
   1088c:	40e00893          	li	a7,1038
   10890:	00000073          	scall
   10894:	f2054ee3          	bltz	a0,107d0 <__syscall_error>
   10898:	00008067          	ret

0001089c <lstat>:
   1089c:	00000613          	li	a2,0
   108a0:	00000693          	li	a3,0
   108a4:	40f00893          	li	a7,1039
   108a8:	00000073          	scall
   108ac:	f20542e3          	bltz	a0,107d0 <__syscall_error>
   108b0:	00008067          	ret

000108b4 <fstatat>:
   108b4:	04f00893          	li	a7,79
   108b8:	00000073          	scall
   108bc:	f0054ae3          	bltz	a0,107d0 <__syscall_error>
   108c0:	00008067          	ret

000108c4 <access>:
   108c4:	00000613          	li	a2,0
   108c8:	00000693          	li	a3,0
   108cc:	40900893          	li	a7,1033
   108d0:	00000073          	scall
   108d4:	ee054ee3          	bltz	a0,107d0 <__syscall_error>
   108d8:	00008067          	ret

000108dc <faccessat>:
   108dc:	03000893          	li	a7,48
   108e0:	00000073          	scall
   108e4:	ee0546e3          	bltz	a0,107d0 <__syscall_error>
   108e8:	00008067          	ret

000108ec <close>:
   108ec:	00000593          	li	a1,0
   108f0:	00000613          	li	a2,0
   108f4:	00000693          	li	a3,0
   108f8:	03900893          	li	a7,57
   108fc:	00000073          	scall
   10900:	ec0548e3          	bltz	a0,107d0 <__syscall_error>
   10904:	00008067          	ret

00010908 <link>:
   10908:	00000613          	li	a2,0
   1090c:	00000693          	li	a3,0
   10910:	40100893          	li	a7,1025
   10914:	00000073          	scall
   10918:	ea054ce3          	bltz	a0,107d0 <__syscall_error>
   1091c:	00008067          	ret

00010920 <unlink>:
   10920:	00000593          	li	a1,0
   10924:	00000613          	li	a2,0
   10928:	00000693          	li	a3,0
   1092c:	40200893          	li	a7,1026
   10930:	00000073          	scall
   10934:	e8054ee3          	bltz	a0,107d0 <__syscall_error>
   10938:	00008067          	ret

0001093c <execve>:
   1093c:	ff010113          	addi	sp,sp,-16
   10940:	00112623          	sw	ra,12(sp)
   10944:	248000ef          	jal	10b8c <__errno>
   10948:	00c12083          	lw	ra,12(sp)
   1094c:	00c00793          	li	a5,12
   10950:	00f52023          	sw	a5,0(a0)
   10954:	01010113          	addi	sp,sp,16
   10958:	fff00513          	li	a0,-1
   1095c:	00008067          	ret

00010960 <fork>:
   10960:	ff010113          	addi	sp,sp,-16
   10964:	00112623          	sw	ra,12(sp)
   10968:	224000ef          	jal	10b8c <__errno>
   1096c:	00c12083          	lw	ra,12(sp)
   10970:	00b00793          	li	a5,11
   10974:	00f52023          	sw	a5,0(a0)
   10978:	01010113          	addi	sp,sp,16
   1097c:	fff00513          	li	a0,-1
   10980:	00008067          	ret

00010984 <getpid>:
   10984:	00100513          	li	a0,1
   10988:	00008067          	ret

0001098c <kill>:
   1098c:	ff010113          	addi	sp,sp,-16
   10990:	00112623          	sw	ra,12(sp)
   10994:	1f8000ef          	jal	10b8c <__errno>
   10998:	00c12083          	lw	ra,12(sp)
   1099c:	01600793          	li	a5,22
   109a0:	00f52023          	sw	a5,0(a0)
   109a4:	01010113          	addi	sp,sp,16
   109a8:	fff00513          	li	a0,-1
   109ac:	00008067          	ret

000109b0 <wait>:
   109b0:	ff010113          	addi	sp,sp,-16
   109b4:	00112623          	sw	ra,12(sp)
   109b8:	1d4000ef          	jal	10b8c <__errno>
   109bc:	00c12083          	lw	ra,12(sp)
   109c0:	00a00793          	li	a5,10
   109c4:	00f52023          	sw	a5,0(a0)
   109c8:	01010113          	addi	sp,sp,16
   109cc:	fff00513          	li	a0,-1
   109d0:	00008067          	ret

000109d4 <isatty>:
   109d4:	f8010113          	addi	sp,sp,-128
   109d8:	00010593          	mv	a1,sp
   109dc:	00000613          	li	a2,0
   109e0:	00000693          	li	a3,0
   109e4:	05000893          	li	a7,80
   109e8:	00000073          	scall
   109ec:	de0542e3          	bltz	a0,107d0 <__syscall_error>
   109f0:	fff00793          	li	a5,-1
   109f4:	00f50863          	beq	a0,a5,10a04 <isatty+0x30>
   109f8:	01012503          	lw	a0,16(sp)
   109fc:	00d55513          	srli	a0,a0,0xd
   10a00:	00157513          	andi	a0,a0,1
   10a04:	08010113          	addi	sp,sp,128
   10a08:	00008067          	ret

00010a0c <times>:
   10a0c:	83818293          	addi	t0,gp,-1992 # 121b8 <t0.2178>
   10a10:	0002a783          	lw	a5,0(t0)
   10a14:	0042a683          	lw	a3,4(t0)
   10a18:	ff010113          	addi	sp,sp,-16
   10a1c:	00050813          	mv	a6,a0
   10a20:	00d7e7b3          	or	a5,a5,a3
   10a24:	02079063          	bnez	a5,10a44 <times+0x38>
   10a28:	83818513          	addi	a0,gp,-1992 # 121b8 <t0.2178>
   10a2c:	00000593          	li	a1,0
   10a30:	00000613          	li	a2,0
   10a34:	00000693          	li	a3,0
   10a38:	0a900893          	li	a7,169
   10a3c:	00000073          	scall
   10a40:	d80548e3          	bltz	a0,107d0 <__syscall_error>
   10a44:	00010513          	mv	a0,sp
   10a48:	00000593          	li	a1,0
   10a4c:	00000613          	li	a2,0
   10a50:	00000693          	li	a3,0
   10a54:	0a900893          	li	a7,169
   10a58:	00000073          	scall
   10a5c:	d6054ae3          	bltz	a0,107d0 <__syscall_error>
   10a60:	0002a703          	lw	a4,0(t0)
   10a64:	00012783          	lw	a5,0(sp)
   10a68:	fff00513          	li	a0,-1
   10a6c:	00082623          	sw	zero,12(a6)
   10a70:	40e786b3          	sub	a3,a5,a4
   10a74:	000f47b7          	lui	a5,0xf4
   10a78:	24078793          	addi	a5,a5,576 # f4240 <_gp+0xe18c0>
   10a7c:	02f68733          	mul	a4,a3,a5
   10a80:	0082a683          	lw	a3,8(t0)
   10a84:	00812783          	lw	a5,8(sp)
   10a88:	00082423          	sw	zero,8(a6)
   10a8c:	00082223          	sw	zero,4(a6)
   10a90:	40d787b3          	sub	a5,a5,a3
   10a94:	01010113          	addi	sp,sp,16
   10a98:	00f707b3          	add	a5,a4,a5
   10a9c:	00f82023          	sw	a5,0(a6)
   10aa0:	00008067          	ret

00010aa4 <gettimeofday>:
   10aa4:	00000593          	li	a1,0
   10aa8:	00000613          	li	a2,0
   10aac:	00000693          	li	a3,0
   10ab0:	0a900893          	li	a7,169
   10ab4:	00000073          	scall
   10ab8:	d0054ce3          	bltz	a0,107d0 <__syscall_error>
   10abc:	00008067          	ret

00010ac0 <ftime>:
   10ac0:	00000713          	li	a4,0
   10ac4:	00000793          	li	a5,0
   10ac8:	00051423          	sh	zero,8(a0)
   10acc:	00e52023          	sw	a4,0(a0)
   10ad0:	00f52223          	sw	a5,4(a0)
   10ad4:	00000513          	li	a0,0
   10ad8:	00008067          	ret

00010adc <utime>:
   10adc:	fff00513          	li	a0,-1
   10ae0:	00008067          	ret

00010ae4 <chown>:
   10ae4:	fff00513          	li	a0,-1
   10ae8:	00008067          	ret

00010aec <chmod>:
   10aec:	fff00513          	li	a0,-1
   10af0:	00008067          	ret

00010af4 <chdir>:
   10af4:	fff00513          	li	a0,-1
   10af8:	00008067          	ret

00010afc <getcwd>:
   10afc:	00000513          	li	a0,0
   10b00:	00008067          	ret

00010b04 <sysconf>:
   10b04:	00200793          	li	a5,2
   10b08:	00f51863          	bne	a0,a5,10b18 <sysconf+0x14>
   10b0c:	000f4537          	lui	a0,0xf4
   10b10:	24050513          	addi	a0,a0,576 # f4240 <_gp+0xe18c0>
   10b14:	00008067          	ret
   10b18:	fff00513          	li	a0,-1
   10b1c:	00008067          	ret

00010b20 <sbrk>:
   10b20:	8101a703          	lw	a4,-2032(gp) # 12190 <_fbss>
   10b24:	00050793          	mv	a5,a0
   10b28:	00071663          	bnez	a4,10b34 <sbrk+0x14>
   10b2c:	84818713          	addi	a4,gp,-1976 # 121c8 <_end>
   10b30:	80e1a823          	sw	a4,-2032(gp) # 12190 <_fbss>
   10b34:	00f70533          	add	a0,a4,a5
   10b38:	00000593          	li	a1,0
   10b3c:	00000613          	li	a2,0
   10b40:	00000693          	li	a3,0
   10b44:	0d600893          	li	a7,214
   10b48:	00000073          	scall
   10b4c:	c80542e3          	bltz	a0,107d0 <__syscall_error>
   10b50:	8101a683          	lw	a3,-2032(gp) # 12190 <_fbss>
   10b54:	fff00713          	li	a4,-1
   10b58:	00d787b3          	add	a5,a5,a3
   10b5c:	00f51663          	bne	a0,a5,10b68 <sbrk+0x48>
   10b60:	80a1a823          	sw	a0,-2032(gp) # 12190 <_fbss>
   10b64:	00068713          	mv	a4,a3
   10b68:	00070513          	mv	a0,a4
   10b6c:	00008067          	ret

00010b70 <_exit>:
   10b70:	00000593          	li	a1,0
   10b74:	00000613          	li	a2,0
   10b78:	00000693          	li	a3,0
   10b7c:	05d00893          	li	a7,93
   10b80:	00000073          	scall
   10b84:	c40546e3          	bltz	a0,107d0 <__syscall_error>
   10b88:	0000006f          	j	10b88 <_exit+0x18>

00010b8c <__errno>:
   10b8c:	8081a503          	lw	a0,-2040(gp) # 12188 <_impure_ptr>
   10b90:	00008067          	ret
