
multiply_riscv:     file format elf32-littleriscv


Disassembly of section .text:

00000000 <setStats>:
   0:	fe010113          	addi	sp,sp,-32
   4:	00812e23          	sw	s0,28(sp)
   8:	02010413          	addi	s0,sp,32
   c:	fea42623          	sw	a0,-20(s0)
  10:	01c12403          	lw	s0,28(sp)
  14:	02010113          	addi	sp,sp,32
  18:	00008067          	ret

0000001c <printArray>:
  1c:	fd010113          	addi	sp,sp,-48
  20:	02112623          	sw	ra,44(sp)
  24:	02812423          	sw	s0,40(sp)
  28:	03010413          	addi	s0,sp,48
  2c:	fca42e23          	sw	a0,-36(s0)
  30:	fcb42c23          	sw	a1,-40(s0)
  34:	fcc42a23          	sw	a2,-44(s0)
  38:	000007b7          	lui	a5,0x0
  3c:	00078513          	mv	a0,a5
  40:	fdc42583          	lw	a1,-36(s0)
  44:	00000297          	auipc	t0,0x0
  48:	000280e7          	jalr	t0
  4c:	fe042623          	sw	zero,-20(s0)
  50:	0380006f          	j	88 <.L3>

00000054 <.L4>:
  54:	fec42783          	lw	a5,-20(s0)
  58:	00279793          	slli	a5,a5,0x2
  5c:	fd442703          	lw	a4,-44(s0)
  60:	00f707b3          	add	a5,a4,a5
  64:	0007a703          	lw	a4,0(a5) # 0 <setStats>
  68:	000007b7          	lui	a5,0x0
  6c:	00078513          	mv	a0,a5
  70:	00070593          	mv	a1,a4
  74:	00000297          	auipc	t0,0x0
  78:	000280e7          	jalr	t0
  7c:	fec42783          	lw	a5,-20(s0)
  80:	00178793          	addi	a5,a5,1 # 1 <setStats+0x1>
  84:	fef42623          	sw	a5,-20(s0)

00000088 <.L3>:
  88:	fec42703          	lw	a4,-20(s0)
  8c:	fd842783          	lw	a5,-40(s0)
  90:	fcf742e3          	blt	a4,a5,54 <.L4>
  94:	00a00513          	li	a0,10
  98:	00000297          	auipc	t0,0x0
  9c:	000280e7          	jalr	t0
  a0:	02c12083          	lw	ra,44(sp)
  a4:	02812403          	lw	s0,40(sp)
  a8:	03010113          	addi	sp,sp,48
  ac:	00008067          	ret

000000b0 <verify>:
  b0:	fc010113          	addi	sp,sp,-64
  b4:	02812e23          	sw	s0,60(sp)
  b8:	04010413          	addi	s0,sp,64
  bc:	fca42623          	sw	a0,-52(s0)
  c0:	fcb42423          	sw	a1,-56(s0)
  c4:	fcc42223          	sw	a2,-60(s0)
  c8:	fe042623          	sw	zero,-20(s0)
  cc:	0a80006f          	j	174 <.L6>

000000d0 <.L10>:
  d0:	fec42783          	lw	a5,-20(s0)
  d4:	00279793          	slli	a5,a5,0x2
  d8:	fc842703          	lw	a4,-56(s0)
  dc:	00f707b3          	add	a5,a4,a5
  e0:	0007a783          	lw	a5,0(a5)
  e4:	fef42423          	sw	a5,-24(s0)
  e8:	fec42783          	lw	a5,-20(s0)
  ec:	00178793          	addi	a5,a5,1
  f0:	00279793          	slli	a5,a5,0x2
  f4:	fc842703          	lw	a4,-56(s0)
  f8:	00f707b3          	add	a5,a4,a5
  fc:	0007a783          	lw	a5,0(a5)
 100:	fef42223          	sw	a5,-28(s0)
 104:	fec42783          	lw	a5,-20(s0)
 108:	00279793          	slli	a5,a5,0x2
 10c:	fc442703          	lw	a4,-60(s0)
 110:	00f707b3          	add	a5,a4,a5
 114:	0007a783          	lw	a5,0(a5)
 118:	fef42023          	sw	a5,-32(s0)
 11c:	fec42783          	lw	a5,-20(s0)
 120:	00178793          	addi	a5,a5,1
 124:	00279793          	slli	a5,a5,0x2
 128:	fc442703          	lw	a4,-60(s0)
 12c:	00f707b3          	add	a5,a4,a5
 130:	0007a783          	lw	a5,0(a5)
 134:	fcf42e23          	sw	a5,-36(s0)
 138:	fe842703          	lw	a4,-24(s0)
 13c:	fe042783          	lw	a5,-32(s0)
 140:	00f70863          	beq	a4,a5,150 <.L7>
 144:	fec42783          	lw	a5,-20(s0)
 148:	00178793          	addi	a5,a5,1
 14c:	0a00006f          	j	1ec <.L8>

00000150 <.L7>:
 150:	fe442703          	lw	a4,-28(s0)
 154:	fdc42783          	lw	a5,-36(s0)
 158:	00f70863          	beq	a4,a5,168 <.L9>
 15c:	fec42783          	lw	a5,-20(s0)
 160:	00278793          	addi	a5,a5,2
 164:	0880006f          	j	1ec <.L8>

00000168 <.L9>:
 168:	fec42783          	lw	a5,-20(s0)
 16c:	00278793          	addi	a5,a5,2
 170:	fef42623          	sw	a5,-20(s0)

00000174 <.L6>:
 174:	fcc42783          	lw	a5,-52(s0)
 178:	01f7d713          	srli	a4,a5,0x1f
 17c:	00f707b3          	add	a5,a4,a5
 180:	4017d793          	srai	a5,a5,0x1
 184:	00179713          	slli	a4,a5,0x1
 188:	fec42783          	lw	a5,-20(s0)
 18c:	f4e7c2e3          	blt	a5,a4,d0 <.L10>
 190:	fcc42783          	lw	a5,-52(s0)
 194:	0017f793          	andi	a5,a5,1
 198:	04078863          	beqz	a5,1e8 <.L11>
 19c:	fcc42703          	lw	a4,-52(s0)
 1a0:	400007b7          	lui	a5,0x40000
 1a4:	fff78793          	addi	a5,a5,-1 # 3fffffff <.L24+0x3ffffba3>
 1a8:	00f707b3          	add	a5,a4,a5
 1ac:	00279793          	slli	a5,a5,0x2
 1b0:	fc842703          	lw	a4,-56(s0)
 1b4:	00f707b3          	add	a5,a4,a5
 1b8:	0007a703          	lw	a4,0(a5)
 1bc:	fcc42683          	lw	a3,-52(s0)
 1c0:	400007b7          	lui	a5,0x40000
 1c4:	fff78793          	addi	a5,a5,-1 # 3fffffff <.L24+0x3ffffba3>
 1c8:	00f687b3          	add	a5,a3,a5
 1cc:	00279793          	slli	a5,a5,0x2
 1d0:	fc442683          	lw	a3,-60(s0)
 1d4:	00f687b3          	add	a5,a3,a5
 1d8:	0007a783          	lw	a5,0(a5)
 1dc:	00f70663          	beq	a4,a5,1e8 <.L11>
 1e0:	fcc42783          	lw	a5,-52(s0)
 1e4:	0080006f          	j	1ec <.L8>

000001e8 <.L11>:
 1e8:	00000793          	li	a5,0

000001ec <.L8>:
 1ec:	00078513          	mv	a0,a5
 1f0:	03c12403          	lw	s0,60(sp)
 1f4:	04010113          	addi	sp,sp,64
 1f8:	00008067          	ret

000001fc <barrier>:
 1fc:	fe010113          	addi	sp,sp,-32
 200:	00112e23          	sw	ra,28(sp)
 204:	00812c23          	sw	s0,24(sp)
 208:	02010413          	addi	s0,sp,32
 20c:	fea42623          	sw	a0,-20(s0)
 210:	0330000f          	fence	rw,rw
 214:	000007b7          	lui	a5,0x0
 218:	004787b3          	add	a5,a5,tp
 21c:	0007a783          	lw	a5,0(a5) # 0 <setStats>
 220:	0017b793          	seqz	a5,a5
 224:	0ff7f793          	andi	a5,a5,255
 228:	00078713          	mv	a4,a5
 22c:	000007b7          	lui	a5,0x0
 230:	004787b3          	add	a5,a5,tp
 234:	00e7a023          	sw	a4,0(a5) # 0 <setStats>
 238:	000007b7          	lui	a5,0x0
 23c:	00078513          	mv	a0,a5
 240:	00100593          	li	a1,1
 244:	00000297          	auipc	t0,0x0
 248:	000280e7          	jalr	t0
 24c:	00050793          	mv	a5,a0
 250:	00078713          	mv	a4,a5
 254:	fec42783          	lw	a5,-20(s0)
 258:	fff78793          	addi	a5,a5,-1
 25c:	02f71263          	bne	a4,a5,280 <.L13>
 260:	000007b7          	lui	a5,0x0
 264:	0007a023          	sw	zero,0(a5) # 0 <setStats>
 268:	000007b7          	lui	a5,0x0
 26c:	004787b3          	add	a5,a5,tp
 270:	0007a703          	lw	a4,0(a5) # 0 <setStats>
 274:	000007b7          	lui	a5,0x0
 278:	00e7a023          	sw	a4,0(a5) # 0 <setStats>
 27c:	0200006f          	j	29c <.L14>

00000280 <.L13>:
 280:	00000013          	nop

00000284 <.L15>:
 284:	000007b7          	lui	a5,0x0
 288:	0007a703          	lw	a4,0(a5) # 0 <setStats>
 28c:	000007b7          	lui	a5,0x0
 290:	004787b3          	add	a5,a5,tp
 294:	0007a783          	lw	a5,0(a5) # 0 <setStats>
 298:	fef716e3          	bne	a4,a5,284 <.L15>

0000029c <.L14>:
 29c:	0330000f          	fence	rw,rw
 2a0:	01c12083          	lw	ra,28(sp)
 2a4:	01812403          	lw	s0,24(sp)
 2a8:	02010113          	addi	sp,sp,32
 2ac:	00008067          	ret

000002b0 <lfsr>:
 2b0:	fd010113          	addi	sp,sp,-48
 2b4:	02812623          	sw	s0,44(sp)
 2b8:	03010413          	addi	s0,sp,48
 2bc:	fca42c23          	sw	a0,-40(s0)
 2c0:	fcb42e23          	sw	a1,-36(s0)
 2c4:	fdc42583          	lw	a1,-36(s0)
 2c8:	01f59593          	slli	a1,a1,0x1f
 2cc:	fd842503          	lw	a0,-40(s0)
 2d0:	00155613          	srli	a2,a0,0x1
 2d4:	00c5e633          	or	a2,a1,a2
 2d8:	fdc42583          	lw	a1,-36(s0)
 2dc:	0015d693          	srli	a3,a1,0x1
 2e0:	fd842583          	lw	a1,-40(s0)
 2e4:	00c5c833          	xor	a6,a1,a2
 2e8:	fdc42583          	lw	a1,-36(s0)
 2ec:	00d5c8b3          	xor	a7,a1,a3
 2f0:	00187693          	andi	a3,a6,1
 2f4:	fed42423          	sw	a3,-24(s0)
 2f8:	0008f693          	andi	a3,a7,0
 2fc:	fed42623          	sw	a3,-20(s0)
 300:	fdc42683          	lw	a3,-36(s0)
 304:	01f69693          	slli	a3,a3,0x1f
 308:	fd842603          	lw	a2,-40(s0)
 30c:	00165713          	srli	a4,a2,0x1
 310:	00e6e733          	or	a4,a3,a4
 314:	fdc42683          	lw	a3,-36(s0)
 318:	0016d793          	srli	a5,a3,0x1
 31c:	fe842683          	lw	a3,-24(s0)
 320:	01e69393          	slli	t2,a3,0x1e
 324:	00000313          	li	t1,0
 328:	00676e33          	or	t3,a4,t1
 32c:	0077eeb3          	or	t4,a5,t2
 330:	000e0713          	mv	a4,t3
 334:	000e8793          	mv	a5,t4
 338:	00070513          	mv	a0,a4
 33c:	00078593          	mv	a1,a5
 340:	02c12403          	lw	s0,44(sp)
 344:	03010113          	addi	sp,sp,48
 348:	00008067          	ret

0000034c <multiply>:
 34c:	fd010113          	addi	sp,sp,-48
 350:	02812623          	sw	s0,44(sp)
 354:	03010413          	addi	s0,sp,48
 358:	fca42e23          	sw	a0,-36(s0)
 35c:	fcb42c23          	sw	a1,-40(s0)
 360:	fe042423          	sw	zero,-24(s0)
 364:	fe042623          	sw	zero,-20(s0)
 368:	0440006f          	j	3ac <.L19>

0000036c <.L21>:
 36c:	fdc42783          	lw	a5,-36(s0)
 370:	0017f793          	andi	a5,a5,1
 374:	00078a63          	beqz	a5,388 <.L20>
 378:	fe842703          	lw	a4,-24(s0)
 37c:	fd842783          	lw	a5,-40(s0)
 380:	00f707b3          	add	a5,a4,a5
 384:	fef42423          	sw	a5,-24(s0)

00000388 <.L20>:
 388:	fdc42783          	lw	a5,-36(s0)
 38c:	4017d793          	srai	a5,a5,0x1
 390:	fcf42e23          	sw	a5,-36(s0)
 394:	fd842783          	lw	a5,-40(s0)
 398:	00179793          	slli	a5,a5,0x1
 39c:	fcf42c23          	sw	a5,-40(s0)
 3a0:	fec42783          	lw	a5,-20(s0)
 3a4:	00178793          	addi	a5,a5,1
 3a8:	fef42623          	sw	a5,-20(s0)

000003ac <.L19>:
 3ac:	fec42703          	lw	a4,-20(s0)
 3b0:	01f00793          	li	a5,31
 3b4:	fae7dce3          	ble	a4,a5,36c <.L21>
 3b8:	fe842783          	lw	a5,-24(s0)
 3bc:	00078513          	mv	a0,a5
 3c0:	02c12403          	lw	s0,44(sp)
 3c4:	03010113          	addi	sp,sp,48
 3c8:	00008067          	ret

000003cc <main>:
 3cc:	e4010113          	addi	sp,sp,-448
 3d0:	1a112e23          	sw	ra,444(sp)
 3d4:	1a812c23          	sw	s0,440(sp)
 3d8:	1c010413          	addi	s0,sp,448
 3dc:	e4a42623          	sw	a0,-436(s0)
 3e0:	e4b42423          	sw	a1,-440(s0)
 3e4:	00100513          	li	a0,1
 3e8:	00000297          	auipc	t0,0x0
 3ec:	000280e7          	jalr	t0
 3f0:	fe042623          	sw	zero,-20(s0)
 3f4:	0680006f          	j	45c <.L24>

000003f8 <.L25>:
 3f8:	000007b7          	lui	a5,0x0
 3fc:	fec42703          	lw	a4,-20(s0)
 400:	00271713          	slli	a4,a4,0x2
 404:	00078793          	mv	a5,a5
 408:	00f707b3          	add	a5,a4,a5
 40c:	0007a683          	lw	a3,0(a5) # 0 <setStats>
 410:	000007b7          	lui	a5,0x0
 414:	fec42703          	lw	a4,-20(s0)
 418:	00271713          	slli	a4,a4,0x2
 41c:	00078793          	mv	a5,a5
 420:	00f707b3          	add	a5,a4,a5
 424:	0007a783          	lw	a5,0(a5) # 0 <setStats>
 428:	00068513          	mv	a0,a3
 42c:	00078593          	mv	a1,a5
 430:	00000297          	auipc	t0,0x0
 434:	000280e7          	jalr	t0
 438:	00050713          	mv	a4,a0
 43c:	fec42783          	lw	a5,-20(s0)
 440:	00279793          	slli	a5,a5,0x2
 444:	ff040693          	addi	a3,s0,-16
 448:	00f687b3          	add	a5,a3,a5
 44c:	e6e7a623          	sw	a4,-404(a5)
 450:	fec42783          	lw	a5,-20(s0)
 454:	00178793          	addi	a5,a5,1
 458:	fef42623          	sw	a5,-20(s0)

0000045c <.L24>:
 45c:	fec42703          	lw	a4,-20(s0)
 460:	06300793          	li	a5,99
 464:	f8e7dae3          	ble	a4,a5,3f8 <.L25>
 468:	00000513          	li	a0,0
 46c:	00000297          	auipc	t0,0x0
 470:	000280e7          	jalr	t0
 474:	e5c40793          	addi	a5,s0,-420
 478:	06400513          	li	a0,100
 47c:	00078593          	mv	a1,a5
 480:	000007b7          	lui	a5,0x0
 484:	00078613          	mv	a2,a5
 488:	00000297          	auipc	t0,0x0
 48c:	000280e7          	jalr	t0
 490:	00050793          	mv	a5,a0
 494:	00078513          	mv	a0,a5
 498:	1bc12083          	lw	ra,444(sp)
 49c:	1b812403          	lw	s0,440(sp)
 4a0:	1c010113          	addi	sp,sp,448
 4a4:	00008067          	ret
