
multiply_riscv:     file format elf32-littleriscv


Disassembly of section .text:

00000000 <setStats>:
   0:	fe010113          	addi	sp,sp,-32
   4:	00812e23          	sw	s0,28(sp)
   8:	02010413          	addi	s0,sp,32
   c:	fea42623          	sw	a0,-20(s0)
  10:	01c12403          	lw	s0,28(sp)
  14:	02010113          	addi	sp,sp,32
  18:	00008067          	ret

0000001c <printArray>:
  1c:	fd010113          	addi	sp,sp,-48
  20:	02112623          	sw	ra,44(sp)
  24:	02812423          	sw	s0,40(sp)
  28:	03010413          	addi	s0,sp,48
  2c:	fca42e23          	sw	a0,-36(s0)
  30:	fcb42c23          	sw	a1,-40(s0)
  34:	fcc42a23          	sw	a2,-44(s0)
  38:	000007b7          	lui	a5,0x0
  3c:	00078513          	mv	a0,a5
  40:	fdc42583          	lw	a1,-36(s0)
  44:	00000297          	auipc	t0,0x0
  48:	000280e7          	jalr	t0
  4c:	fe042623          	sw	zero,-20(s0)
  50:	0380006f          	j	88 <.L3>

00000054 <.L4>:
  54:	fec42783          	lw	a5,-20(s0)
  58:	00279793          	slli	a5,a5,0x2
  5c:	fd442703          	lw	a4,-44(s0)
  60:	00f707b3          	add	a5,a4,a5
  64:	0007a703          	lw	a4,0(a5) # 0 <setStats>
  68:	000007b7          	lui	a5,0x0
  6c:	00078513          	mv	a0,a5
  70:	00070593          	mv	a1,a4
  74:	00000297          	auipc	t0,0x0
  78:	000280e7          	jalr	t0
  7c:	fec42783          	lw	a5,-20(s0)
  80:	00178793          	addi	a5,a5,1 # 1 <setStats+0x1>
  84:	fef42623          	sw	a5,-20(s0)

00000088 <.L3>:
  88:	fec42703          	lw	a4,-20(s0)
  8c:	fd842783          	lw	a5,-40(s0)
  90:	fcf742e3          	blt	a4,a5,54 <.L4>
  94:	00a00513          	li	a0,10
  98:	00000297          	auipc	t0,0x0
  9c:	000280e7          	jalr	t0
  a0:	02c12083          	lw	ra,44(sp)
  a4:	02812403          	lw	s0,40(sp)
  a8:	03010113          	addi	sp,sp,48
  ac:	00008067          	ret

000000b0 <verify>:
  b0:	fc010113          	addi	sp,sp,-64
  b4:	02812e23          	sw	s0,60(sp)
  b8:	04010413          	addi	s0,sp,64
  bc:	fca42623          	sw	a0,-52(s0)
  c0:	fcb42423          	sw	a1,-56(s0)
  c4:	fcc42223          	sw	a2,-60(s0)
  c8:	fe042623          	sw	zero,-20(s0)
  cc:	0a80006f          	j	174 <.L6>

000000d0 <.L10>:
  d0:	fec42783          	lw	a5,-20(s0)
  d4:	00279793          	slli	a5,a5,0x2
  d8:	fc842703          	lw	a4,-56(s0)
  dc:	00f707b3          	add	a5,a4,a5
  e0:	0007a783          	lw	a5,0(a5)
  e4:	fef42423          	sw	a5,-24(s0)
  e8:	fec42783          	lw	a5,-20(s0)
  ec:	00178793          	addi	a5,a5,1
  f0:	00279793          	slli	a5,a5,0x2
  f4:	fc842703          	lw	a4,-56(s0)
  f8:	00f707b3          	add	a5,a4,a5
  fc:	0007a783          	lw	a5,0(a5)
 100:	fef42223          	sw	a5,-28(s0)
 104:	fec42783          	lw	a5,-20(s0)
 108:	00279793          	slli	a5,a5,0x2
 10c:	fc442703          	lw	a4,-60(s0)
 110:	00f707b3          	add	a5,a4,a5
 114:	0007a783          	lw	a5,0(a5)
 118:	fef42023          	sw	a5,-32(s0)
 11c:	fec42783          	lw	a5,-20(s0)
 120:	00178793          	addi	a5,a5,1
 124:	00279793          	slli	a5,a5,0x2
 128:	fc442703          	lw	a4,-60(s0)
 12c:	00f707b3          	add	a5,a4,a5
 130:	0007a783          	lw	a5,0(a5)
 134:	fcf42e23          	sw	a5,-36(s0)
 138:	fe842703          	lw	a4,-24(s0)
 13c:	fe042783          	lw	a5,-32(s0)
 140:	00f70863          	beq	a4,a5,150 <.L7>
 144:	fec42783          	lw	a5,-20(s0)
 148:	00178793          	addi	a5,a5,1
 14c:	0a00006f          	j	1ec <.L8>

00000150 <.L7>:
 150:	fe442703          	lw	a4,-28(s0)
 154:	fdc42783          	lw	a5,-36(s0)
 158:	00f70863          	beq	a4,a5,168 <.L9>
 15c:	fec42783          	lw	a5,-20(s0)
 160:	00278793          	addi	a5,a5,2
 164:	0880006f          	j	1ec <.L8>

00000168 <.L9>:
 168:	fec42783          	lw	a5,-20(s0)
 16c:	00278793          	addi	a5,a5,2
 170:	fef42623          	sw	a5,-20(s0)

00000174 <.L6>:
 174:	fcc42783          	lw	a5,-52(s0)
 178:	01f7d713          	srli	a4,a5,0x1f
 17c:	00f707b3          	add	a5,a4,a5
 180:	4017d793          	srai	a5,a5,0x1
 184:	00179713          	slli	a4,a5,0x1
 188:	fec42783          	lw	a5,-20(s0)
 18c:	f4e7c2e3          	blt	a5,a4,d0 <.L10>
 190:	fcc42783          	lw	a5,-52(s0)
 194:	0017f793          	andi	a5,a5,1
 198:	04078863          	beqz	a5,1e8 <.L11>
 19c:	fcc42703          	lw	a4,-52(s0)
 1a0:	400007b7          	lui	a5,0x40000
 1a4:	fff78793          	addi	a5,a5,-1 # 3fffffff <.L24+0x3ffffba3>
 1a8:	00f707b3          	add	a5,a4,a5
 1ac:	00279793          	slli	a5,a5,0x2
 1b0:	fc842703          	lw	a4,-56(s0)
 1b4:	00f707b3          	add	a5,a4,a5
 1b8:	0007a703          	lw	a4,0(a5)
 1bc:	fcc42683          	lw	a3,-52(s0)
 1c0:	400007b7          	lui	a5,0x40000
 1c4:	fff78793          	addi	a5,a5,-1 # 3fffffff <.L24+0x3ffffba3>
 1c8:	00f687b3          	add	a5,a3,a5
 1cc:	00279793          	slli	a5,a5,0x2
 1d0:	fc442683          	lw	a3,-60(s0)
 1d4:	00f687b3          	add	a5,a3,a5
 1d8:	0007a783          	lw	a5,0(a5)
 1dc:	00f70663          	beq	a4,a5,1e8 <.L11>
 1e0:	fcc42783          	lw	a5,-52(s0)
 1e4:	0080006f          	j	1ec <.L8>

000001e8 <.L11>:
 1e8:	00000793          	li	a5,0

000001ec <.L8>:
 1ec:	00078513          	mv	a0,a5
 1f0:	03c12403          	lw	s0,60(sp)
 1f4:	04010113          	addi	sp,sp,64
 1f8:	00008067          	ret

000001fc <barrier>:
 1fc:	fe010113          	addi	sp,sp,-32
 200:	00112e23          	sw	ra,28(sp)
 204:	00812c23          	sw	s0,24(sp)
 208:	02010413          	addi	s0,sp,32
 20c:	fea42623          	sw	a0,-20(s0)
 210:	0330000f          	fence	rw,rw
 214:	000007b7          	lui	a5,0x0
 218:	004787b3          	add	a5,a5,tp
 21c:	0007a783          	lw	a5,0(a5) # 0 <setStats>
 220:	0017b793          	seqz	a5,a5
 224:	0ff7f793          	andi	a5,a5,255
 228:	00078713          	mv	a4,a5
 22c:	000007b7          	lui	a5,0x0
 230:	004787b3          	add	a5,a5,tp
 234:	00e7a023          	sw	a4,0(a5) # 0 <setStats>
 238:	000007b7          	lui	a5,0x0
 23c:	00078513          	mv	a0,a5
 240:	00100593          	li	a1,1
 244:	00000297          	auipc	t0,0x0
 248:	000280e7          	jalr	t0
 24c:	00050793          	mv	a5,a0
 250:	00078713          	mv	a4,a5
 254:	fec42783          	lw	a5,-20(s0)
 258:	fff78793          	addi	a5,a5,-1
 25c:	02f71263          	bne	a4,a5,280 <.L13>
 260:	000007b7          	lui	a5,0x0
 264:	0007a023          	sw	zero,0(a5) # 0 <setStats>
 268:	000007b7          	lui	a5,0x0
 26c:	004787b3          	add	a5,a5,tp
 270:	0007a703          	lw	a4,0(a5) # 0 <setStats>
 274:	000007b7          	lui	a5,0x0
 278:	00e7a023          	sw	a4,0(a5) # 0 <setStats>
 27c:	0200006f          	j	29c <.L14>

00000280 <.L13>:
 280:	00000013          	nop

00000284 <.L15>:
 284:	000007b7          	lui	a5,0x0
 288:	0007a703          	lw	a4,0(a5) # 0 <setStats>
 28c:	000007b7          	lui	a5,0x0
 290:	004787b3          	add	a5,a5,tp
 294:	0007a783          	lw	a5,0(a5) # 0 <setStats>
 298:	fef716e3          	bne	a4,a5,284 <.L15>

0000029c <.L14>:
 29c:	0330000f          	fence	rw,rw
 2a0:	01c12083          	lw	ra,28(sp)
 2a4:	01812403          	lw	s0,24(sp)
 2a8:	02010113          	addi	sp,sp,32
 2ac:	00008067          	ret

000002b0 <lfsr>:
 2b0:	fd010113          	addi	sp,sp,-48
 2b4:	02812623          	sw	s0,44(sp)
 2b8:	03010413          	addi	s0,sp,48
 2bc:	fca42c23          	sw	a0,-40(s0)
 2c0:	fcb42e23          	sw	a1,-36(s0)
 2c4:	fdc42583          	lw	a1,-36(s0)
 2c8:	01f59593          	slli	a1,a1,0x1f
 2cc:	fd842503          	lw	a0,-40(s0)
 2d0:	00155613          	srli	a2,a0,0x1
 2d4:	00c5e633          	or	a2,a1,a2
 2d8:	fdc42583          	lw	a1,-36(s0)
 2dc:	0015d693          	srli	a3,a1,0x1
 2e0:	fd842583          	lw	a1,-40(s0)
 2e4:	00c5c833          	xor	a6,a1,a2
 2e8:	fdc42583          	lw	a1,-36(s0)
 2ec:	00d5c8b3          	xor	a7,a1,a3
 2f0:	00187693          	andi	a3,a6,1
 2f4:	fed42423          	sw	a3,-24(s0)
 2f8:	0008f693          	andi	a3,a7,0
 2fc:	fed42623          	sw	a3,-20(s0)
 300:	fdc42683          	lw	a3,-36(s0)
 304:	01f69693          	slli	a3,a3,0x1f
 308:	fd842603          	lw	a2,-40(s0)
 30c:	00165713          	srli	a4,a2,0x1
 310:	00e6e733          	or	a4,a3,a4
 314:	fdc42683          	lw	a3,-36(s0)
 318:	0016d793          	srli	a5,a3,0x1
 31c:	fe842683          	lw	a3,-24(s0)
 320:	01e69393          	slli	t2,a3,0x1e
 324:	00000313          	li	t1,0
 328:	00676e33          	or	t3,a4,t1
 32c:	0077eeb3          	or	t4,a5,t2
 330:	000e0713          	mv	a4,t3
 334:	000e8793          	mv	a5,t4
 338:	00070513          	mv	a0,a4
 33c:	00078593          	mv	a1,a5
 340:	02c12403          	lw	s0,44(sp)
 344:	03010113          	addi	sp,sp,48
 348:	00008067          	ret

0000034c <multiply>:
 34c:	fd010113          	addi	sp,sp,-48
 350:	02812623          	sw	s0,44(sp)
 354:	03010413          	addi	s0,sp,48
 358:	fca42e23          	sw	a0,-36(s0)
 35c:	fcb42c23          	sw	a1,-40(s0)
 360:	fe042423          	sw	zero,-24(s0)
 364:	fe042623          	sw	zero,-20(s0)
 368:	0440006f          	j	3ac <.L19>

0000036c <.L21>:
 36c:	fdc42783          	lw	a5,-36(s0)
 370:	0017f793          	andi	a5,a5,1
 374:	00078a63          	beqz	a5,388 <.L20>
 378:	fe842703          	lw	a4,-24(s0)
 37c:	fd842783          	lw	a5,-40(s0)
 380:	00f707b3          	add	a5,a4,a5
 384:	fef42423          	sw	a5,-24(s0)

00000388 <.L20>:
 388:	fdc42783          	lw	a5,-36(s0)
 38c:	4017d793          	srai	a5,a5,0x1
 390:	fcf42e23          	sw	a5,-36(s0)
 394:	fd842783          	lw	a5,-40(s0)
 398:	00179793          	slli	a5,a5,0x1
 39c:	fcf42c23          	sw	a5,-40(s0)
 3a0:	fec42783          	lw	a5,-20(s0)
 3a4:	00178793          	addi	a5,a5,1
 3a8:	fef42623          	sw	a5,-20(s0)

000003ac <.L19>:
 3ac:	fec42703          	lw	a4,-20(s0)
 3b0:	01f00793          	li	a5,31
 3b4:	fae7dce3          	ble	a4,a5,36c <.L21>
 3b8:	fe842783          	lw	a5,-24(s0)
 3bc:	00078513          	mv	a0,a5
 3c0:	02c12403          	lw	s0,44(sp)
 3c4:	03010113          	addi	sp,sp,48
 3c8:	00008067          	ret

000003cc <main>:
 3cc:	e4010113          	addi	sp,sp,-448
 3d0:	1a112e23          	sw	ra,444(sp)
 3d4:	1a812c23          	sw	s0,440(sp)
 3d8:	1c010413          	addi	s0,sp,448
 3dc:	e4a42623          	sw	a0,-436(s0)
 3e0:	e4b42423          	sw	a1,-440(s0)
 3e4:	00100513          	li	a0,1
 3e8:	00000297          	auipc	t0,0x0
 3ec:	000280e7          	jalr	t0
 3f0:	fe042623          	sw	zero,-20(s0)
 3f4:	0680006f          	j	45c <.L24>

000003f8 <.L25>:
 3f8:	000007b7          	lui	a5,0x0
 3fc:	fec42703          	lw	a4,-20(s0)
 400:	00271713          	slli	a4,a4,0x2
 404:	00078793          	mv	a5,a5
 408:	00f707b3          	add	a5,a4,a5
 40c:	0007a683          	lw	a3,0(a5) # 0 <setStats>
 410:	000007b7          	lui	a5,0x0
 414:	fec42703          	lw	a4,-20(s0)
 418:	00271713          	slli	a4,a4,0x2
 41c:	00078793          	mv	a5,a5
 420:	00f707b3          	add	a5,a4,a5
 424:	0007a783          	lw	a5,0(a5) # 0 <setStats>
 428:	00068513          	mv	a0,a3
 42c:	00078593          	mv	a1,a5
 430:	00000297          	auipc	t0,0x0
 434:	000280e7          	jalr	t0
 438:	00050713          	mv	a4,a0
 43c:	fec42783          	lw	a5,-20(s0)
 440:	00279793          	slli	a5,a5,0x2
 444:	ff040693          	addi	a3,s0,-16
 448:	00f687b3          	add	a5,a3,a5
 44c:	e6e7a623          	sw	a4,-404(a5)
 450:	fec42783          	lw	a5,-20(s0)
 454:	00178793          	addi	a5,a5,1
 458:	fef42623          	sw	a5,-20(s0)

0000045c <.L24>:
 45c:	fec42703          	lw	a4,-20(s0)
 460:	06300793          	li	a5,99
 464:	f8e7dae3          	ble	a4,a5,3f8 <.L25>
 468:	00000513          	li	a0,0
 46c:	00000297          	auipc	t0,0x0
 470:	000280e7          	jalr	t0
 474:	e5c40793          	addi	a5,s0,-420
 478:	06400513          	li	a0,100
 47c:	00078593          	mv	a1,a5
 480:	000007b7          	lui	a5,0x0
 484:	00078613          	mv	a2,a5
 488:	00000297          	auipc	t0,0x0
 48c:	000280e7          	jalr	t0
 490:	00050793          	mv	a5,a0
 494:	00078513          	mv	a0,a5
 498:	1bc12083          	lw	ra,444(sp)
 49c:	1b812403          	lw	s0,440(sp)
 4a0:	1c010113          	addi	sp,sp,448
 4a4:	00008067          	ret

Disassembly of section .data:

00000000 <input_data1>:
   0:	0029                	0x29
   2:	0000                	unimp
   4:	01c6                	0x1c6
   6:	0000                	unimp
   8:	0341                	0x341
   a:	0000                	unimp
   c:	0000014f          	fnmadd.s	ft2,ft0,ft0,ft0,rne
  10:	0234                	0x234
  12:	0000                	unimp
  14:	0001                	0x1
  16:	0000                	unimp
  18:	000000bb          	addw	ra,zero,zero
  1c:	03dd                	0x3dd
  1e:	0000                	unimp
  20:	02ed                	0x2ed
  22:	0000                	unimp
  24:	016d                	0x16d
  26:	0000                	unimp
  28:	015e                	0x15e
  2a:	0000                	unimp
  2c:	023c                	0x23c
  2e:	0000                	unimp
  30:	0084                	0x84
  32:	0000                	unimp
  34:	0040                	0x40
  36:	0000                	unimp
  38:	03b5                	0x3b5
  3a:	0000                	unimp
  3c:	0099                	0x99
  3e:	0000                	unimp
  40:	0248                	0x248
  42:	0000                	unimp
  44:	00d8                	0xd8
  46:	0000                	unimp
  48:	0325                	0x325
  4a:	0000                	unimp
  4c:	008c                	0x8c
  4e:	0000                	unimp
  50:	026d                	0x26d
  52:	0000                	unimp
  54:	00d2                	0xd2
  56:	0000                	unimp
  58:	0006                	0x6
  5a:	0000                	unimp
  5c:	023c                	0x23c
  5e:	0000                	unimp
  60:	000003a3          	sb	zero,7(zero)
  64:	00000153          	fadd.s	ft2,ft0,ft0,rne
  68:	037a                	0x37a
  6a:	0000                	unimp
  6c:	0251                	0x251
  6e:	0000                	unimp
  70:	0188                	0x188
  72:	0000                	unimp
  74:	0382                	0x382
  76:	0000                	unimp
  78:	02b6                	0x2b6
  7a:	0000                	unimp
  7c:	00e4                	0xe4
  7e:	0000                	unimp
  80:	03c1                	0x3c1
  82:	0000                	unimp
  84:	000c                	0xc
  86:	0000                	unimp
  88:	006e                	0x6e
  8a:	0000                	unimp
  8c:	00000373          	0x373
  90:	0074                	0x74
  92:	0000                	unimp
  94:	02ee                	0x2ee
  96:	0000                	unimp
  98:	0128                	0x128
  9a:	0000                	unimp
  9c:	0286                	0x286
  9e:	0000                	unimp
  a0:	01aa                	0x1aa
  a2:	0000                	unimp
  a4:	01f4                	0x1f4
  a6:	0000                	unimp
  a8:	013a                	0x13a
  aa:	0000                	unimp
  ac:	01b4                	0x1b4
  ae:	0000                	unimp
  b0:	00000293          	li	t0,0
  b4:	02bd                	0x2bd
  b6:	0000                	unimp
  b8:	0306                	0x306
  ba:	0000                	unimp
  bc:	032c                	0x32c
  be:	0000                	unimp
  c0:	0000013f 000003d5 	0x3d50000013f
  c8:	02a6                	0x2a6
  ca:	0000                	unimp
  cc:	0096                	0x96
  ce:	0000                	unimp
  d0:	0000036b          	0x36b
  d4:	02b8                	0x2b8
  d6:	0000                	unimp
  d8:	0178                	0x178
  da:	0000                	unimp
  dc:	0234                	0x234
  de:	0000                	unimp
  e0:	01da                	0x1da
  e2:	0000                	unimp
  e4:	0110                	0x110
  e6:	0000                	unimp
  e8:	03aa                	0x3aa
  ea:	0000                	unimp
  ec:	0102                	0x102
  ee:	0000                	unimp
  f0:	0000021b          	sext.w	tp,zero
  f4:	00000287          	0x287
  f8:	0239                	0x239
  fa:	0000                	unimp
  fc:	01fd                	0x1fd
  fe:	0000                	unimp
 100:	000000cb          	fnmsub.s	ft1,ft0,ft0,ft0,rne
 104:	0058                	0x58
 106:	0000                	unimp
 108:	0118                	0x118
 10a:	0000                	unimp
 10c:	000002bf 000002f7 	0x2f7000002bf
 114:	029d                	0x29d
 116:	0000                	unimp
 118:	025e                	0x25e
 11a:	0000                	unimp
 11c:	00000177          	0x177
 120:	01ff                	0x1ff
 122:	0000                	unimp
 124:	00000227          	0x227
 128:	0291                	0x291
 12a:	0000                	unimp
 12c:	03a8                	0x3a8
 12e:	0000                	unimp
 130:	000000c3          	fmadd.s	ft1,ft0,ft0,ft0,rne
 134:	0250                	0x250
 136:	0000                	unimp
 138:	0051                	0x51
 13a:	0000                	unimp
 13c:	0239                	0x239
 13e:	0000                	unimp
 140:	0000010b          	custom0	2,0,0,0
 144:	03b8                	0x3b8
 146:	0000                	unimp
 148:	00e5                	0xe5
 14a:	0000                	unimp
 14c:	0320                	0x320
 14e:	0000                	unimp
 150:	0151                	0x151
 152:	0000                	unimp
 154:	0248                	0x248
 156:	0000                	unimp
 158:	03b0                	0x3b0
 15a:	0000                	unimp
 15c:	00000283          	lb	t0,0(zero)
 160:	0386                	0x386
 162:	0000                	unimp
 164:	0170                	0x170
 166:	0000                	unimp
 168:	00f1                	0xf1
 16a:	0000                	unimp
 16c:	01e9                	0x1e9
 16e:	0000                	unimp
 170:	0391                	0x391
 172:	0000                	unimp
 174:	0148                	0x148
 176:	0000                	unimp
 178:	033a                	0x33a
 17a:	0000                	unimp
 17c:	0139                	0x139
 17e:	0000                	unimp
 180:	03a5                	0x3a5
 182:	0000                	unimp
 184:	0250                	0x250
 186:	0000                	unimp
 188:	03d9                	0x3d9
 18a:	0000                	unimp
 18c:	0184                	0x184
 18e:	0000                	unimp

00000190 <input_data2>:
 190:	000000c3          	fmadd.s	ft1,ft0,ft0,ft0,rne
 194:	021f 0000 03c0      	0x3c00000021f
 19a:	0000                	unimp
 19c:	0289                	0x289
 19e:	0000                	unimp
 1a0:	0236                	0x236
 1a2:	0000                	unimp
 1a4:	000003d3          	fadd.s	ft7,ft0,ft0,rne
 1a8:	015e                	0x15e
 1aa:	0000                	unimp
 1ac:	03e5                	0x3e5
 1ae:	0000                	unimp
 1b0:	0289                	0x289
 1b2:	0000                	unimp
 1b4:	032e                	0x32e
 1b6:	0000                	unimp
 1b8:	0291                	0x291
 1ba:	0000                	unimp
 1bc:	0000004f          	fnmadd.s	ft0,ft0,ft0,ft0,rne
 1c0:	00b5                	0xb5
 1c2:	0000                	unimp
 1c4:	00d0                	0xd0
 1c6:	0000                	unimp
 1c8:	0000006f          	j	1c8 <input_data2+0x38>
 1cc:	03e6                	0x3e6
 1ce:	0000                	unimp
 1d0:	0000035b          	custom2	6,0,0,0
 1d4:	0275                	0x275
 1d6:	0000                	unimp
 1d8:	0041                	0x41
 1da:	0000                	unimp
 1dc:	0000034f          	fnmadd.s	ft6,ft0,ft0,ft0,rne
 1e0:	0120                	0x120
 1e2:	0000                	unimp
 1e4:	02c0                	0x2c0
 1e6:	0000                	unimp
 1e8:	015d                	0x15d
 1ea:	0000                	unimp
 1ec:	03e5                	0x3e5
 1ee:	0000                	unimp
 1f0:	008d                	0x8d
 1f2:	0000                	unimp
 1f4:	00fd                	0xfd
 1f6:	0000                	unimp
 1f8:	0389                	0x389
 1fa:	0000                	unimp
 1fc:	000002cb          	fnmsub.s	ft5,ft0,ft0,ft0,rne
 200:	0376                	0x376
 202:	0000                	unimp
 204:	01ae                	0x1ae
 206:	0000                	unimp
 208:	0108                	0x108
 20a:	0000                	unimp
 20c:	019f 0000 0240      	0x2400000019f
 212:	0000                	unimp
 214:	021a                	0x21a
 216:	0000                	unimp
 218:	000003d3          	fadd.s	ft7,ft0,ft0,rne
 21c:	02bc                	0x2bc
 21e:	0000                	unimp
 220:	02f9                	0x2f9
 222:	0000                	unimp
 224:	0004                	0x4
 226:	0000                	unimp
 228:	00f1                	0xf1
 22a:	0000                	unimp
 22c:	01ee                	0x1ee
 22e:	0000                	unimp
 230:	01de                	0x1de
 232:	0000                	unimp
 234:	0064                	0x64
 236:	0000                	unimp
 238:	000001f3          	0x1f3
 23c:	0360                	0x360
 23e:	0000                	unimp
 240:	00000193          	li	gp,0
 244:	02b5                	0x2b5
 246:	0000                	unimp
 248:	00de                	0xde
 24a:	0000                	unimp
 24c:	01a0                	0x1a0
 24e:	0000                	unimp
 250:	01bc                	0x1bc
 252:	0000                	unimp
 254:	0128                	0x128
 256:	0000                	unimp
 258:	02d1                	0x2d1
 25a:	0000                	unimp
 25c:	011d                	0x11d
 25e:	0000                	unimp
 260:	02a4                	0x2a4
 262:	0000                	unimp
 264:	026c                	0x26c
 266:	0000                	unimp
 268:	013d                	0x13d
 26a:	0000                	unimp
 26c:	004e                	0x4e
 26e:	0000                	unimp
 270:	00e0                	0xe0
 272:	0000                	unimp
 274:	015f 0000 03a9      	0x3a90000015f
 27a:	0000                	unimp
 27c:	021c                	0x21c
 27e:	0000                	unimp
 280:	0120                	0x120
 282:	0000                	unimp
 284:	0286                	0x286
 286:	0000                	unimp
 288:	00000077          	0x77
 28c:	00a9                	0xa9
 28e:	0000                	unimp
 290:	00000267          	jalr	tp,zero
 294:	0000020f          	0x20f
 298:	025e                	0x25e
 29a:	0000                	unimp
 29c:	0121                	0x121
 29e:	0000                	unimp
 2a0:	0185                	0x185
 2a2:	0000                	unimp
 2a4:	031c                	0x31c
 2a6:	0000                	unimp
 2a8:	015f 0000 0321      	0x3210000015f
 2ae:	0000                	unimp
 2b0:	000001c7          	fmsub.s	ft3,ft0,ft0,ft0,rne
 2b4:	02d0                	0x2d0
 2b6:	0000                	unimp
 2b8:	0116                	0x116
 2ba:	0000                	unimp
 2bc:	02f6                	0x2f6
 2be:	0000                	unimp
 2c0:	0000016f          	jal	sp,2c0 <input_data2+0x130>
 2c4:	02e9                	0x2e9
 2c6:	0000                	unimp
 2c8:	0166                	0x166
 2ca:	0000                	unimp
 2cc:	005c                	0x5c
 2ce:	0000                	unimp
 2d0:	0248                	0x248
 2d2:	0000                	unimp
 2d4:	03dd                	0x3dd
 2d6:	0000                	unimp
 2d8:	003e                	0x3e
 2da:	0000                	unimp
 2dc:	0000010f          	0x10f
 2e0:	03d9                	0x3d9
 2e2:	0000                	unimp
 2e4:	0355                	0x355
 2e6:	0000                	unimp
 2e8:	00000193          	li	gp,0
 2ec:	0314                	0x314
 2ee:	0000                	unimp
 2f0:	015a                	0x15a
 2f2:	0000                	unimp
 2f4:	00000213          	li	tp,0
 2f8:	0205                	0x205
 2fa:	0000                	unimp
 2fc:	00de                	0xde
 2fe:	0000                	unimp
 300:	0000022f          	0x22f
 304:	01cd                	0x1cd
 306:	0000                	unimp
 308:	038c                	0x38c
 30a:	0000                	unimp
 30c:	00f1                	0xf1
 30e:	0000                	unimp
 310:	00000307          	0x307
 314:	0166                	0x166
 316:	0000                	unimp
 318:	00ff                	0xff
 31a:	0000                	unimp
 31c:	014c                	0x14c
 31e:	0000                	unimp

00000320 <verify_data>:
 320:	00001f3b          	sllw	t5,zero,zero
 324:	c2fa                	0xc2fa
 326:	33c00003          	lb	zero,828(zero)
 32a:	000c                	0xc
 32c:	00035147          	fmsub.s	ft2,ft6,ft0,ft0,unknown
 330:	def8                	0xdef8
 332:	0004                	0x4
 334:	000003d3          	fadd.s	ft7,ft0,ft0,rne
 338:	ffaa                	0xffaa
 33a:	0000                	unimp
 33c:	0bb1                	0xbb1
 33e:	6ad5000f          	0x6ad5000f
 342:	88960007          	0x88960007
 346:	0004                	0x4
 348:	823e                	0x823e
 34a:	b0840003          	lb	zero,-1272(s0)
 34e:	0000                	unimp
 350:	5d54                	0x5d54
 352:	0000                	unimp
 354:	3400                	0x3400
 356:	0000                	unimp
 358:	00019b7b          	0x19b7b
 35c:	5476                	0x5476
 35e:	0002                	0x2
 360:	a798                	0xa798
 362:	12b80007          	0x12b80007
 366:	0002                	0x2
 368:	cc65                	0xcc65
 36a:	0000                	unimp
 36c:	cf34                	0xcf34
 36e:	0001                	0x1
 370:	baa0                	0xbaa0
 372:	0002                	0x2
 374:	4180                	0x4180
 376:	0002                	0x2
 378:	082e                	0x82e
 37a:	0000                	unimp
 37c:	b3ac                	0xb3ac
 37e:	0008                	0x8
 380:	000200c7          	fmsub.s	ft1,ft4,ft0,ft0,rne
 384:	00014f07          	0x14f07
 388:	4a4a                	0x4a4a
 38a:	000c                	0xc
 38c:	0006783b          	0x6783b
 390:	4cb0                	0x4cb0
 392:	0005                	0x5
 394:	e45c                	0xe45c
 396:	0005                	0x5
 398:	cbb0                	0xcbb0
 39a:	0002                	0x2
 39c:	719c                	0x719c
 39e:	0001                	0x1
 3a0:	7240                	0x7240
 3a2:	0008                	0x8
 3a4:	1938                	0x1938
 3a6:	0000                	unimp
 3a8:	a4aa                	0xa4aa
 3aa:	0001                	0x1
 3ac:	6e74                	0x6e74
 3ae:	0009                	0x9
 3b0:	58d4                	0x58d4
 3b2:	0001                	0x1
 3b4:	0bb8                	0xbb8
 3b6:	0000                	unimp
 3b8:	16a8                	0x16a8
 3ba:	0001                	0x1
 3bc:	de94                	0xde94
 3be:	0004                	0x4
 3c0:	1b6c                	0x1b6c
 3c2:	c3500003          	lb	zero,-971(zero)
 3c6:	0000                	unimp
 3c8:	640e                	0x640e
 3ca:	0002                	0x2
 3cc:	bf80                	0xbf80
 3ce:	0005                	0x5
 3d0:	0d69                	0xd69
 3d2:	0004                	0x4
 3d4:	69a1                	0x69a1
 3d6:	9f340007          	0x9f340007
 3da:	0002                	0x2
 3dc:	2780                	0x2780
 3de:	0005                	0x5
 3e0:	2944                	0x2944
 3e2:	0002                	0x2
 3e4:	6e48                	0x6e48
 3e6:	0004                	0x4
 3e8:	7586                	0x7586
 3ea:	a6fe0007          	0xa6fe0007
 3ee:	0000                	unimp
 3f0:	068c                	0x68c
 3f2:	0009                	0x9
 3f4:	95a0                	0x95a0
 3f6:	0006                	0x6
 3f8:	d198                	0xd198
 3fa:	0001                	0x1
 3fc:	abd8                	0xabd8
 3fe:	0000                	unimp
 400:	9ec0                	0x9ec0
 402:	0001                	0x1
 404:	74f0                	0x74f0
 406:	0001                	0x1
 408:	693a                	0x693a
 40a:	000d                	0xd
 40c:	2038                	0x2038
 40e:	0002                	0x2
 410:	5e60                	0x5e60
 412:	0002                	0x2
 414:	60aa                	0x60aa
 416:	0006                	0x6
 418:	087f                	0x87f
 41a:	0001                	0x1
 41c:	5005                	0x5005
 41e:	0001                	0x1
 420:	e7ad                	0xe7ad
 422:	0001                	0x1
 424:	b528                	0xb528
 426:	0000                	unimp
 428:	96d0                	0x96d0
 42a:	0002                	0x2
 42c:	199f 0003 8153      	0x81530003199f
 432:	0004                	0x4
 434:	202c                	0x202c
 436:	0008                	0x8
 438:	3ee2                	0x3ee2
 43a:	95570003          	lb	zero,-1707(a4)
 43e:	0004                	0x4
 440:	8c39                	0x8c39
 442:	0db00003          	lb	zero,219(zero)
 446:	0006                	0x6
 448:	c976                	0xc976
 44a:	0002                	0x2
 44c:	d370                	0xd370
 44e:	000a                	0xa
 450:	178d                	0x178d
 452:	0001                	0x1
 454:	bad0                	0xbad0
 456:	0006                	0x6
 458:	7146                	0x7146
 45a:	0000                	unimp
 45c:	cc7c                	0xcc7c
 45e:	0000                	unimp
 460:	6118                	0x6118
 462:	0002                	0x2
 464:	5dd8                	0x5dd8
 466:	000e                	0xe
 468:	3776                	0x3776
 46a:	0000                	unimp
 46c:	4ee0                	0x4ee0
 46e:	10a90003          	lb	zero,266(s2)
 472:	0005                	0x5
 474:	99e8                	0x99e8
 476:	ce100007          	0xce100007
 47a:	0005                	0x5
 47c:	bb3c                	0xbb3c
 47e:	c31c0007          	0xc31c0007
 482:	0004                	0x4
 484:	fb50                	0xfb50
 486:	0002                	0x2
 488:	e6b5                	0xe6b5
 48a:	0001                	0x1
 48c:	a80e                	0xa80e
 48e:	0001                	0x1
 490:	c99f 0007 4ea8      	0x4ea80007c99f
 496:	0002                	0x2
 498:	71b8                	0x71b8
 49a:	26a9000b          	custom0	0,18,10,19
 49e:	0001                	0x1
 4a0:	000b0883          	lb	a7,0(s6)
 4a4:	3be0                	0x3be0
 4a6:	d5270003          	lb	zero,-686(a4)
 4aa:	f7300003          	lb	zero,-141(zero)
 4ae:	0001                	0x1
